###############################################################################
#                                                                             #
# IAR C/C++ Compiler V8.10.3.10338/W32 for 8051         07/Dec/2015  15:59:15 #
# Copyright 2004-2011 IAR Systems AB.                                         #
#                                                                             #
#    Core               =  plain                                              #
#    Code model         =  banked                                             #
#    Data model         =  large                                              #
#    Calling convention =  xdata reentrant                                    #
#    Constant location  =  data_rom                                           #
#    Dptr setup         =  1,16                                               #
#    Source file        =  C:\Users\Administrator\Desktop\NDN-Double\Projects #
#                          \zstack\Samples\NDN5.0(count值变化)\Source\SampleA #
#                          pp.c                                               #
#    Command line       =  -f "C:\Users\Administrator\Desktop\NDN-Double\Proj #
#                          ects\zstack\Samples\NDN5.0(count值变化)\CC2530DB\. #
#                          .\..\..\Tools\CC2530DB\f8wRouter.cfg" (-DCPU32MHZ  #
#                          -DROOT=__near_func -DMAC_CFG_APP_PENDING_QUEUE=TRU #
#                          E -DRTR_NWK -DBLINK_LEDS) -f                       #
#                          "C:\Users\Administrator\Desktop\NDN-Double\Project #
#                          s\zstack\Samples\NDN5.0(count值变化)\CC2530DB\..\. #
#                          .\..\Tools\CC2530DB\f8wConfig.cfg" (-DSECURE=0     #
#                          -DZG_SECURE_DYNAMIC=0 -DREFLECTOR                  #
#                          -DDEFAULT_CHANLIST=0x00100000                      #
#                          -DZDAPP_CONFIG_PAN_ID=0xFFF1                       #
#                          -DNWK_START_DELAY=100 -DEXTENDED_JOINING_RANDOM_MA #
#                          SK=0x007F -DBEACON_REQUEST_DELAY=100               #
#                          -DBEACON_REQ_DELAY_MASK=0x00FF                     #
#                          -DROUTE_EXPIRY_TIME=30 -DAPSC_ACK_WAIT_DURATION_PO #
#                          LLED=3000 -DNWK_INDIRECT_MSG_TIMEOUT=7             #
#                          -DMAX_RREQ_ENTRIES=8 -DAPSC_MAX_FRAME_RETRIES=3    #
#                          -DNWK_MAX_DATA_RETRIES=2                           #
#                          -DMAX_POLL_FAILURE_RETRIES=2 -DMAX_BCAST=9         #
#                          -DAPS_MAX_GROUPS=16 -DMAX_RTG_ENTRIES=40           #
#                          -DNWK_MAX_BINDING_ENTRIES=4                        #
#                          -DMAX_BINDING_CLUSTER_IDS=4 "-DDEFAULT_KEY={0x01,  #
#                          0x03, 0x05, 0x07, 0x09, 0x0B, 0x0D, 0x0F, 0x00,    #
#                          0x02, 0x04, 0x06, 0x08, 0x0A, 0x0C, 0x0D}"         #
#                          -DMAC_MAX_FRAME_SIZE=116 "-DCONST=const __code"    #
#                          -DGENERIC=__generic -DRFD_RCVC_ALWAYS_ON=FALSE     #
#                          -DPOLL_RATE=1000 -DQUEUED_POLL_RATE=100            #
#                          -DRESPONSE_POLL_RATE=100) -DREJOIN_POLL_RATE=440   #
#                          "C:\Users\Administrator\Desktop\NDN-Double\Project #
#                          s\zstack\Samples\NDN5.0(count值变化)\Source\Sample #
#                          App.c" -D ZIGBEEPRO -D ZTOOL_P1 -D MT_TASK -D      #
#                          MT_SYS_FUNC -D MT_ZDO_FUNC -D LCD_SUPPORTED=DEBUG  #
#                          -lC "C:\Users\Administrator\Desktop\NDN-Double\Pro #
#                          jects\zstack\Samples\NDN5.0(count值变化)\CC2530DB\ #
#                          RouterEB-Pro\List\" -lA "C:\Users\Administrator\De #
#                          sktop\NDN-Double\Projects\zstack\Samples\NDN5.0(co #
#                          unt值变化)\CC2530DB\RouterEB-Pro\List\"            #
#                          --diag_suppress Pe001,Pa010 -o                     #
#                          "C:\Users\Administrator\Desktop\NDN-Double\Project #
#                          s\zstack\Samples\NDN5.0(count值变化)\CC2530DB\Rout #
#                          erEB-Pro\Obj\" -e --debug --core=plain             #
#                          --dptr=16,1 --data_model=large                     #
#                          --code_model=banked --calling_convention=xdata_ree #
#                          ntrant --place_constants=data_rom                  #
#                          --nr_virtual_regs 16 -I "C:\Users\Administrator\De #
#                          sktop\NDN-Double\Projects\zstack\Samples\NDN5.0(co #
#                          unt值变化)\CC2530DB\" -I                           #
#                          "C:\Users\Administrator\Desktop\NDN-Double\Project #
#                          s\zstack\Samples\NDN5.0(count值变化)\CC2530DB\..\S #
#                          OURCE\" -I "C:\Users\Administrator\Desktop\NDN-Dou #
#                          ble\Projects\zstack\Samples\NDN5.0(count值变化)\CC #
#                          2530DB\..\..\..\ZMAIN\TI2530DB\" -I                #
#                          "C:\Users\Administrator\Desktop\NDN-Double\Project #
#                          s\zstack\Samples\NDN5.0(count值变化)\CC2530DB\..\. #
#                          .\..\..\..\COMPONENTS\MT\" -I                      #
#                          "C:\Users\Administrator\Desktop\NDN-Double\Project #
#                          s\zstack\Samples\NDN5.0(count值变化)\CC2530DB\..\. #
#                          .\..\..\..\COMPONENTS\HAL\INCLUDE\" -I             #
#                          "C:\Users\Administrator\Desktop\NDN-Double\Project #
#                          s\zstack\Samples\NDN5.0(count值变化)\CC2530DB\..\. #
#                          .\..\..\..\COMPONENTS\HAL\TARGET\CC2530EB\" -I     #
#                          "C:\Users\Administrator\Desktop\NDN-Double\Project #
#                          s\zstack\Samples\NDN5.0(count值变化)\CC2530DB\..\. #
#                          .\..\..\..\COMPONENTS\OSAL\MCU\CCSOC\" -I          #
#                          "C:\Users\Administrator\Desktop\NDN-Double\Project #
#                          s\zstack\Samples\NDN5.0(count值变化)\CC2530DB\..\. #
#                          .\..\..\..\COMPONENTS\OSAL\INCLUDE\" -I            #
#                          "C:\Users\Administrator\Desktop\NDN-Double\Project #
#                          s\zstack\Samples\NDN5.0(count值变化)\CC2530DB\..\. #
#                          .\..\..\..\COMPONENTS\STACK\AF\" -I                #
#                          "C:\Users\Administrator\Desktop\NDN-Double\Project #
#                          s\zstack\Samples\NDN5.0(count值变化)\CC2530DB\..\. #
#                          .\..\..\..\COMPONENTS\STACK\NWK\" -I               #
#                          "C:\Users\Administrator\Desktop\NDN-Double\Project #
#                          s\zstack\Samples\NDN5.0(count值变化)\CC2530DB\..\. #
#                          .\..\..\..\COMPONENTS\STACK\SEC\" -I               #
#                          "C:\Users\Administrator\Desktop\NDN-Double\Project #
#                          s\zstack\Samples\NDN5.0(count值变化)\CC2530DB\..\. #
#                          .\..\..\..\COMPONENTS\STACK\SAPI\" -I              #
#                          "C:\Users\Administrator\Desktop\NDN-Double\Project #
#                          s\zstack\Samples\NDN5.0(count值变化)\CC2530DB\..\. #
#                          .\..\..\..\COMPONENTS\STACK\SYS\" -I               #
#                          "C:\Users\Administrator\Desktop\NDN-Double\Project #
#                          s\zstack\Samples\NDN5.0(count值变化)\CC2530DB\..\. #
#                          .\..\..\..\COMPONENTS\STACK\ZDO\" -I               #
#                          "C:\Users\Administrator\Desktop\NDN-Double\Project #
#                          s\zstack\Samples\NDN5.0(count值变化)\CC2530DB\..\. #
#                          .\..\..\..\COMPONENTS\ZMAC\F8W\" -I                #
#                          "C:\Users\Administrator\Desktop\NDN-Double\Project #
#                          s\zstack\Samples\NDN5.0(count值变化)\CC2530DB\..\. #
#                          .\..\..\..\COMPONENTS\ZMAC\" -I                    #
#                          "C:\Users\Administrator\Desktop\NDN-Double\Project #
#                          s\zstack\Samples\NDN5.0(count值变化)\CC2530DB\..\. #
#                          .\..\..\..\COMPONENTS\SERVICES\SADDR\" -I          #
#                          "C:\Users\Administrator\Desktop\NDN-Double\Project #
#                          s\zstack\Samples\NDN5.0(count值变化)\CC2530DB\..\. #
#                          .\..\..\..\COMPONENTS\SERVICES\SDATA\" -I          #
#                          "C:\Users\Administrator\Desktop\NDN-Double\Project #
#                          s\zstack\Samples\NDN5.0(count值变化)\CC2530DB\..\. #
#                          .\..\..\..\COMPONENTS\MAC\INCLUDE\" -I             #
#                          "C:\Users\Administrator\Desktop\NDN-Double\Project #
#                          s\zstack\Samples\NDN5.0(count值变化)\CC2530DB\..\. #
#                          .\..\..\..\COMPONENTS\MAC\HIGH_LEVEL\" -I          #
#                          "C:\Users\Administrator\Desktop\NDN-Double\Project #
#                          s\zstack\Samples\NDN5.0(count值变化)\CC2530DB\..\. #
#                          .\..\..\..\COMPONENTS\MAC\LOW_LEVEL\srf04\" -I     #
#                          "C:\Users\Administrator\Desktop\NDN-Double\Project #
#                          s\zstack\Samples\NDN5.0(count值变化)\CC2530DB\..\. #
#                          .\..\..\..\COMPONENTS\MAC\LOW_LEVEL\srf04\SINGLE_C #
#                          HIP\" -Ohz --require_prototypes                    #
#    List file          =  C:\Users\Administrator\Desktop\NDN-Double\Projects #
#                          \zstack\Samples\NDN5.0(count值变化)\CC2530DB\Route #
#                          rEB-Pro\List\SampleApp.lst                         #
#    Object file        =  C:\Users\Administrator\Desktop\NDN-Double\Projects #
#                          \zstack\Samples\NDN5.0(count值变化)\CC2530DB\Route #
#                          rEB-Pro\Obj\SampleApp.r51                          #
#                                                                             #
#                                                                             #
###############################################################################

C:\Users\Administrator\Desktop\NDN-Double\Projects\zstack\Samples\NDN5.0(count值变化)\Source\SampleApp.c
      1          /*********************************************************************
      2           * INCLUDES
      3           */
      4          #include "OSAL.h"
      5          #include "ZGlobals.h"
      6          #include "AF.h"
      7          #include "aps_groups.h"
      8          #include "ZDApp.h"
      9          
     10          #include "SampleApp.h"
     11          #include "SampleAppHw.h"
     12          
     13          #include "OnBoard.h"

   \                                 In  segment SFR_AN, at 0x88
   \   union <unnamed> volatile __sfr _A_TCON
   \                     _A_TCON:
   \   000000                DS 1

   \                                 In  segment SFR_AN, at 0xb6
   \   unsigned char volatile __sfr ADCCON3
   \                     ADCCON3:
   \   000000                DS 1

   \                                 In  segment SFR_AN, at 0xba
   \   unsigned char volatile __sfr ADCL
   \                     ADCL:
   \   000000                DS 1

   \                                 In  segment SFR_AN, at 0xbb
   \   unsigned char volatile __sfr ADCH
   \                     ADCH:
   \   000000                DS 1
     14          
     15          /* HAL */
     16          #include "hal_lcd.h"
     17          #include "hal_led.h"
     18          #include "hal_key.h"
     19          #include "MT_UART.h"
     20          #include "MT_APP.h"
     21          #include "MT.h"
     22          #include "stdlib.h"
     23          

   \                                 In  segment XDATA_I, align 1, keep-with-next
     24          int NodeId = 1;
   \                     NodeId:
   \   000000                DS 2
   \   000002                REQUIRE `?<Initializer for NodeId>`
   \   000002                REQUIRE __INIT_XDATA_I

   \                                 In  segment XDATA_I, align 1, keep-with-next
     25          int layer = 1;
   \                     layer:
   \   000000                DS 2
   \   000002                REQUIRE `?<Initializer for layer>`
   \   000002                REQUIRE __INIT_XDATA_I
     26          

   \                                 In  segment XDATA_Z, align 1, keep-with-next
     27          uint16 flag=0;
   \                     flag:
   \   000000                DS 2
   \   000002                REQUIRE __INIT_XDATA_Z

   \                                 In  segment XDATA_Z, align 1, keep-with-next
     28          uint16 packagecount=0;
   \                     packagecount:
   \   000000                DS 2
   \   000002                REQUIRE __INIT_XDATA_Z

   \                                 In  segment XDATA_Z, align 1, keep-with-next
     29          uint16 countflag=0;
   \                     countflag:
   \   000000                DS 2
   \   000002                REQUIRE __INIT_XDATA_Z

   \                                 In  segment XDATA_Z, align 1, keep-with-next
     30          uint16 removeflag=0;
   \                     removeflag:
   \   000000                DS 2
   \   000002                REQUIRE __INIT_XDATA_Z
     31          

   \                                 In  segment XDATA_Z, align 1, keep-with-next
     32          uint16 num;//数据包总个数
   \                     num:
   \   000000                DS 2
   \   000002                REQUIRE __INIT_XDATA_Z
     33          
     34          //三大表的变量声明定义
     35          /////////////////////////////////////////////////////////////////////////////////

   \                                 In  segment XDATA_Z, align 1, keep-with-next
     36          int temp_i;	
   \                     temp_i:
   \   000000                DS 2
   \   000002                REQUIRE __INIT_XDATA_Z

   \                                 In  segment XDATA_Z, align 1, keep-with-next
     37          int temp_j;
   \                     temp_j:
   \   000000                DS 2
   \   000002                REQUIRE __INIT_XDATA_Z
     38          //counter记录本节点已经发送过得批次的最大值，用于过滤返回数据的个数，即聚合作用

   \                                 In  segment XDATA_Z, align 1, keep-with-next
     39          int counter;
   \                     counter:
   \   000000                DS 2
   \   000002                REQUIRE __INIT_XDATA_Z
     40          
     41          //Interesting相关变量定义	

   \                                 In  segment XDATA_Z, align 1, keep-with-next
     42          InterestName	tempInterName;
   \                     tempInterName:
   \   000000                DS 6
   \   000006                REQUIRE __INIT_XDATA_Z

   \                                 In  segment XDATA_Z, align 1, keep-with-next
     43          Interest	AcceptInterest;
   \                     AcceptInterest:
   \   000000                DS 12
   \   00000C                REQUIRE __INIT_XDATA_Z

   \                                 In  segment XDATA_Z, align 1, keep-with-next
     44          uint16 InterestLastID;
   \                     InterestLastID:
   \   000000                DS 2
   \   000002                REQUIRE __INIT_XDATA_Z
     45          	
     46          //Data相关变量定义

   \                                 In  segment XDATA_Z, align 1, keep-with-next
     47          Data	AcceptData;
   \                     AcceptData:
   \   000000                DS 12
   \   00000C                REQUIRE __INIT_XDATA_Z
     48          
     49          //CS表需要的相关定义
     50          //CS表

   \                                 In  segment XDATA_Z, align 1, keep-with-next
     51          CSItem	ContentStore[ContentStoreNumber];
   \                     ContentStore:
   \   000000                DS 140
   \   00008C                REQUIRE __INIT_XDATA_Z
     52          //CS目前的条目计数

   \                                 In  segment XDATA_Z, align 1, keep-with-next
     53          int CScounter=0;
   \                     CScounter:
   \   000000                DS 2
   \   000002                REQUIRE __INIT_XDATA_Z
     54          
     55          //PIT表相关变量定义	
     56          //PIT表	

   \                                 In  segment XDATA_Z, align 1, keep-with-next
     57          PITItem	PendingTable[PendingNumber];
   \                     PendingTable:
   \   000000                DS 200
   \   0000C8                REQUIRE __INIT_XDATA_Z
     58          //PIT表目前的条目计数

   \                                 In  segment XDATA_Z, align 1, keep-with-next
     59          int	PITCounter = 0;
   \                     PITCounter:
   \   000000                DS 2
   \   000002                REQUIRE __INIT_XDATA_Z
     60          
     61          //FIB表相关变量定义
     62          //FIB表

   \                                 In  segment XDATA_Z, align 1, keep-with-next
     63          FIBItem	ForwardingTable[ForwardingNumber];
   \                     ForwardingTable:
   \   000000                DS 220
   \   0000DC                REQUIRE __INIT_XDATA_Z

   \                                 In  segment XDATA_Z, align 1, keep-with-next
     64          int	FIBCounter = 0;//FIB表目前的条目计数
   \                     FIBCounter:
   \   000000                DS 2
   \   000002                REQUIRE __INIT_XDATA_Z

   \                                 In  segment XDATA_Z, align 1, keep-with-next
     65          int	InsertNewName;//0为未初始化，1为插入了一个新的interestname
   \                     InsertNewName:
   \   000000                DS 2
   \   000002                REQUIRE __INIT_XDATA_Z
     66          //////////////////////////////////////////////////////////////////////
     67          

   \                                 In  segment XDATA_ROM_C, align 1
     68          const cId_t SampleApp_ClusterList[SAMPLEAPP_MAX_CLUSTERS] =
   \                     SampleApp_ClusterList:
   \   000000   0100         DW 1
   \   000002   0200         DW 2
     69          {
     70            SAMPLEAPP_PERIODIC_CLUSTERID,
     71            SAMPLEAPP_FLASH_CLUSTERID
     72          };
     73          

   \                                 In  segment XDATA_ROM_C, align 1
     74          const SimpleDescriptionFormat_t SampleApp_SimpleDesc =
   \                     SampleApp_SimpleDesc:
   \   000000   14           DB 20
   \   000001   080F         DW 3848
   \   000003   0100         DW 1
   \   000005   00           DB 0
   \   000006   02           DB 2
   \   000007   ....         DW SampleApp_ClusterList
   \   000009   02           DB 2
   \   00000A   ....         DW SampleApp_ClusterList
     75          {
     76            SAMPLEAPP_ENDPOINT,              //  int Endpoint;
     77            SAMPLEAPP_PROFID,                //  uint16 AppProfId[2];
     78            SAMPLEAPP_DEVICEID,              //  uint16 AppDeviceId[2];
     79            SAMPLEAPP_DEVICE_VERSION,        //  int   AppDevVer:4;
     80            SAMPLEAPP_FLAGS,                 //  int   AppFlags:4;
     81            SAMPLEAPP_MAX_CLUSTERS,          //  uint8  AppNumInClusters;
     82            (cId_t *)SampleApp_ClusterList,  //  uint8 *pAppInClusterList;
     83            SAMPLEAPP_MAX_CLUSTERS,          //  uint8  AppNumInClusters;
     84            (cId_t *)SampleApp_ClusterList   //  uint8 *pAppInClusterList;
     85          };
     86          

   \                                 In  segment XDATA_Z, align 1, keep-with-next
     87          endPointDesc_t SampleApp_epDesc;
   \                     SampleApp_epDesc:
   \   000000                DS 6
   \   000006                REQUIRE __INIT_XDATA_Z
     88          
     89          

   \                                 In  segment XDATA_Z, align 1, keep-with-next
     90          uint8 SampleApp_TaskID;   // Task ID for internal task/event processing
   \                     SampleApp_TaskID:
   \   000000                DS 1
   \   000001                REQUIRE __INIT_XDATA_Z
     91                                    // This variable will be received when
     92                                    // SampleApp_Init() is called.

   \                                 In  segment XDATA_Z, align 1, keep-with-next
     93          devStates_t SampleApp_NwkState;
   \                     SampleApp_NwkState:
   \   000000                DS 1
   \   000001                REQUIRE __INIT_XDATA_Z
     94          

   \                                 In  segment XDATA_Z, align 1, keep-with-next
     95          uint8 SampleApp_TransID;  // This is the unique message ID (counter)
   \                     SampleApp_TransID:
   \   000000                DS 1
   \   000001                REQUIRE __INIT_XDATA_Z
     96          

   \                                 In  segment XDATA_Z, align 1, keep-with-next
     97          afAddrType_t SampleApp_Periodic_DstAddr; //广播
   \                     SampleApp_Periodic_DstAddr:
   \   000000                DS 12
   \   00000C                REQUIRE __INIT_XDATA_Z

   \                                 In  segment XDATA_Z, align 1, keep-with-next
     98          afAddrType_t SampleApp_Flash_DstAddr;    //组播
   \                     SampleApp_Flash_DstAddr:
   \   000000                DS 12
   \   00000C                REQUIRE __INIT_XDATA_Z

   \                                 In  segment XDATA_Z, align 1, keep-with-next
     99          afAddrType_t SampleApp_P2P_DstAddr;      //点播
   \                     SampleApp_P2P_DstAddr:
   \   000000                DS 12
   \   00000C                REQUIRE __INIT_XDATA_Z
    100          

   \                                 In  segment XDATA_Z, align 1, keep-with-next
    101          aps_Group_t SampleApp_Group;
   \                     SampleApp_Group:
   \   000000                DS 18
   \   000012                REQUIRE __INIT_XDATA_Z
    102          

   \                                 In  segment XDATA_Z, align 1, keep-with-next
    103          uint8 SampleAppPeriodicCounter = 0;
   \                     SampleAppPeriodicCounter:
   \   000000                DS 1
   \   000001                REQUIRE __INIT_XDATA_Z

   \                                 In  segment XDATA_Z, align 1, keep-with-next
    104          uint8 SampleAppFlashCounter = 0;
   \                     SampleAppFlashCounter:
   \   000000                DS 1
   \   000001                REQUIRE __INIT_XDATA_Z
    105          
    106          /*********************************************************************
    107           * LOCAL FUNCTIONS
    108           */
    109          void SampleApp_MessageMSGCB( afIncomingMSGPacket_t *pckt );
    110          
    111          //NDN函数声明
    112          /////////////////////////////////////////////////////////
    113          void SampleApp_COOR_Send_Message(void);//协调器下发兴趣包
    114          void SampleApp_Interest_Process(afIncomingMSGPacket_t *pkt);//兴趣包处理
    115          void SampleApp_ContinueSend(void);
    116          void ForwardingInterestFromFIB(int id);//FIB转发兴趣包
    117          void SampleApp_AckMessage_Send(int lastid);
    118          void SampleApp_Ack_Process( afIncomingMSGPacket_t *pkt );//ACK包处理
    119          void SampleApp_DataMessage_Send(int id,int counter);//回数据包
    120          uint16 getADC (void);//采集电压
    121          void SampleApp_Data_Process( afIncomingMSGPacket_t *pkt );
    122          void SendDataFromPIT( uint8 num, Data data);//PIT表发数据
    123          void SampleApp_SendDataFromCS( uint16 num,uint16 Addr);
    124          
    125          //NDN CS表相关声明
    126          void InsertContentStore(Data data);
    127          int ContentStoreFinder(Interest interest);
    128          void DeleteItemCS(void);
    129          
    130          //NDN PIT表相关操作函数
    131          int PendingTableFindInterest(Interest interest);//PIT表中interest查找
    132          void InsertNamePIT(Interest interest);//PIT表中未找到interestname则插入interestname和incommingQueue
    133          void InsertIncomingPIT(uint8 i);//PIT表中找到了interestName则插入incommingQuere
    134          int PendingTableFindData(Data data);//PIT表中查找Data知否为等待的data
    135          void DeleteItemPITS(int i);//PIT表中删除特定的Item
    136          void DeleteItemPIT(void);//PIT表中删除操作，根据已经存在的time，删除长时间的
    137          
    138          //FIB表相关操作
    139          //FIB表查找interest，使用模糊查询，即只是比较DestinationID和DataFlag即可，不需要需要批次一样。
    140          int ForwardingTableFinder(Interest interest);
    141          //FIB表未找到interest，插入新的interestnName，其他等待回复ACK后再添加。后进行广播转发
    142          void InsertInterestFIB(Interest interest);
    143          //FIB发送完新的interest后收到了ACK来进行outcomingQueue添加,
    144          //若没有接受到下一跳的回复，则新的interest丢弃，根据OutcomingNumber来判断
    145          void InsertQueueFIB(uint8 interestID,uint16 nodeid);
    146          //FIB表进行删除，删除当前没有被重复使用且时间最长的条目
    147          void DeleteItemFIB(void);
    148          //FIB表中删除特定的Item
    149          void DeleteItemFIBS(int i);
    150          
    151          /////////////////////////////////////////////////////////////////////////////////////
    152          
    153          
    154          

   \                                 In  segment BANKED_CODE, align 1, keep-with-next
    155          void SampleApp_Init( uint8 task_id )
   \                     SampleApp_Init:
    156          { 
   \   000000   74F5         MOV     A,#-0xb
   \   000002   12....       LCALL   ?BANKED_ENTER_XDATA
   \   000005                ; Saved register size: 11
   \   000005                ; Auto size: 0
   \   000005   E9           MOV     A,R1
   \   000006   FE           MOV     R6,A
    157            SampleApp_TaskID = task_id;
   \   000007   90....       MOV     DPTR,#SampleApp_TaskID
   \   00000A   F0           MOVX    @DPTR,A
    158            SampleApp_NwkState = DEV_INIT;
   \   00000B   90....       MOV     DPTR,#SampleApp_NwkState
   \   00000E   7401         MOV     A,#0x1
   \   000010   F0           MOVX    @DPTR,A
    159            SampleApp_TransID = 0;
   \   000011   90....       MOV     DPTR,#SampleApp_TransID
   \   000014   E4           CLR     A
   \   000015   F0           MOVX    @DPTR,A
    160            
    161            MT_UartInit();                  //串口初始化
   \   000016                ; Setup parameters for call to function MT_UartInit
   \   000016   12....       LCALL   ??MT_UartInit?relay
    162            MT_UartRegisterTaskID(task_id); //注册串口任务
   \   000019                ; Setup parameters for call to function MT_UartRegisterTaskID
   \   000019   EE           MOV     A,R6
   \   00001A   F9           MOV     R1,A
   \   00001B   12....       LCALL   ??MT_UartRegisterTaskID?relay
    163            
    164           #if defined ( BUILD_ALL_DEVICES )
    165            if ( readCoordinatorJumper() )
    166              zgDeviceLogicalType = ZG_DEVICETYPE_COORDINATOR;
    167            else
    168              zgDeviceLogicalType = ZG_DEVICETYPE_ROUTER;
    169          #endif // BUILD_ALL_DEVICES
    170          
    171          #if defined ( HOLD_AUTO_START )
    172            // HOLD_AUTO_START is a compile option that will surpress ZDApp
    173            //  from starting the device and wait for the application to
    174            //  start the device.
    175            ZDOInitDevice(0);
    176          #endif
    177          
    178            // Setup for the periodic message's destination address
    179            // Broadcast to everyone
    180            SampleApp_Periodic_DstAddr.addrMode = (afAddrMode_t)AddrBroadcast;//广播
   \   00001E   90....       MOV     DPTR,#SampleApp_Periodic_DstAddr + 8
   \   000021   740F         MOV     A,#0xf
   \   000023   F0           MOVX    @DPTR,A
    181            SampleApp_Periodic_DstAddr.endPoint = SAMPLEAPP_ENDPOINT;
   \   000024   A3           INC     DPTR
   \   000025   7414         MOV     A,#0x14
   \   000027   F0           MOVX    @DPTR,A
    182            SampleApp_Periodic_DstAddr.addr.shortAddr = 0xFFFF;
   \   000028   90....       MOV     DPTR,#SampleApp_Periodic_DstAddr
   \   00002B   74FF         MOV     A,#-0x1
   \   00002D   F0           MOVX    @DPTR,A
   \   00002E   A3           INC     DPTR
   \   00002F   F0           MOVX    @DPTR,A
    183          
    184            // Setup for the flash command's destination address - Group 1
    185            SampleApp_Flash_DstAddr.addrMode = (afAddrMode_t)afAddrGroup;//组播
   \   000030   90....       MOV     DPTR,#SampleApp_Flash_DstAddr + 8
   \   000033   7401         MOV     A,#0x1
   \   000035   F0           MOVX    @DPTR,A
    186            SampleApp_Flash_DstAddr.endPoint = SAMPLEAPP_ENDPOINT;
   \   000036   A3           INC     DPTR
   \   000037   7414         MOV     A,#0x14
   \   000039   F0           MOVX    @DPTR,A
    187            SampleApp_Flash_DstAddr.addr.shortAddr = SAMPLEAPP_FLASH_GROUP;
   \   00003A   90....       MOV     DPTR,#SampleApp_Flash_DstAddr
   \   00003D   12....       LCALL   ??Subroutine145_0 & 0xFFFF
    188            
    189            SampleApp_P2P_DstAddr.addrMode = (afAddrMode_t)Addr16Bit; //点播 
   \                     ??CrossCallReturnLabel_315:
   \   000040   90....       MOV     DPTR,#SampleApp_P2P_DstAddr + 8
   \   000043   7402         MOV     A,#0x2
   \   000045   F0           MOVX    @DPTR,A
    190            SampleApp_P2P_DstAddr.endPoint = SAMPLEAPP_ENDPOINT; 
   \   000046   A3           INC     DPTR
   \   000047   7414         MOV     A,#0x14
   \   000049   F0           MOVX    @DPTR,A
    191            SampleApp_P2P_DstAddr.addr.shortAddr = 0x0000;            //发给协调器
   \   00004A   90....       MOV     DPTR,#SampleApp_P2P_DstAddr
   \   00004D   E4           CLR     A
   \   00004E   F0           MOVX    @DPTR,A
   \   00004F   A3           INC     DPTR
   \   000050   F0           MOVX    @DPTR,A
    192          
    193            // Fill out the endpoint description.
    194            SampleApp_epDesc.endPoint = SAMPLEAPP_ENDPOINT;
   \   000051   90....       MOV     DPTR,#SampleApp_epDesc
   \   000054   7414         MOV     A,#0x14
   \   000056   F0           MOVX    @DPTR,A
    195            SampleApp_epDesc.task_id = &SampleApp_TaskID;
   \   000057   A3           INC     DPTR
   \   000058   74..         MOV     A,#SampleApp_TaskID & 0xff
   \   00005A   F0           MOVX    @DPTR,A
   \   00005B   A3           INC     DPTR
   \   00005C   74..         MOV     A,#(SampleApp_TaskID >> 8) & 0xff
   \   00005E   F0           MOVX    @DPTR,A
    196            SampleApp_epDesc.simpleDesc
    197                      = (SimpleDescriptionFormat_t *)&SampleApp_SimpleDesc;
   \   00005F   A3           INC     DPTR
   \   000060   74..         MOV     A,#SampleApp_SimpleDesc & 0xff
   \   000062   F0           MOVX    @DPTR,A
   \   000063   A3           INC     DPTR
   \   000064   74..         MOV     A,#(SampleApp_SimpleDesc >> 8) & 0xff
   \   000066   12....       LCALL   ??Subroutine146_0 & 0xFFFF
    198            SampleApp_epDesc.latencyReq = noLatencyReqs;
    199          
    200            // Register the endpoint description with the AF
    201            afRegister( &SampleApp_epDesc );
   \                     ??CrossCallReturnLabel_307:
   \   000069                ; Setup parameters for call to function afRegister
   \   000069   7A..         MOV     R2,#SampleApp_epDesc & 0xff
   \   00006B   7B..         MOV     R3,#(SampleApp_epDesc >> 8) & 0xff
   \   00006D   12....       LCALL   ??afRegister?relay
    202          
    203            // Register for all key events - This app will handle all key events
    204            RegisterForKeys( SampleApp_TaskID );
   \   000070                ; Setup parameters for call to function RegisterForKeys
   \   000070   90....       MOV     DPTR,#SampleApp_TaskID
   \   000073   E0           MOVX    A,@DPTR
   \   000074   F9           MOV     R1,A
   \   000075   12....       LCALL   ??RegisterForKeys?relay
    205          
    206            // By default, all devices start out in Group 1
    207            SampleApp_Group.ID = 0x0001;
   \   000078   90....       MOV     DPTR,#SampleApp_Group
   \   00007B   12....       LCALL   ??Subroutine145_0 & 0xFFFF
    208            osal_memcpy( SampleApp_Group.name, "Group 1", 7  );
   \                     ??CrossCallReturnLabel_316:
   \   00007E                ; Setup parameters for call to function osal_memcpy
   \   00007E   75....       MOV     ?V0 + 0,#`?<Constant "Group 1">` & 0xff
   \   000081   75....       MOV     ?V0 + 1,#(`?<Constant "Group 1">` >> 8) & 0xff
   \   000084   F5..         MOV     ?V0 + 2,A
   \   000086   78..         MOV     R0,#?V0 + 0
   \   000088   12....       LCALL   ?PUSH_XSTACK_I_THREE
   \   00008B   7C07         MOV     R4,#0x7
   \   00008D   7D00         MOV     R5,#0x0
   \   00008F   7A..         MOV     R2,#(SampleApp_Group + 2) & 0xff
   \   000091   7B..         MOV     R3,#((SampleApp_Group + 2) >> 8) & 0xff
   \   000093   12....       LCALL   ??osal_memcpy?relay
   \   000096   7403         MOV     A,#0x3
   \   000098   12....       LCALL   ?DEALLOC_XSTACK8
    209            aps_AddGroup( SAMPLEAPP_ENDPOINT, &SampleApp_Group );
   \   00009B                ; Setup parameters for call to function aps_AddGroup
   \   00009B   7A..         MOV     R2,#SampleApp_Group & 0xff
   \   00009D   7B..         MOV     R3,#(SampleApp_Group >> 8) & 0xff
   \   00009F   7914         MOV     R1,#0x14
   \   0000A1   12....       LCALL   ??aps_AddGroup?relay
    210          
    211          #if defined ( LCD_SUPPORTED )
    212            HalLcdWriteString( "SampleApp", HAL_LCD_LINE_1 );
   \   0000A4                ; Setup parameters for call to function HalLcdWriteString
   \   0000A4   7901         MOV     R1,#0x1
   \   0000A6   7A..         MOV     R2,#`?<Constant "SampleApp">` & 0xff
   \   0000A8   7B..         MOV     R3,#(`?<Constant "SampleApp">` >> 8) & 0xff
   \   0000AA   12....       LCALL   ??HalLcdWriteString?relay
    213          #endif
    214          }
   \   0000AD   7F03         MOV     R7,#0x3
   \   0000AF   02....       LJMP    ?BANKED_LEAVE_XDATA

   \                                 In  segment BANKED_CODE, align 1, keep-with-next
   \                     ??Subroutine145_0:
   \   000000   7401         MOV     A,#0x1
   \   000002                REQUIRE ??Subroutine146_0
   \   000002                ; // Fall through to label ??Subroutine146_0

   \                                 In  segment BANKED_CODE, align 1, keep-with-next
   \                     ??Subroutine146_0:
   \   000000   F0           MOVX    @DPTR,A
   \   000001   A3           INC     DPTR
   \   000002   E4           CLR     A
   \   000003   F0           MOVX    @DPTR,A
   \   000004   22           RET
    215          
    216          //事件总和

   \                                 In  segment BANKED_CODE, align 1, keep-with-next
    217          uint16 SampleApp_ProcessEvent( uint8 task_id, uint16 events )
   \                     SampleApp_ProcessEvent:
    218          {
   \   000000   74F4         MOV     A,#-0xc
   \   000002   12....       LCALL   ?BANKED_ENTER_XDATA
   \   000005                ; Saved register size: 12
   \   000005                ; Auto size: 0
   \   000005   EA           MOV     A,R2
   \   000006   FE           MOV     R6,A
   \   000007   EB           MOV     A,R3
   \   000008   FF           MOV     R7,A
    219            afIncomingMSGPacket_t *MSGpkt;
    220            (void)task_id;  // Intentionally unreferenced parameter
    221          
    222            if ( events & SYS_EVENT_MSG )
   \   000009   5480         ANL     A,#0x80
   \   00000B   6067         JZ      ??SampleApp_ProcessEvent_0
    223            {
    224              MSGpkt = (afIncomingMSGPacket_t *)osal_msg_receive( SampleApp_TaskID );
   \   00000D                ; Setup parameters for call to function osal_msg_receive
   \   00000D   8030         SJMP    ??SampleApp_ProcessEvent_1
    225              while ( MSGpkt )
    226              {
    227                switch ( MSGpkt->hdr.event )
    228                {
    229                  // Received when a key is pressed
    230                  case KEY_CHANGE:
    231                    break;
    232                    // Received when a messages is received (OTA) for this endpoint
    233                  case AF_INCOMING_MSG_CMD:
    234                    SampleApp_MessageMSGCB( MSGpkt );
    235                    break;
    236          
    237                  // Received whenever the device changes state in the network
    238                  case ZDO_STATE_CHANGE:
    239                    SampleApp_NwkState = (devStates_t)(MSGpkt->hdr.status);
   \                     ??SampleApp_ProcessEvent_2:
   \   00000F   A3           INC     DPTR
   \   000010   E0           MOVX    A,@DPTR
   \   000011   90....       MOV     DPTR,#SampleApp_NwkState
   \   000014   F0           MOVX    @DPTR,A
    240                    if ( SampleApp_NwkState == DEV_ZB_COORD )
   \   000015   6409         XRL     A,#0x9
   \   000017   7009         JNZ     ??CrossCallReturnLabel_178
    241                    {
    242                      // Start sending the periodic message in a regular interval.
    243                      osal_start_timerEx( SampleApp_TaskID,
    244                                        SAMPLEAPP_SEND_COOR_COUNT_MSG_EVT,
    245                                        SAMPLEAPP_SEND_COOR_PERIODIC_MSG_TIMEOUT );
   \   000019                ; Setup parameters for call to function osal_start_timerEx
   \   000019   7CE8         MOV     R4,#-0x18
   \   00001B   7D03         MOV     R5,#0x3
   \   00001D   7A10         MOV     R2,#0x10
   \   00001F   12....       LCALL   ?Subroutine93 & 0xFFFF
    246                    }
    247                    if( SampleApp_NwkState == DEV_END_DEVICE || SampleApp_NwkState == DEV_ROUTER )
   \                     ??CrossCallReturnLabel_178:
   \   000022   90....       MOV     DPTR,#SampleApp_NwkState
   \   000025   E0           MOVX    A,@DPTR
   \   000026   6406         XRL     A,#0x6
   \   000028   6005         JZ      ??SampleApp_ProcessEvent_3
   \   00002A   E0           MOVX    A,@DPTR
   \   00002B   6407         XRL     A,#0x7
   \   00002D   7009         JNZ     ??CrossCallReturnLabel_179
    248                    {
    249                       osal_start_timerEx( SampleApp_TaskID,
    250                                        SAMPLEAPP_DuplicateRemoveCount_MSG_EVT,
    251                                        SAMPLEAPP_SEND_COOR_PERIODIC_MSG_TIMEOUT );
   \                     ??SampleApp_ProcessEvent_3:
   \   00002F                ; Setup parameters for call to function osal_start_timerEx
   \   00002F   7CE8         MOV     R4,#-0x18
   \   000031   7D03         MOV     R5,#0x3
   \   000033   7A0C         MOV     R2,#0xc
   \   000035   12....       LCALL   ?Subroutine93 & 0xFFFF
    252                    }
    253                    break;
    254          
    255                  default:
    256                    break;
    257                }
    258          
    259                // Release the memory
    260                osal_msg_deallocate( (uint8 *)MSGpkt );
   \                     ??CrossCallReturnLabel_179:
   \   000038                ; Setup parameters for call to function osal_msg_deallocate
   \   000038   AA..         MOV     R2,?V0 + 0
   \   00003A   AB..         MOV     R3,?V0 + 1
   \   00003C   12....       LCALL   ??osal_msg_deallocate?relay
    261          
    262                // Next - if one is available
    263                MSGpkt = (afIncomingMSGPacket_t *)osal_msg_receive( SampleApp_TaskID );
   \   00003F                ; Setup parameters for call to function osal_msg_receive
   \                     ??SampleApp_ProcessEvent_1:
   \   00003F   90....       MOV     DPTR,#SampleApp_TaskID
   \   000042   E0           MOVX    A,@DPTR
   \   000043   F9           MOV     R1,A
   \   000044   12....       LCALL   ??osal_msg_receive?relay
   \   000047   8A..         MOV     ?V0 + 0,R2
   \   000049   8B..         MOV     ?V0 + 1,R3
   \   00004B   E5..         MOV     A,?V0 + 0
   \   00004D   45..         ORL     A,?V0 + 1
   \   00004F   601A         JZ      ??SampleApp_ProcessEvent_4
   \   000051   85..82       MOV     DPL,?V0 + 0
   \   000054   85..83       MOV     DPH,?V0 + 1
   \   000057   E0           MOVX    A,@DPTR
   \   000058   24E6         ADD     A,#-0x1a
   \   00005A   6006         JZ      ??SampleApp_ProcessEvent_5
   \   00005C   2449         ADD     A,#0x49
   \   00005E   60AF         JZ      ??SampleApp_ProcessEvent_2
   \   000060   80D6         SJMP    ??CrossCallReturnLabel_179
   \                     ??SampleApp_ProcessEvent_5:
   \   000062                ; Setup parameters for call to function SampleApp_MessageMSGCB
   \   000062   AA..         MOV     R2,?V0 + 0
   \   000064   AB..         MOV     R3,?V0 + 1
   \   000066   12....       LCALL   ??SampleApp_MessageMSGCB?relay
   \   000069   80CD         SJMP    ??CrossCallReturnLabel_179
    264              }
    265          
    266              // return unprocessed events
    267              return (events ^ SYS_EVENT_MSG);
   \                     ??SampleApp_ProcessEvent_4:
   \   00006B   EE           MOV     A,R6
   \   00006C   FA           MOV     R2,A
   \   00006D   EF           MOV     A,R7
   \   00006E   6480         XRL     A,#0x80
   \                     ??SampleApp_ProcessEvent_6:
   \   000070   FB           MOV     R3,A
   \   000071   02....       LJMP    ??SampleApp_ProcessEvent_7 & 0xFFFF
    268            }
    269            //计数事件
    270            if( events & SAMPLEAPP_SEND_COOR_COUNT_MSG_EVT )
   \                     ??SampleApp_ProcessEvent_0:
   \   000074   EE           MOV     A,R6
   \   000075   5410         ANL     A,#0x10
   \   000077   602D         JZ      ??SampleApp_ProcessEvent_8
    271            {
    272               if(flag<20)
   \   000079   90....       MOV     DPTR,#flag
   \   00007C   C3           CLR     C
   \   00007D   E0           MOVX    A,@DPTR
   \   00007E   9414         SUBB    A,#0x14
   \   000080   A3           INC     DPTR
   \   000081   E0           MOVX    A,@DPTR
   \   000082   9400         SUBB    A,#0x0
   \   000084   90....       MOV     DPTR,#flag
   \   000087   5009         JNC     ??SampleApp_ProcessEvent_9
    273               { 
    274                   flag++;
   \   000089   12....       LCALL   ?Subroutine31 & 0xFFFF
    275                   osal_start_timerEx( SampleApp_TaskID,
    276                              SAMPLEAPP_SEND_COOR_COUNT_MSG_EVT,
    277                              SAMPLEAPP_SEND_COOR_PERIODIC_MSG_TIMEOUT );
    278               }
   \                     ??CrossCallReturnLabel_56:
   \   00008C   7A10         MOV     R2,#0x10
   \   00008E   7B00         MOV     R3,#0x0
   \   000090   800B         SJMP    ??SampleApp_ProcessEvent_10
    279               else
    280               {
    281                  flag=0;
   \                     ??SampleApp_ProcessEvent_9:
   \   000092   E4           CLR     A
   \   000093   F0           MOVX    @DPTR,A
   \   000094   A3           INC     DPTR
   \   000095   F0           MOVX    @DPTR,A
    282                  osal_start_timerEx( SampleApp_TaskID,
    283                              SAMPLEAPP_SEND_COOR_PERIODIC_MSG_EVT,
    284                              SAMPLEAPP_SEND_COOR_PERIODIC_MSG_TIMEOUT );
   \   000096                ; Setup parameters for call to function osal_start_timerEx
   \   000096   7CE8         MOV     R4,#-0x18
   \   000098   7D03         MOV     R5,#0x3
   \   00009A   7A01         MOV     R2,#0x1
   \   00009C   FB           MOV     R3,A
    285               }
    286               return(events^SAMPLEAPP_SEND_COOR_COUNT_MSG_EVT);
    287            }
   \                     ??SampleApp_ProcessEvent_10:
   \   00009D   12....       LCALL   ?Subroutine60 & 0xFFFF
   \                     ??CrossCallReturnLabel_108:
   \   0000A0   6410         XRL     A,#0x10
   \                     ??SampleApp_ProcessEvent_11:
   \   0000A2   FA           MOV     R2,A
   \   0000A3   EF           MOV     A,R7
   \   0000A4   80CA         SJMP    ??SampleApp_ProcessEvent_6
    288            
    289            //协调器发送兴趣包事件
    290            if ( events & SAMPLEAPP_SEND_COOR_PERIODIC_MSG_EVT )
   \                     ??SampleApp_ProcessEvent_8:
   \   0000A6   EE           MOV     A,R6
   \   0000A7   A2E0         MOV     C,0xE0 /* A   */.0
   \   0000A9   5057         JNC     ??SampleApp_ProcessEvent_12
    291            {
    292              //countflag是每一批的数目
    293              if( countflag < 5 )
   \   0000AB   90....       MOV     DPTR,#countflag
   \   0000AE   C3           CLR     C
   \   0000AF   E0           MOVX    A,@DPTR
   \   0000B0   9405         SUBB    A,#0x5
   \   0000B2   A3           INC     DPTR
   \   0000B3   E0           MOVX    A,@DPTR
   \   0000B4   9400         SUBB    A,#0x0
   \   0000B6   90....       MOV     DPTR,#countflag
   \   0000B9   E0           MOVX    A,@DPTR
   \   0000BA   5005         JNC     ??SampleApp_ProcessEvent_13
    294              {
    295                countflag++;
   \   0000BC   12....       LCALL   ??Subroutine137_0 & 0xFFFF
    296              }
   \                     ??CrossCallReturnLabel_247:
   \   0000BF   8027         SJMP    ??SampleApp_ProcessEvent_14
    297              else if( countflag == 5 )
   \                     ??SampleApp_ProcessEvent_13:
   \   0000C1   6405         XRL     A,#0x5
   \   0000C3   7002         JNZ     ??SampleApp_ProcessEvent_15
   \   0000C5   A3           INC     DPTR
   \   0000C6   E0           MOVX    A,@DPTR
   \                     ??SampleApp_ProcessEvent_15:
   \   0000C7   7020         JNZ     ??SampleApp_ProcessEvent_16
    298              {
    299                 if( packagecount<=60000 )
   \   0000C9   90....       MOV     DPTR,#packagecount
   \   0000CC   C3           CLR     C
   \   0000CD   E0           MOVX    A,@DPTR
   \   0000CE   9461         SUBB    A,#0x61
   \   0000D0   A3           INC     DPTR
   \   0000D1   E0           MOVX    A,@DPTR
   \   0000D2   94EA         SUBB    A,#-0x16
   \   0000D4   90....       MOV     DPTR,#packagecount
   \   0000D7   5005         JNC     ??SampleApp_ProcessEvent_17
    300                 {
    301                    packagecount++;
   \   0000D9   12....       LCALL   ??Subroutine136_0 & 0xFFFF
    302                 }
   \                     ??CrossCallReturnLabel_248:
   \   0000DC   8003         SJMP    ??SampleApp_ProcessEvent_18
    303                 else
    304                 {
    305                    packagecount = 0;
   \                     ??SampleApp_ProcessEvent_17:
   \   0000DE   E4           CLR     A
   \   0000DF   F0           MOVX    @DPTR,A
   \   0000E0   A3           INC     DPTR
   \                     ??SampleApp_ProcessEvent_18:
   \   0000E1   F0           MOVX    @DPTR,A
    306                 }
    307                 countflag=0;
   \   0000E2   90....       MOV     DPTR,#countflag
   \   0000E5   E4           CLR     A
   \   0000E6   F0           MOVX    @DPTR,A
   \   0000E7   A3           INC     DPTR
   \                     ??SampleApp_ProcessEvent_14:
   \   0000E8   F0           MOVX    @DPTR,A
    308              }
    309                
    310              SampleApp_COOR_Send_Message();
   \                     ??SampleApp_ProcessEvent_16:
   \   0000E9                ; Setup parameters for call to function SampleApp_COOR_Send_Message
   \   0000E9   12....       LCALL   ??SampleApp_COOR_Send_Message?relay
    311          
    312              osal_start_timerEx( SampleApp_TaskID, SAMPLEAPP_SEND_COOR_COUNT_MSG_EVT,
    313                  (SAMPLEAPP_SEND_COOR_PERIODIC_MSG_TIMEOUT + (osal_rand() & 0x00FF)) );
   \   0000EC                ; Setup parameters for call to function osal_rand
   \   0000EC   12....       LCALL   ??osal_rand?relay
   \   0000EF                ; Setup parameters for call to function osal_start_timerEx
   \   0000EF   EA           MOV     A,R2
   \   0000F0   24E8         ADD     A,#-0x18
   \   0000F2   FC           MOV     R4,A
   \   0000F3   E4           CLR     A
   \   0000F4   3403         ADDC    A,#0x3
   \   0000F6   FD           MOV     R5,A
   \   0000F7   7A10         MOV     R2,#0x10
   \   0000F9   7B00         MOV     R3,#0x0
   \   0000FB   12....       LCALL   ?Subroutine60 & 0xFFFF
    314          
    315              return (events ^ SAMPLEAPP_SEND_COOR_PERIODIC_MSG_EVT);
    316            }
   \                     ??CrossCallReturnLabel_109:
   \   0000FE   6401         XRL     A,#0x1
   \   000100   80A0         SJMP    ??SampleApp_ProcessEvent_11
    317            //节点三大表去重事件
    318            if( events & SAMPLEAPP_DuplicateRemoveCount_MSG_EVT)
   \                     ??SampleApp_ProcessEvent_12:
   \   000102   540C         ANL     A,#0xc
   \   000104   602C         JZ      ??SampleApp_ProcessEvent_19
    319            {
    320               if(removeflag<60)
   \   000106   90....       MOV     DPTR,#removeflag
   \   000109   C3           CLR     C
   \   00010A   E0           MOVX    A,@DPTR
   \   00010B   943C         SUBB    A,#0x3c
   \   00010D   A3           INC     DPTR
   \   00010E   E0           MOVX    A,@DPTR
   \   00010F   9400         SUBB    A,#0x0
   \   000111   90....       MOV     DPTR,#removeflag
   \   000114   5009         JNC     ??SampleApp_ProcessEvent_20
    321               {
    322                  removeflag++;
   \   000116   12....       LCALL   ?Subroutine31 & 0xFFFF
    323                  osal_start_timerEx( SampleApp_TaskID,
    324                                        SAMPLEAPP_DuplicateRemoveCount_MSG_EVT,
    325                                        SAMPLEAPP_SEND_COOR_PERIODIC_MSG_TIMEOUT );
    326               }
   \                     ??CrossCallReturnLabel_57:
   \   000119   7A0C         MOV     R2,#0xc
   \   00011B   7B00         MOV     R3,#0x0
   \   00011D   800B         SJMP    ??SampleApp_ProcessEvent_21
    327               else
    328               {
    329                 removeflag=0;
   \                     ??SampleApp_ProcessEvent_20:
   \   00011F   E4           CLR     A
   \   000120   F0           MOVX    @DPTR,A
   \   000121   A3           INC     DPTR
   \   000122   F0           MOVX    @DPTR,A
    330                 osal_start_timerEx( SampleApp_TaskID,
    331                                        SAMPLEAPP_DuplicateRemove_MSG_EVT,
    332                                        SAMPLEAPP_SEND_COOR_PERIODIC_MSG_TIMEOUT );
   \   000123                ; Setup parameters for call to function osal_start_timerEx
   \   000123   7CE8         MOV     R4,#-0x18
   \   000125   7D03         MOV     R5,#0x3
   \   000127   7A0C         MOV     R2,#0xc
   \   000129   FB           MOV     R3,A
    333               }
    334               return( events ^ SAMPLEAPP_DuplicateRemoveCount_MSG_EVT );  
    335            }
   \                     ??SampleApp_ProcessEvent_21:
   \   00012A   12....       LCALL   ?Subroutine60 & 0xFFFF
   \                     ??CrossCallReturnLabel_110:
   \   00012D   640C         XRL     A,#0xc
   \   00012F   02....       LJMP    ??SampleApp_ProcessEvent_11 & 0xFFFF
    336            if( events & SAMPLEAPP_DuplicateRemove_MSG_EVT )
    337            {
    338               DeleteItemCS();
    339               DeleteItemPIT();
    340               DeleteItemFIB();    
    341               osal_start_timerEx( SampleApp_TaskID,
    342                                        SAMPLEAPP_DuplicateRemoveCount_MSG_EVT,
    343                                        SAMPLEAPP_SEND_COOR_PERIODIC_MSG_TIMEOUT );
    344               return( events ^ SAMPLEAPP_DuplicateRemove_MSG_EVT );
    345            }
    346          
    347            // Discard unknown events
    348            return 0;
   \                     ??SampleApp_ProcessEvent_19:
   \   000132   7A00         MOV     R2,#0x0
   \   000134   7B00         MOV     R3,#0x0
   \                     ??SampleApp_ProcessEvent_7:
   \   000136   7F04         MOV     R7,#0x4
   \   000138   02....       LJMP    ?BANKED_LEAVE_XDATA
    349          }

   \                                 In  segment BANKED_CODE, align 1, keep-with-next
   \                     ?Subroutine93:
   \   000000   7B00         MOV     R3,#0x0
   \   000002                REQUIRE ??Subroutine116_0
   \   000002                ; // Fall through to label ??Subroutine116_0

   \                                 In  segment BANKED_CODE, align 1, keep-with-next
   \                     ??Subroutine116_0:
   \   000000   90....       MOV     DPTR,#SampleApp_TaskID
   \   000003   E0           MOVX    A,@DPTR
   \   000004   F9           MOV     R1,A
   \   000005   12....       LCALL   ??osal_start_timerEx?relay
   \   000008   22           RET

   \                                 In  segment BANKED_CODE, align 1, keep-with-next
   \                     ?Subroutine60:
   \   000000   12....       LCALL   ??Subroutine116_0 & 0xFFFF
   \                     ??CrossCallReturnLabel_180:
   \   000003   EE           MOV     A,R6
   \   000004   22           RET

   \                                 In  segment BANKED_CODE, align 1, keep-with-next
   \                     ?Subroutine31:
   \   000000   12....       LCALL   ?Subroutine78 & 0xFFFF
   \                     ??CrossCallReturnLabel_275:
   \   000003                ; Setup parameters for call to function osal_start_timerEx
   \   000003                ; Setup parameters for call to function osal_start_timerEx
   \   000003   7CE8         MOV     R4,#-0x18
   \   000005   7D03         MOV     R5,#0x3
   \   000007   22           RET

   \                                 In  segment BANKED_CODE, align 1, keep-with-next
   \                     ??Subroutine136_0:
   \   000000   E0           MOVX    A,@DPTR
   \   000001                REQUIRE ??Subroutine137_0
   \   000001                ; // Fall through to label ??Subroutine137_0

   \                                 In  segment BANKED_CODE, align 1, keep-with-next
   \                     ??Subroutine137_0:
   \   000000   2401         ADD     A,#0x1
   \   000002   F0           MOVX    @DPTR,A
   \   000003   A3           INC     DPTR
   \   000004   E0           MOVX    A,@DPTR
   \   000005   3400         ADDC    A,#0x0
   \   000007   22           RET

   \                                 In  segment BANKED_CODE, align 1, keep-with-next
   \                     ?Subroutine78:
   \   000000   12....       LCALL   ?Subroutine112 & 0xFFFF
   \                     ??CrossCallReturnLabel_281:
   \   000003   F0           MOVX    @DPTR,A
   \   000004   22           RET

   \                                 In  segment BANKED_CODE, align 1, keep-with-next
   \                     ?Subroutine112:
   \   000000   E0           MOVX    A,@DPTR
   \   000001   2401         ADD     A,#0x1
   \   000003   F0           MOVX    @DPTR,A
   \   000004   A3           INC     DPTR
   \   000005   E0           MOVX    A,@DPTR
   \   000006   3400         ADDC    A,#0x0
   \   000008   22           RET
    350          
    351          //消息处理函数

   \                                 In  segment BANKED_CODE, align 1, keep-with-next
    352          void SampleApp_MessageMSGCB( afIncomingMSGPacket_t *pkt )
   \                     SampleApp_MessageMSGCB:
    353          {
   \   000000   74F6         MOV     A,#-0xa
   \   000002   12....       LCALL   ?BANKED_ENTER_XDATA
   \   000005                ; Saved register size: 10
   \   000005                ; Auto size: 0
    354            switch ( pkt->clusterId )
   \   000005   8A82         MOV     DPL,R2
   \   000007   8B83         MOV     DPH,R3
   \   000009   A3           INC     DPTR
   \   00000A   A3           INC     DPTR
   \   00000B   A3           INC     DPTR
   \   00000C   A3           INC     DPTR
   \   00000D   12....       LCALL   ?Subroutine89 & 0xFFFF
   \                     ??CrossCallReturnLabel_152:
   \   000010   78..         MOV     R0,#?V0 + 0
   \   000012   12....       LCALL   ?US_SWITCH_DENSE
   \                     `?<Jumptable for SampleApp_MessageMSGCB>_0`:
   \   000015   0900         DW        9
   \   000017   02           DB        2
   \   000018   ....         DW        ??SampleApp_MessageMSGCB_0
   \   00001A   ....         DW        ??SampleApp_MessageMSGCB_1
   \   00001C   ....         DW        ??SampleApp_MessageMSGCB_2
   \   00001E   ....         DW        ??SampleApp_MessageMSGCB_3
    355            {
    356              case SAMPLEAPP_P2P_CLUSTERID:
    357                break;    
    358              case SAMPLEAPP_PERIODIC_CLUSTERID:
    359                break;
    360              case SAMPLEAPP_FLASH_CLUSTERID:
    361                break;
    362              case SAMPLEAPP_INTEREST_CLUSTERID:
    363                SampleApp_Interest_Process(pkt);
   \                     ??SampleApp_MessageMSGCB_1:
   \   000020                ; Setup parameters for call to function SampleApp_Interest_Process
   \   000020   12....       LCALL   ??SampleApp_Interest_Process?relay
    364                break;
   \   000023   803C         SJMP    ??SampleApp_MessageMSGCB_0
    365              case SAMPLEAPP_ACK_CLUSTERID:
    366                SampleApp_Ack_Process(pkt);
   \                     ??SampleApp_MessageMSGCB_2:
   \   000025                ; Setup parameters for call to function SampleApp_Ack_Process
   \   000025   12....       LCALL   ??SampleApp_Ack_Process?relay
    367                break;
   \   000028   8037         SJMP    ??SampleApp_MessageMSGCB_0
    368              case SAMPLEAPP_DATA_CLUSTERID:
    369                if( BUILD_UINT16(pkt->cmd.Data[14],pkt->cmd.Data[15]) == 0 )
   \                     ??SampleApp_MessageMSGCB_3:
   \   00002A   EA           MOV     A,R2
   \   00002B   2421         ADD     A,#0x21
   \   00002D   F582         MOV     DPL,A
   \   00002F   EB           MOV     A,R3
   \   000030   12....       LCALL   ??Subroutine129_0 & 0xFFFF
   \                     ??CrossCallReturnLabel_216:
   \   000033   12....       LCALL   ?Subroutine47 & 0xFFFF
   \                     ??CrossCallReturnLabel_87:
   \   000036   240E         ADD     A,#0xe
   \   000038   12....       LCALL   ??Subroutine119_0 & 0xFFFF
   \                     ??CrossCallReturnLabel_182:
   \   00003B   FE           MOV     R6,A
   \   00003C   E8           MOV     A,R0
   \   00003D   240F         ADD     A,#0xf
   \   00003F   12....       LCALL   ??Subroutine119_0 & 0xFFFF
   \                     ??CrossCallReturnLabel_183:
   \   000042   FD           MOV     R5,A
   \   000043   EE           MOV     A,R6
   \   000044   4D           ORL     A,R5
   \   000045   7017         JNZ     ??SampleApp_MessageMSGCB_4
    370                {
    371                  HalUARTWrite(0, pkt->cmd.Data, pkt->cmd.DataLength);
   \   000047                ; Setup parameters for call to function HalUARTWrite
   \   000047   EA           MOV     A,R2
   \   000048   241F         ADD     A,#0x1f
   \   00004A   F582         MOV     DPL,A
   \   00004C   EB           MOV     A,R3
   \   00004D   12....       LCALL   ??Subroutine129_0 & 0xFFFF
    372                }
   \                     ??CrossCallReturnLabel_217:
   \   000050   12....       LCALL   ??Subroutine159_0 & 0xFFFF
   \                     ??CrossCallReturnLabel_391:
   \   000053   E8           MOV     A,R0
   \   000054   FA           MOV     R2,A
   \   000055   E9           MOV     A,R1
   \   000056   FB           MOV     R3,A
   \   000057   7900         MOV     R1,#0x0
   \   000059   12....       LCALL   ??HalUARTWrite?relay
   \   00005C   8003         SJMP    ??SampleApp_MessageMSGCB_0
    373                else
    374                {
    375                  SampleApp_Data_Process(pkt);
   \                     ??SampleApp_MessageMSGCB_4:
   \   00005E                ; Setup parameters for call to function SampleApp_Data_Process
   \   00005E   12....       LCALL   ??SampleApp_Data_Process?relay
    376                }
    377                 break;
    378            }
    379          }
   \                     ??SampleApp_MessageMSGCB_0:
   \   000061   80..         SJMP    ??Subroutine118_0

   \                                 In  segment BANKED_CODE, align 1, keep-with-next
   \                     ??Subroutine118_0:
   \   000000   7F02         MOV     R7,#0x2
   \   000002   02....       LJMP    ?BANKED_LEAVE_XDATA

   \                                 In  segment BANKED_CODE, align 1, keep-with-next
   \                     ??Subroutine119_0:
   \   000000   F582         MOV     DPL,A
   \   000002   E9           MOV     A,R1
   \   000003                REQUIRE ??Subroutine120_0
   \   000003                ; // Fall through to label ??Subroutine120_0

   \                                 In  segment BANKED_CODE, align 1, keep-with-next
   \                     ??Subroutine120_0:
   \   000000   12....       LCALL   ??Subroutine158_0 & 0xFFFF
   \                     ??CrossCallReturnLabel_380:
   \   000003   E0           MOVX    A,@DPTR
   \   000004   22           RET

   \                                 In  segment BANKED_CODE, align 1, keep-with-next
   \                     ?Subroutine89:
   \   000000   E0           MOVX    A,@DPTR
   \   000001   F5..         MOV     ?V0 + 0,A
   \   000003   A3           INC     DPTR
   \   000004   E0           MOVX    A,@DPTR
   \   000005   F5..         MOV     ?V0 + 1,A
   \   000007   22           RET

   \                                 In  segment BANKED_CODE, align 1, keep-with-next
   \                     ??Subroutine129_0:
   \   000000   12....       LCALL   ??Subroutine158_0 & 0xFFFF
   \                     ??CrossCallReturnLabel_381:
   \   000003   22           RET

   \                                 In  segment BANKED_CODE, align 1, keep-with-next
   \                     ?Subroutine47:
   \   000000   12....       LCALL   ?Subroutine88 & 0xFFFF
   \                     ??CrossCallReturnLabel_302:
   \   000003   22           RET

   \                                 In  segment BANKED_CODE, align 1, keep-with-next
   \                     ?Subroutine88:
   \   000000   12....       LCALL   ??Subroutine141_0 & 0xFFFF
   \                     ??CrossCallReturnLabel_306:
   \   000003   22           RET

   \                                 In  segment BANKED_CODE, align 1, keep-with-next
   \                     ??Subroutine141_0:
   \   000000   E0           MOVX    A,@DPTR
   \   000001   F8           MOV     R0,A
   \   000002   A3           INC     DPTR
   \   000003   E0           MOVX    A,@DPTR
   \   000004   F9           MOV     R1,A
   \   000005   E8           MOV     A,R0
   \   000006   22           RET

   \                                 In  segment BANKED_CODE, align 1, keep-with-next
   \                     ??Subroutine149_0:
   \   000000   3400         ADDC    A,#0x0
   \   000002   F583         MOV     DPH,A
   \   000004   22           RET

   \                                 In  segment BANKED_CODE, align 1, keep-with-next
   \                     ??Subroutine158_0:
   \   000000   12....       LCALL   ??Subroutine149_0 & 0xFFFF
   \                     ??CrossCallReturnLabel_390:
   \   000003   22           RET

   \                                 In  segment BANKED_CODE, align 1, keep-with-next
   \                     ??Subroutine159_0:
   \   000000   E0           MOVX    A,@DPTR
   \   000001   FC           MOV     R4,A
   \   000002   A3           INC     DPTR
   \   000003   E0           MOVX    A,@DPTR
   \   000004   FD           MOV     R5,A
   \   000005   22           RET
    380          
    381          //协调器下发兴趣包

   \                                 In  segment BANKED_CODE, align 1, keep-with-next
   \                     ??Subroutine117_0:
   \   000000   78..         MOV     R0,#?V0 + 0
   \   000002   12....       LCALL   ?PUSH_XSTACK_I_TWO
   \   000005   7920         MOV     R1,#0x20
   \   000007   7C..         MOV     R4,#SampleApp_epDesc & 0xff
   \   000009   7D..         MOV     R5,#(SampleApp_epDesc >> 8) & 0xff
   \   00000B   7A..         MOV     R2,#SampleApp_Periodic_DstAddr & 0xff
   \   00000D   7B..         MOV     R3,#(SampleApp_Periodic_DstAddr >> 8) & 0xff
   \   00000F   12....       LCALL   ??AF_DataRequest?relay
   \   000012   7409         MOV     A,#0x9
   \   000014   12....       LCALL   ?DEALLOC_XSTACK8
   \   000017   7414         MOV     A,#0x14
   \   000019   12....       LCALL   ?DEALLOC_XSTACK8
   \   00001C                REQUIRE ??Subroutine118_0
   \   00001C                ; // Fall through to label ??Subroutine118_0

   \                                 In  segment BANKED_CODE, align 1, keep-with-next
    382          void SampleApp_COOR_Send_Message(void)
   \                     SampleApp_COOR_Send_Message:
    383          {
   \   000000   74F6         MOV     A,#-0xa
   \   000002   12....       LCALL   ?BANKED_ENTER_XDATA
   \   000005                ; Saved register size: 10
   \   000005                ; Auto size: 20
   \   000005   74EC         MOV     A,#-0x14
   \   000007   12....       LCALL   ?ALLOC_XSTACK8
    384            uint8 interestData[20];
    385            interestData[0] = 0x7E;
   \   00000A   85..82       MOV     DPL,?XSP + 0
   \   00000D   85..83       MOV     DPH,?XSP + 1
   \   000010   747E         MOV     A,#0x7e
   \   000012   F0           MOVX    @DPTR,A
    386            interestData[1] = 0x45;
   \   000013   7401         MOV     A,#0x1
   \   000015   12....       LCALL   ?XSTACK_DISP0_8
   \   000018   7445         MOV     A,#0x45
   \   00001A   F0           MOVX    @DPTR,A
    387            interestData[2] = 1;//packageflag,interest为1，data为2，其他为3
   \   00001B   7402         MOV     A,#0x2
   \   00001D   12....       LCALL   ?XSTACK_DISP0_8
   \   000020   7401         MOV     A,#0x1
   \   000022   12....       LCALL   ?Subroutine39 & 0xFFFF
    388            uint16 Desid = rand()%6+1; 
   \                     ??CrossCallReturnLabel_72:
   \   000025   7A06         MOV     R2,#0x6
   \   000027   7B00         MOV     R3,#0x0
   \   000029   12....       LCALL   ?S_DIV_MOD
   \   00002C   EA           MOV     A,R2
   \   00002D   2401         ADD     A,#0x1
   \   00002F   F8           MOV     R0,A
   \   000030   EB           MOV     A,R3
   \   000031   3400         ADDC    A,#0x0
    389            interestData[3] = HI_UINT16(Desid);//interestName,DestinationID
   \   000033   C0E0         PUSH    A
   \   000035   7403         MOV     A,#0x3
   \   000037   12....       LCALL   ?XSTACK_DISP0_8
   \   00003A   D0E0         POP     A
   \   00003C   F0           MOVX    @DPTR,A
    390            interestData[4] = LO_UINT16(Desid);//interestName,DestinationID
   \   00003D   7404         MOV     A,#0x4
   \   00003F   12....       LCALL   ?XSTACK_DISP0_8
   \   000042   E8           MOV     A,R0
   \   000043   F0           MOVX    @DPTR,A
    391            interestData[5] = 4;//interestName,DataFlag，温度=1，湿度=2，光照=3，电压=4
   \   000044   7405         MOV     A,#0x5
   \   000046   12....       LCALL   ?XSTACK_DISP0_8
   \   000049   7404         MOV     A,#0x4
   \   00004B   F0           MOVX    @DPTR,A
    392            interestData[6] = HI_UINT16(packagecount);//interestName,PackageCounter,包的批次号
   \   00004C   90....       MOV     DPTR,#packagecount + 1
   \   00004F   E0           MOVX    A,@DPTR
   \   000050   C0E0         PUSH    A
   \   000052   7406         MOV     A,#0x6
   \   000054   12....       LCALL   ?XSTACK_DISP0_8
   \   000057   D0E0         POP     A
   \   000059   F0           MOVX    @DPTR,A
    393            interestData[7] = LO_UINT16(packagecount);
   \   00005A   90....       MOV     DPTR,#packagecount
   \   00005D   E0           MOVX    A,@DPTR
   \   00005E   C0E0         PUSH    A
   \   000060   7407         MOV     A,#0x7
   \   000062   12....       LCALL   ?XSTACK_DISP0_8
   \   000065   D0E0         POP     A
   \   000067   12....       LCALL   ?Subroutine15 & 0xFFFF
    394            interestData[8] = HI_UINT16(NodeId);//lastID;
   \                     ??CrossCallReturnLabel_21:
   \   00006A   12....       LCALL   ?SS_SHR
   \   00006D   7408         MOV     A,#0x8
   \   00006F   12....       LCALL   ?XSTACK_DISP0_8
   \   000072   12....       LCALL   ?Subroutine37 & 0xFFFF
    395            interestData[9] = LO_UINT16(NodeId);
   \                     ??CrossCallReturnLabel_64:
   \   000075   C0E0         PUSH    A
   \   000077   7409         MOV     A,#0x9
   \   000079   12....       LCALL   ?XSTACK_DISP0_8
   \   00007C   D0E0         POP     A
   \   00007E   12....       LCALL   ?Subroutine39 & 0xFFFF
    396            interestData[10] = rand()%20;//Noce,随机值
   \                     ??CrossCallReturnLabel_73:
   \   000081   7A14         MOV     R2,#0x14
   \   000083   7B00         MOV     R3,#0x0
   \   000085   12....       LCALL   ?S_DIV_MOD
   \   000088   740A         MOV     A,#0xa
   \   00008A   12....       LCALL   ?XSTACK_DISP0_8
   \   00008D   EA           MOV     A,R2
   \   00008E   F0           MOVX    @DPTR,A
    397            interestData[11] = 0;//保留位
   \   00008F   740B         MOV     A,#0xb
   \   000091   12....       LCALL   ?XSTACK_DISP0_8
   \   000094   E4           CLR     A
   \   000095   F0           MOVX    @DPTR,A
    398            interestData[12] = layer;//层数 
   \   000096   90....       MOV     DPTR,#layer
   \   000099   E0           MOVX    A,@DPTR
   \   00009A   C0E0         PUSH    A
   \   00009C   740C         MOV     A,#0xc
   \   00009E   12....       LCALL   ?XSTACK_DISP0_8
   \   0000A1   D0E0         POP     A
   \   0000A3   F0           MOVX    @DPTR,A
    399            interestData[13] = 0;
   \   0000A4   740D         MOV     A,#0xd
   \   0000A6   12....       LCALL   ?XSTACK_DISP0_8
   \   0000A9   E4           CLR     A
   \   0000AA   F0           MOVX    @DPTR,A
    400            interestData[14] = 0;
   \   0000AB   740E         MOV     A,#0xe
   \   0000AD   12....       LCALL   ?XSTACK_DISP0_8
   \   0000B0   E4           CLR     A
   \   0000B1   F0           MOVX    @DPTR,A
    401            interestData[15] = 0;
   \   0000B2   740F         MOV     A,#0xf
   \   0000B4   12....       LCALL   ?XSTACK_DISP0_8
   \   0000B7   E4           CLR     A
   \   0000B8   F0           MOVX    @DPTR,A
    402            interestData[16] = 0;
   \   0000B9   7410         MOV     A,#0x10
   \   0000BB   12....       LCALL   ?XSTACK_DISP0_8
   \   0000BE   E4           CLR     A
   \   0000BF   F0           MOVX    @DPTR,A
    403            interestData[17] = 0;
   \   0000C0   7411         MOV     A,#0x11
   \   0000C2   12....       LCALL   ?XSTACK_DISP0_8
   \   0000C5   E4           CLR     A
   \   0000C6   F0           MOVX    @DPTR,A
    404            interestData[18] = 0;
   \   0000C7   7412         MOV     A,#0x12
   \   0000C9   12....       LCALL   ?XSTACK_DISP0_8
   \   0000CC   E4           CLR     A
   \   0000CD   F0           MOVX    @DPTR,A
    405            interestData[19] = 0x7E;
   \   0000CE   7413         MOV     A,#0x13
   \   0000D0   12....       LCALL   ?XSTACK_DISP0_8
   \   0000D3   747E         MOV     A,#0x7e
   \   0000D5   F0           MOVX    @DPTR,A
    406            
    407            HalUARTWrite(0, interestData, 20);
   \   0000D6                ; Setup parameters for call to function HalUARTWrite
   \   0000D6   7C14         MOV     R4,#0x14
   \   0000D8   7D00         MOV     R5,#0x0
   \   0000DA   85..82       MOV     DPL,?XSP + 0
   \   0000DD   85..83       MOV     DPH,?XSP + 1
   \   0000E0   AA82         MOV     R2,DPL
   \   0000E2   AB83         MOV     R3,DPH
   \   0000E4   7900         MOV     R1,#0x0
   \   0000E6   12....       LCALL   ??HalUARTWrite?relay
    408            
    409            if ( AF_DataRequest( &SampleApp_Periodic_DstAddr, &SampleApp_epDesc,
    410                                 SAMPLEAPP_INTEREST_CLUSTERID,
    411                                 20,
    412                                 interestData,
    413                                 &SampleApp_TransID,
    414                                 AF_DISCV_ROUTE,
    415                                 AF_DEFAULT_RADIUS ) == afStatus_SUCCESS )
   \   0000E9                ; Setup parameters for call to function AF_DataRequest
   \   0000E9                REQUIRE ?Subroutine4
   \   0000E9                ; // Fall through to label ?Subroutine4
    416            {
    417            }
    418            else
    419            { }
    420          }

   \                                 In  segment BANKED_CODE, align 1, keep-with-next
   \                     ?Subroutine4:
   \   000000   75..1E       MOV     ?V0 + 0,#0x1e
   \   000003   78..         MOV     R0,#?V0 + 0
   \   000005   12....       LCALL   ?PUSH_XSTACK_I_ONE
   \   000008   75....       MOV     ?V0 + 0,#SampleApp_TransID & 0xff
   \   00000B   75....       MOV     ?V0 + 1,#(SampleApp_TransID >> 8) & 0xff
   \   00000E   78..         MOV     R0,#?V0 + 0
   \   000010   12....       LCALL   ?PUSH_XSTACK_I_TWO
   \   000013   7403         MOV     A,#0x3
   \   000015   12....       LCALL   ?XSTACK_DISP0_8
   \   000018   8582..       MOV     ?V0 + 0,DPL
   \   00001B   8583..       MOV     ?V0 + 1,DPH
   \   00001E   78..         MOV     R0,#?V0 + 0
   \   000020   12....       LCALL   ?PUSH_XSTACK_I_TWO
   \   000023   75..14       MOV     ?V0 + 0,#0x14
   \   000026   75..00       MOV     ?V0 + 1,#0x0
   \   000029   78..         MOV     R0,#?V0 + 0
   \   00002B   12....       LCALL   ?PUSH_XSTACK_I_TWO
   \   00002E   75..09       MOV     ?V0 + 0,#0x9
   \   000031   02....       LJMP    ??Subroutine117_0 & 0xFFFF

   \                                 In  segment BANKED_CODE, align 1, keep-with-next
   \                     ?Subroutine39:
   \   000000   F0           MOVX    @DPTR,A
   \   000001                ; Setup parameters for call to function rand
   \   000001                ; Setup parameters for call to function rand
   \   000001   12....       LCALL   ??rand?relay
   \   000004   EA           MOV     A,R2
   \   000005   F8           MOV     R0,A
   \   000006   EB           MOV     A,R3
   \   000007   F9           MOV     R1,A
   \   000008   22           RET

   \                                 In  segment BANKED_CODE, align 1, keep-with-next
   \                     ?Subroutine37:
   \   000000   E5..         MOV     A,?V0 + 0
   \   000002   F0           MOVX    @DPTR,A
   \   000003   90....       MOV     DPTR,#NodeId
   \   000006   E0           MOVX    A,@DPTR
   \   000007   22           RET

   \                                 In  segment BANKED_CODE, align 1, keep-with-next
   \                     ?Subroutine15:
   \   000000   F0           MOVX    @DPTR,A
   \   000001   90....       MOV     DPTR,#NodeId
   \   000004   12....       LCALL   ?Subroutine89 & 0xFFFF
   \                     ??CrossCallReturnLabel_154:
   \   000007   7408         MOV     A,#0x8
   \   000009   78..         MOV     R0,#?V0 + 0
   \   00000B   22           RET
    421          

   \                                 In  segment BANKED_CODE, align 1, keep-with-next
    422          void SampleApp_Interest_Process(afIncomingMSGPacket_t *pkt)
   \                     SampleApp_Interest_Process:
    423          {
   \   000000   74F6         MOV     A,#-0xa
   \   000002   12....       LCALL   ?BANKED_ENTER_XDATA
   \   000005                ; Saved register size: 10
   \   000005                ; Auto size: 0
    424              if( pkt->cmd.Data[2]==1 && ( pkt->cmd.Data[12] == layer-1) )//兴趣包，并且是上一层下发的兴趣包
   \   000005   EA           MOV     A,R2
   \   000006   2421         ADD     A,#0x21
   \   000008   F582         MOV     DPL,A
   \   00000A   EB           MOV     A,R3
   \   00000B   12....       LCALL   ??Subroutine129_0 & 0xFFFF
   \                     ??CrossCallReturnLabel_218:
   \   00000E   12....       LCALL   ??Subroutine157_0 & 0xFFFF
   \                     ??CrossCallReturnLabel_360:
   \   000011   8882         MOV     DPL,R0
   \   000013   8983         MOV     DPH,R1
   \   000015   A3           INC     DPTR
   \   000016   A3           INC     DPTR
   \   000017   E0           MOVX    A,@DPTR
   \   000018   6401         XRL     A,#0x1
   \   00001A   6003         JZ      $+5
   \   00001C   02....       LJMP    ??SampleApp_Interest_Process_0 & 0xFFFF
   \   00001F   E8           MOV     A,R0
   \   000020   12....       LCALL   ?Subroutine67 & 0xFFFF
   \                     ??CrossCallReturnLabel_185:
   \   000023   FC           MOV     R4,A
   \   000024   90....       MOV     DPTR,#layer
   \   000027   E0           MOVX    A,@DPTR
   \   000028   24FF         ADD     A,#-0x1
   \   00002A   FA           MOV     R2,A
   \   00002B   A3           INC     DPTR
   \   00002C   E0           MOVX    A,@DPTR
   \   00002D   34FF         ADDC    A,#-0x1
   \   00002F   FB           MOV     R3,A
   \   000030   EA           MOV     A,R2
   \   000031   6C           XRL     A,R4
   \   000032   7001         JNZ     ??SampleApp_Interest_Process_1
   \   000034   EB           MOV     A,R3
   \                     ??SampleApp_Interest_Process_1:
   \   000035   6003         JZ      $+5
   \   000037   02....       LJMP    ??SampleApp_Interest_Process_0 & 0xFFFF
    425              {
    426                 //HalUARTWrite(0, pkt->cmd.Data, pkt->cmd.DataLength); //输出接收到的数据
    427                 AcceptInterest.PackageFlag = 1;
   \   00003A   90....       MOV     DPTR,#AcceptInterest
   \   00003D   12....       LCALL   ??Subroutine145_0 & 0xFFFF
    428                 AcceptInterest.interestName.DestinationID=BUILD_UINT16(pkt->cmd.Data[3],pkt->cmd.Data[4]);
   \                     ??CrossCallReturnLabel_317:
   \   000040   8882         MOV     DPL,R0
   \   000042   8983         MOV     DPH,R1
   \   000044   A3           INC     DPTR
   \   000045   A3           INC     DPTR
   \   000046   A3           INC     DPTR
   \   000047   12....       LCALL   ?Subroutine58 & 0xFFFF
   \                     ??CrossCallReturnLabel_104:
   \   00004A   E0           MOVX    A,@DPTR
   \   00004B   FB           MOV     R3,A
   \   00004C   EC           MOV     A,R4
   \   00004D   90....       MOV     DPTR,#AcceptInterest + 2
   \   000050   12....       LCALL   ??Subroutine124_0 & 0xFFFF
    429                 AcceptInterest.interestName.DataFlag=pkt->cmd.Data[5];
   \                     ??CrossCallReturnLabel_193:
   \   000053   8882         MOV     DPL,R0
   \   000055   8983         MOV     DPH,R1
   \   000057   A3           INC     DPTR
   \   000058   A3           INC     DPTR
   \   000059   A3           INC     DPTR
   \   00005A   A3           INC     DPTR
   \   00005B   A3           INC     DPTR
   \   00005C   E0           MOVX    A,@DPTR
   \   00005D   90....       MOV     DPTR,#AcceptInterest + 4
   \   000060   F0           MOVX    @DPTR,A
   \   000061   A3           INC     DPTR
   \   000062   E4           CLR     A
   \   000063   12....       LCALL   ?Subroutine29 & 0xFFFF
    430                 AcceptInterest.interestName.PackageCounter=BUILD_UINT16(pkt->cmd.Data[6],pkt->cmd.Data[7]);
   \                     ??CrossCallReturnLabel_54:
   \   000066   FC           MOV     R4,A
   \   000067   8882         MOV     DPL,R0
   \   000069   8983         MOV     DPH,R1
   \   00006B   A3           INC     DPTR
   \   00006C   A3           INC     DPTR
   \   00006D   A3           INC     DPTR
   \   00006E   A3           INC     DPTR
   \   00006F   A3           INC     DPTR
   \   000070   A3           INC     DPTR
   \   000071   A3           INC     DPTR
   \   000072   E0           MOVX    A,@DPTR
   \   000073   FB           MOV     R3,A
   \   000074   EC           MOV     A,R4
   \   000075   90....       MOV     DPTR,#AcceptInterest + 6
   \   000078   12....       LCALL   ?Subroutine21 & 0xFFFF
    431                 AcceptInterest.LastID=BUILD_UINT16(pkt->cmd.Data[8],pkt->cmd.Data[9]);
   \                     ??CrossCallReturnLabel_36:
   \   00007B   12....       LCALL   ?Subroutine58 & 0xFFFF
   \                     ??CrossCallReturnLabel_105:
   \   00007E   A3           INC     DPTR
   \   00007F   A3           INC     DPTR
   \   000080   A3           INC     DPTR
   \   000081   A3           INC     DPTR
   \   000082   A3           INC     DPTR
   \   000083   E0           MOVX    A,@DPTR
   \   000084   FB           MOV     R3,A
   \   000085   EC           MOV     A,R4
   \   000086   FA           MOV     R2,A
   \   000087   90....       MOV     DPTR,#AcceptInterest + 8
   \   00008A   12....       LCALL   ?Subroutine21 & 0xFFFF
    432                 AcceptInterest.Noce=pkt->cmd.Data[10];
   \                     ??CrossCallReturnLabel_37:
   \   00008D   A3           INC     DPTR
   \   00008E   A3           INC     DPTR
   \   00008F   E0           MOVX    A,@DPTR
   \   000090   90....       MOV     DPTR,#AcceptInterest + 10
   \   000093   12....       LCALL   ??Subroutine146_0 & 0xFFFF
    433                 //判断是否回ACK包，若是协调器下发的兴趣包则不回，如果不是则回
    434                 if( AcceptInterest.LastID!=0 )
   \                     ??CrossCallReturnLabel_308:
   \   000096   EA           MOV     A,R2
   \   000097   4B           ORL     A,R3
   \   000098   6003         JZ      ??SampleApp_Interest_Process_2
    435                 {
    436                    SampleApp_AckMessage_Send(AcceptInterest.LastID);
   \   00009A                ; Setup parameters for call to function SampleApp_AckMessage_Send
   \   00009A   12....       LCALL   ??SampleApp_AckMessage_Send?relay
    437                 }
    438                 //判断目的节点是否是自己
    439                 if( AcceptInterest.interestName.DestinationID == NodeId )
   \                     ??SampleApp_Interest_Process_2:
   \   00009D   90....       MOV     DPTR,#AcceptInterest + 2
   \   0000A0   12....       LCALL   ??Subroutine157_0 & 0xFFFF
   \                     ??CrossCallReturnLabel_361:
   \   0000A3   90....       MOV     DPTR,#NodeId
   \   0000A6   E0           MOVX    A,@DPTR
   \   0000A7   68           XRL     A,R0
   \   0000A8   7003         JNZ     ??SampleApp_Interest_Process_3
   \   0000AA   A3           INC     DPTR
   \   0000AB   E0           MOVX    A,@DPTR
   \   0000AC   69           XRL     A,R1
   \                     ??SampleApp_Interest_Process_3:
   \   0000AD   7010         JNZ     ??SampleApp_Interest_Process_4
    440                 {
    441                    //若是给自己，直接给上一跳节点回数据
    442                     SampleApp_DataMessage_Send(AcceptInterest.LastID,AcceptInterest.interestName.PackageCounter);
   \   0000AF                ; Setup parameters for call to function SampleApp_DataMessage_Send
   \   0000AF   90....       MOV     DPTR,#AcceptInterest + 6
   \   0000B2   12....       LCALL   ??Subroutine159_0 & 0xFFFF
    443                 }
   \                     ??CrossCallReturnLabel_392:
   \   0000B5   A3           INC     DPTR
   \   0000B6   12....       LCALL   ??Subroutine125_0 & 0xFFFF
   \                     ??CrossCallReturnLabel_201:
   \   0000B9   12....       LCALL   ??SampleApp_DataMessage_Send?relay
   \   0000BC   02....       LJMP    ??SampleApp_Interest_Process_0 & 0xFFFF
    444                 else
    445                 {
    446                    //CS表中查找
    447                    if(ContentStoreFinder(AcceptInterest)== CScounter ) //CS表查找失败
   \                     ??SampleApp_Interest_Process_4:
   \   0000BF                ; Setup parameters for call to function ContentStoreFinder
   \   0000BF   90....       MOV     DPTR,#AcceptInterest
   \   0000C2   740C         MOV     A,#0xc
   \   0000C4   12....       LCALL   ?PUSH_XSTACK8_X
   \   0000C7   12....       LCALL   ??ContentStoreFinder?relay
   \   0000CA   740C         MOV     A,#0xc
   \   0000CC   12....       LCALL   ?DEALLOC_XSTACK8
   \   0000CF   8A..         MOV     ?V0 + 0,R2
   \   0000D1   8B..         MOV     ?V0 + 1,R3
   \   0000D3   A8..         MOV     R0,?V0 + 0
   \   0000D5   A9..         MOV     R1,?V0 + 1
   \   0000D7   90....       MOV     DPTR,#CScounter
   \   0000DA   E0           MOVX    A,@DPTR
   \   0000DB   68           XRL     A,R0
   \   0000DC   7003         JNZ     ??SampleApp_Interest_Process_5
   \   0000DE   A3           INC     DPTR
   \   0000DF   E0           MOVX    A,@DPTR
   \   0000E0   69           XRL     A,R1
   \                     ??SampleApp_Interest_Process_5:
   \   0000E1   90....       MOV     DPTR,#AcceptInterest
   \   0000E4   6003         JZ      $+5
   \   0000E6   02....       LJMP    ??SampleApp_Interest_Process_6 & 0xFFFF
    448                    {
    449                       //若在CS表中查找失败，就进而在PIT表中进行查找
    450                       if( PendingTableFindInterest(AcceptInterest) == PITCounter ) //PIT表查找失败
   \   0000E9                ; Setup parameters for call to function PendingTableFindInterest
   \   0000E9   740C         MOV     A,#0xc
   \   0000EB   12....       LCALL   ?PUSH_XSTACK8_X
   \   0000EE   12....       LCALL   ??PendingTableFindInterest?relay
   \   0000F1   740C         MOV     A,#0xc
   \   0000F3   12....       LCALL   ?DEALLOC_XSTACK8
   \   0000F6   8A..         MOV     ?V0 + 0,R2
   \   0000F8   8B..         MOV     ?V0 + 1,R3
   \   0000FA   A8..         MOV     R0,?V0 + 0
   \   0000FC   A9..         MOV     R1,?V0 + 1
   \   0000FE   90....       MOV     DPTR,#PITCounter
   \   000101   E0           MOVX    A,@DPTR
   \   000102   68           XRL     A,R0
   \   000103   7003         JNZ     ??SampleApp_Interest_Process_7
   \   000105   A3           INC     DPTR
   \   000106   E0           MOVX    A,@DPTR
   \   000107   69           XRL     A,R1
   \                     ??SampleApp_Interest_Process_7:
   \   000108   7063         JNZ     ??SampleApp_Interest_Process_8
    451                       {
    452                           //若不存在,把兴趣包存入PIT表中，然后交给FIB处理
    453                           InsertNamePIT( AcceptInterest );
   \   00010A                ; Setup parameters for call to function InsertNamePIT
   \   00010A   90....       MOV     DPTR,#AcceptInterest
   \   00010D   740C         MOV     A,#0xc
   \   00010F   12....       LCALL   ?PUSH_XSTACK8_X
   \   000112   12....       LCALL   ??InsertNamePIT?relay
   \   000115   740C         MOV     A,#0xc
   \   000117   12....       LCALL   ?DEALLOC_XSTACK8
    454                           //插入PIT后，在FIB中进行转发
    455                           if( ForwardingTableFinder(AcceptInterest) == FIBCounter )//FIB表查找失败
   \   00011A                ; Setup parameters for call to function ForwardingTableFinder
   \   00011A   90....       MOV     DPTR,#AcceptInterest
   \   00011D   740C         MOV     A,#0xc
   \   00011F   12....       LCALL   ?PUSH_XSTACK8_X
   \   000122   12....       LCALL   ??ForwardingTableFinder?relay
   \   000125   740C         MOV     A,#0xc
   \   000127   12....       LCALL   ?DEALLOC_XSTACK8
   \   00012A   8A..         MOV     ?V0 + 0,R2
   \   00012C   8B..         MOV     ?V0 + 1,R3
   \   00012E   A8..         MOV     R0,?V0 + 0
   \   000130   A9..         MOV     R1,?V0 + 1
   \   000132   90....       MOV     DPTR,#FIBCounter
   \   000135   E0           MOVX    A,@DPTR
   \   000136   68           XRL     A,R0
   \   000137   7003         JNZ     ??SampleApp_Interest_Process_9
   \   000139   A3           INC     DPTR
   \   00013A   E0           MOVX    A,@DPTR
   \   00013B   69           XRL     A,R1
   \                     ??SampleApp_Interest_Process_9:
   \   00013C   90....       MOV     DPTR,#AcceptInterest
   \   00013F   7018         JNZ     ??SampleApp_Interest_Process_10
    456                           {
    457                                 //插入FIB表
    458                                 InsertInterestFIB(AcceptInterest); 
   \   000141                ; Setup parameters for call to function InsertInterestFIB
   \   000141   740C         MOV     A,#0xc
   \   000143   12....       LCALL   ?PUSH_XSTACK8_X
   \   000146   12....       LCALL   ??InsertInterestFIB?relay
   \   000149   740C         MOV     A,#0xc
   \   00014B   12....       LCALL   ?DEALLOC_XSTACK8
    459                                 //继续向下发兴趣包
    460                                 SampleApp_ContinueSend();
   \   00014E                ; Setup parameters for call to function SampleApp_ContinueSend
   \   00014E   12....       LCALL   ??SampleApp_ContinueSend?relay
    461                                 InsertNewName = 1;
   \   000151   90....       MOV     DPTR,#InsertNewName
   \   000154   12....       LCALL   ??Subroutine145_0 & 0xFFFF
    462                           }
   \                     ??CrossCallReturnLabel_318:
   \   000157   804E         SJMP    ??SampleApp_Interest_Process_0
    463                           else
    464                           {
    465                                 //如果能在FIB表中找到，则从FIB表中进行转发
    466                                 uint8 result = ForwardingTableFinder(AcceptInterest);
    467                                 ForwardingInterestFromFIB(result);
   \                     ??SampleApp_Interest_Process_10:
   \   000159                ; Setup parameters for call to function ForwardingInterestFromFIB
   \   000159                ; Setup parameters for call to function ForwardingTableFinder
   \   000159   740C         MOV     A,#0xc
   \   00015B   12....       LCALL   ?PUSH_XSTACK8_X
   \   00015E   12....       LCALL   ??ForwardingTableFinder?relay
   \   000161   740C         MOV     A,#0xc
   \   000163   12....       LCALL   ?DEALLOC_XSTACK8
   \   000166   7B00         MOV     R3,#0x0
   \   000168   12....       LCALL   ??ForwardingInterestFromFIB?relay
   \   00016B   803A         SJMP    ??SampleApp_Interest_Process_0
    468                           }     
    469                        }
    470                       //PIT表查找成功
    471                       else
    472                       {
    473                          //如果CS表中没有数据，继续广播
    474                          if(CScounter == 0)
   \                     ??SampleApp_Interest_Process_8:
   \   00016D   90....       MOV     DPTR,#CScounter
   \   000170   12....       LCALL   ??Subroutine144_0 & 0xFFFF
   \                     ??CrossCallReturnLabel_294:
   \   000173   7003         JNZ     ??SampleApp_Interest_Process_11
    475                          {
    476                             SampleApp_ContinueSend();
   \   000175                ; Setup parameters for call to function SampleApp_ContinueSend
   \   000175   12....       LCALL   ??SampleApp_ContinueSend?relay
    477                          } 
    478                          //在PIT表中查找到发送过来的兴趣包，则interest请求包中所对应的节点号，
    479                          //存入PIT表中所对应的interest项的IncomingQueue队列中
    480                          uint8 result = PendingTableFindInterest(AcceptInterest);
    481                          InsertIncomingPIT(result);
   \                     ??SampleApp_Interest_Process_11:
   \   000178                ; Setup parameters for call to function InsertIncomingPIT
   \   000178                ; Setup parameters for call to function PendingTableFindInterest
   \   000178   90....       MOV     DPTR,#AcceptInterest
   \   00017B   740C         MOV     A,#0xc
   \   00017D   12....       LCALL   ?PUSH_XSTACK8_X
   \   000180   12....       LCALL   ??PendingTableFindInterest?relay
   \   000183   740C         MOV     A,#0xc
   \   000185   12....       LCALL   ?DEALLOC_XSTACK8
   \   000188   EA           MOV     A,R2
   \   000189   F9           MOV     R1,A
   \   00018A   12....       LCALL   ??InsertIncomingPIT?relay
   \   00018D   8018         SJMP    ??SampleApp_Interest_Process_0
    482                       }
    483                    }
    484                    //CS表查找成功，从CS表中回传数据
    485                    else
    486                    {
    487                        uint8 result = ContentStoreFinder(AcceptInterest);
   \                     ??SampleApp_Interest_Process_6:
   \   00018F                ; Setup parameters for call to function ContentStoreFinder
   \   00018F   740C         MOV     A,#0xc
   \   000191   12....       LCALL   ?PUSH_XSTACK8_X
   \   000194   12....       LCALL   ??ContentStoreFinder?relay
   \   000197   740C         MOV     A,#0xc
   \   000199   12....       LCALL   ?DEALLOC_XSTACK8
    488                        SampleApp_SendDataFromCS( result, AcceptInterest.LastID );
   \   00019C                ; Setup parameters for call to function SampleApp_SendDataFromCS
   \   00019C   90....       MOV     DPTR,#AcceptInterest + 8
   \   00019F   12....       LCALL   ??Subroutine159_0 & 0xFFFF
    489                    }
    490                 }
    491                 
    492                 
    493              }
   \                     ??CrossCallReturnLabel_393:
   \   0001A2   7B00         MOV     R3,#0x0
   \   0001A4   12....       LCALL   ??SampleApp_SendDataFromCS?relay
    494          }
   \                     ??SampleApp_Interest_Process_0:
   \   0001A7   02....       LJMP    ??Subroutine118_0 & 0xFFFF

   \                                 In  segment BANKED_CODE, align 1, keep-with-next
   \                     ?Subroutine58:
   \   000000   E0           MOVX    A,@DPTR
   \   000001   FC           MOV     R4,A
   \   000002   8882         MOV     DPL,R0
   \   000004   8983         MOV     DPH,R1
   \   000006   A3           INC     DPTR
   \   000007   A3           INC     DPTR
   \   000008   A3           INC     DPTR
   \   000009   A3           INC     DPTR
   \   00000A   22           RET

   \                                 In  segment BANKED_CODE, align 1, keep-with-next
   \                     ?Subroutine21:
   \   000000   F0           MOVX    @DPTR,A
   \   000001   A3           INC     DPTR
   \   000002   EB           MOV     A,R3
   \   000003   12....       LCALL   ?Subroutine80 & 0xFFFF
   \                     ??CrossCallReturnLabel_136:
   \   000006   22           RET

   \                                 In  segment BANKED_CODE, align 1, keep-with-next
   \                     ?Subroutine67:
   \   000000   240C         ADD     A,#0xc
   \   000002                REQUIRE ??Subroutine119_0
   \   000002                ; // Fall through to label ??Subroutine119_0

   \                                 In  segment BANKED_CODE, align 1, keep-with-next
   \                     ?Subroutine29:
   \   000000   12....       LCALL   ?Subroutine105 & 0xFFFF
   \                     ??CrossCallReturnLabel_174:
   \   000003   E0           MOVX    A,@DPTR
   \   000004   22           RET

   \                                 In  segment BANKED_CODE, align 1, keep-with-next
   \                     ?Subroutine80:
   \   000000   12....       LCALL   ?Subroutine105 & 0xFFFF
   \                     ??CrossCallReturnLabel_175:
   \   000003   A3           INC     DPTR
   \   000004   A3           INC     DPTR
   \   000005   22           RET

   \                                 In  segment BANKED_CODE, align 1, keep-with-next
   \                     ?Subroutine105:
   \   000000   F0           MOVX    @DPTR,A
   \   000001   8882         MOV     DPL,R0
   \   000003   8983         MOV     DPH,R1
   \   000005   A3           INC     DPTR
   \   000006   A3           INC     DPTR
   \   000007   A3           INC     DPTR
   \   000008   A3           INC     DPTR
   \   000009   A3           INC     DPTR
   \   00000A   A3           INC     DPTR
   \   00000B   22           RET

   \                                 In  segment BANKED_CODE, align 1, keep-with-next
   \                     ??Subroutine124_0:
   \   000000   12....       LCALL   ??Subroutine153_0 & 0xFFFF
   \                     ??CrossCallReturnLabel_351:
   \   000003   22           RET

   \                                 In  segment BANKED_CODE, align 1, keep-with-next
   \                     ??Subroutine125_0:
   \   000000   12....       LCALL   ??Subroutine138_0 & 0xFFFF
   \                     ??CrossCallReturnLabel_268:
   \   000003   22           RET

   \                                 In  segment BANKED_CODE, align 1, keep-with-next
   \                     ??Subroutine138_0:
   \   000000   12....       LCALL   ??Subroutine152_0 & 0xFFFF
   \                     ??CrossCallReturnLabel_350:
   \   000003   22           RET

   \                                 In  segment BANKED_CODE, align 1, keep-with-next
   \                     ??Subroutine144_0:
   \   000000   12....       LCALL   ?Subroutine88 & 0xFFFF
   \                     ??CrossCallReturnLabel_303:
   \   000003   49           ORL     A,R1
   \   000004   22           RET

   \                                 In  segment BANKED_CODE, align 1, keep-with-next
   \                     ??Subroutine152_0:
   \   000000   E0           MOVX    A,@DPTR
   \   000001   FA           MOV     R2,A
   \   000002   A3           INC     DPTR
   \   000003   E0           MOVX    A,@DPTR
   \   000004   FB           MOV     R3,A
   \   000005   22           RET

   \                                 In  segment BANKED_CODE, align 1, keep-with-next
   \                     ??Subroutine153_0:
   \   000000   F0           MOVX    @DPTR,A
   \   000001   A3           INC     DPTR
   \   000002   EB           MOV     A,R3
   \   000003   F0           MOVX    @DPTR,A
   \   000004   22           RET

   \                                 In  segment BANKED_CODE, align 1, keep-with-next
   \                     ??Subroutine157_0:
   \   000000   12....       LCALL   ?Subroutine111 & 0xFFFF
   \                     ??CrossCallReturnLabel_375:
   \   000003   22           RET

   \                                 In  segment BANKED_CODE, align 1, keep-with-next
   \                     ?Subroutine111:
   \   000000   E0           MOVX    A,@DPTR
   \   000001   F8           MOV     R0,A
   \   000002   A3           INC     DPTR
   \   000003   E0           MOVX    A,@DPTR
   \   000004   F9           MOV     R1,A
   \   000005   22           RET
    495          //ack包处理

   \                                 In  segment BANKED_CODE, align 1, keep-with-next
    496          void SampleApp_Ack_Process( afIncomingMSGPacket_t *pkt )
   \                     SampleApp_Ack_Process:
    497          {
   \   000000   74F6         MOV     A,#-0xa
   \   000002   12....       LCALL   ?BANKED_ENTER_XDATA
   \   000005                ; Saved register size: 10
   \   000005                ; Auto size: 0
    498             if(InsertNewName==1)	
   \   000005   90....       MOV     DPTR,#InsertNewName
   \   000008   E0           MOVX    A,@DPTR
   \   000009   6401         XRL     A,#0x1
   \   00000B   7002         JNZ     ??SampleApp_Ack_Process_0
   \   00000D   A3           INC     DPTR
   \   00000E   E0           MOVX    A,@DPTR
   \                     ??SampleApp_Ack_Process_0:
   \   00000F   7036         JNZ     ??SampleApp_Ack_Process_1
    499             {
    500                uint8 result;
    501                uint8 FIB_ID =BUILD_UINT16(pkt->cmd.Data[3],pkt->cmd.Data[4]);
   \   000011   EA           MOV     A,R2
   \   000012   2421         ADD     A,#0x21
   \   000014   F582         MOV     DPL,A
   \   000016   EB           MOV     A,R3
   \   000017   12....       LCALL   ??Subroutine120_0 & 0xFFFF
   \                     ??CrossCallReturnLabel_181:
   \   00001A   F8           MOV     R0,A
   \   00001B   A3           INC     DPTR
   \   00001C   E0           MOVX    A,@DPTR
   \   00001D   F583         MOV     DPH,A
   \   00001F   8882         MOV     DPL,R0
   \   000021   A3           INC     DPTR
   \   000022   A3           INC     DPTR
   \   000023   A3           INC     DPTR
   \   000024   E0           MOVX    A,@DPTR
   \   000025   F5..         MOV     ?V0 + 0,A
    502                result=ForwardingTableFinder(AcceptInterest);	
    503                InsertQueueFIB(result,FIB_ID);	
   \   000027                ; Setup parameters for call to function InsertQueueFIB
   \   000027                ; Setup parameters for call to function ForwardingTableFinder
   \   000027   90....       MOV     DPTR,#AcceptInterest
   \   00002A   740C         MOV     A,#0xc
   \   00002C   12....       LCALL   ?PUSH_XSTACK8_X
   \   00002F   12....       LCALL   ??ForwardingTableFinder?relay
   \   000032   740C         MOV     A,#0xc
   \   000034   12....       LCALL   ?DEALLOC_XSTACK8
   \   000037   EA           MOV     A,R2
   \   000038   F9           MOV     R1,A
   \   000039   AA..         MOV     R2,?V0 + 0
   \   00003B   7B00         MOV     R3,#0x0
   \   00003D   12....       LCALL   ??InsertQueueFIB?relay
    504                InsertNewName=0;
   \   000040   90....       MOV     DPTR,#InsertNewName
   \   000043   E4           CLR     A
   \   000044   F0           MOVX    @DPTR,A
   \   000045   A3           INC     DPTR
   \   000046   F0           MOVX    @DPTR,A
    505             } 
    506             else
    507             {	
    508             //InsertNewName没有标注的话不做任何处理
    509             }
    510          }
   \                     ??SampleApp_Ack_Process_1:
   \   000047   02....       LJMP    ??Subroutine118_0 & 0xFFFF
    511          

   \                                 In  segment BANKED_CODE, align 1, keep-with-next
    512          void SampleApp_Data_Process( afIncomingMSGPacket_t *pkt )
   \                     SampleApp_Data_Process:
    513          {
   \   000000   74F6         MOV     A,#-0xa
   \   000002   12....       LCALL   ?BANKED_ENTER_XDATA
   \   000005                ; Saved register size: 10
   \   000005                ; Auto size: 0
    514              AcceptData.PackageFlag = 2;
   \   000005   90....       MOV     DPTR,#AcceptData
   \   000008   7402         MOV     A,#0x2
   \   00000A   12....       LCALL   ??Subroutine146_0 & 0xFFFF
    515              AcceptData.interestName.DestinationID= BUILD_UINT16(pkt->cmd.Data[3],pkt->cmd.Data[4]);
   \                     ??CrossCallReturnLabel_309:
   \   00000D   EA           MOV     A,R2
   \   00000E   2421         ADD     A,#0x21
   \   000010   F8           MOV     R0,A
   \   000011   EB           MOV     A,R3
   \   000012   3400         ADDC    A,#0x0
   \   000014   12....       LCALL   ?Subroutine55 & 0xFFFF
   \                     ??CrossCallReturnLabel_210:
   \   000017   8A82         MOV     DPL,R2
   \   000019   8B83         MOV     DPH,R3
   \   00001B   12....       LCALL   ?Subroutine57 & 0xFFFF
   \                     ??CrossCallReturnLabel_102:
   \   00001E   E0           MOVX    A,@DPTR
   \   00001F   FD           MOV     R5,A
   \   000020   EE           MOV     A,R6
   \   000021   90....       MOV     DPTR,#AcceptData + 2
   \   000024   12....       LCALL   ?Subroutine24 & 0xFFFF
    516              AcceptData.interestName.DataFlag= pkt->cmd.Data[5];
   \                     ??CrossCallReturnLabel_40:
   \   000027   E0           MOVX    A,@DPTR
   \   000028   90....       MOV     DPTR,#AcceptData + 4
   \   00002B   12....       LCALL   ??Subroutine146_0 & 0xFFFF
    517              AcceptData.interestName.PackageCounter=BUILD_UINT16(pkt->cmd.Data[6],pkt->cmd.Data[7]);
   \                     ??CrossCallReturnLabel_310:
   \   00002E   8A82         MOV     DPL,R2
   \   000030   8B83         MOV     DPH,R3
   \   000032   A3           INC     DPTR
   \   000033   A3           INC     DPTR
   \   000034   A3           INC     DPTR
   \   000035   12....       LCALL   ?Subroutine57 & 0xFFFF
   \                     ??CrossCallReturnLabel_103:
   \   000038   A3           INC     DPTR
   \   000039   A3           INC     DPTR
   \   00003A   A3           INC     DPTR
   \   00003B   E0           MOVX    A,@DPTR
   \   00003C   FD           MOV     R5,A
   \   00003D   EE           MOV     A,R6
   \   00003E   90....       MOV     DPTR,#AcceptData + 6
   \   000041   12....       LCALL   ?Subroutine24 & 0xFFFF
    518              AcceptData.PackageAll= BUILD_UINT16(pkt->cmd.Data[8],pkt->cmd.Data[9]);
   \                     ??CrossCallReturnLabel_41:
   \   000044   A3           INC     DPTR
   \   000045   A3           INC     DPTR
   \   000046   A3           INC     DPTR
   \   000047   E0           MOVX    A,@DPTR
   \   000048   90....       MOV     DPTR,#AcceptData + 8
   \   00004B   12....       LCALL   ?Subroutine38 & 0xFFFF
    519              AcceptData.PackageSeg= BUILD_UINT16(pkt->cmd.Data[10],pkt->cmd.Data[11]);
   \                     ??CrossCallReturnLabel_68:
   \   00004E   12....       LCALL   ??Subroutine121_0 & 0xFFFF
   \                     ??CrossCallReturnLabel_187:
   \   000051   F583         MOV     DPH,A
   \   000053   8A82         MOV     DPL,R2
   \   000055   A3           INC     DPTR
   \   000056   A3           INC     DPTR
   \   000057   A3           INC     DPTR
   \   000058   A3           INC     DPTR
   \   000059   A3           INC     DPTR
   \   00005A   A3           INC     DPTR
   \   00005B   A3           INC     DPTR
   \   00005C   A3           INC     DPTR
   \   00005D   A3           INC     DPTR
   \   00005E   A3           INC     DPTR
   \   00005F   E0           MOVX    A,@DPTR
   \   000060   90....       MOV     DPTR,#AcceptData + 9
   \   000063   12....       LCALL   ?Subroutine38 & 0xFFFF
    520              AcceptData.Data= BUILD_UINT16(pkt->cmd.Data[12],pkt->cmd.Data[13]);//电压值
   \                     ??CrossCallReturnLabel_69:
   \   000066   12....       LCALL   ?Subroutine47 & 0xFFFF
   \                     ??CrossCallReturnLabel_88:
   \   000069   12....       LCALL   ?Subroutine67 & 0xFFFF
   \                     ??CrossCallReturnLabel_186:
   \   00006C   FA           MOV     R2,A
   \   00006D   E8           MOV     A,R0
   \   00006E   240D         ADD     A,#0xd
   \   000070   12....       LCALL   ??Subroutine119_0 & 0xFFFF
   \                     ??CrossCallReturnLabel_184:
   \   000073   F9           MOV     R1,A
   \   000074   EA           MOV     A,R2
   \   000075   90....       MOV     DPTR,#AcceptData + 10
   \   000078   F0           MOVX    @DPTR,A
   \   000079   A3           INC     DPTR
   \   00007A   E9           MOV     A,R1
   \   00007B   F0           MOVX    @DPTR,A
    521              
    522              // 查询PIT表，查询表中是否有相应兴趣名存在
    523              if( PendingTableFindData(AcceptData) == PITCounter) //当表中不存在相应兴趣名时直接丢包
   \   00007C                ; Setup parameters for call to function PendingTableFindData
   \   00007C   90....       MOV     DPTR,#AcceptData
   \   00007F   740C         MOV     A,#0xc
   \   000081   12....       LCALL   ?PUSH_XSTACK8_X
   \   000084   12....       LCALL   ??PendingTableFindData?relay
   \   000087   740C         MOV     A,#0xc
   \   000089   12....       LCALL   ?DEALLOC_XSTACK8
   \   00008C   8A..         MOV     ?V0 + 0,R2
   \   00008E   8B..         MOV     ?V0 + 1,R3
   \   000090   A8..         MOV     R0,?V0 + 0
   \   000092   A9..         MOV     R1,?V0 + 1
   \   000094   90....       MOV     DPTR,#PITCounter
   \   000097   E0           MOVX    A,@DPTR
   \   000098   68           XRL     A,R0
   \   000099   7003         JNZ     ??SampleApp_Data_Process_0
   \   00009B   A3           INC     DPTR
   \   00009C   E0           MOVX    A,@DPTR
   \   00009D   69           XRL     A,R1
   \                     ??SampleApp_Data_Process_0:
   \   00009E   7003         JNZ     $+5
   \   0000A0   02....       LJMP    ??SampleApp_Data_Process_1 & 0xFFFF
    524              { }
    525              else
    526              {
    527                 uint8 result = PendingTableFindData(AcceptData);
   \   0000A3                ; Setup parameters for call to function PendingTableFindData
   \   0000A3   90....       MOV     DPTR,#AcceptData
   \   0000A6   740C         MOV     A,#0xc
   \   0000A8   12....       LCALL   ?PUSH_XSTACK8_X
   \   0000AB   12....       LCALL   ??PendingTableFindData?relay
   \   0000AE   740C         MOV     A,#0xc
   \   0000B0   12....       LCALL   ?DEALLOC_XSTACK8
   \   0000B3   EA           MOV     A,R2
   \   0000B4   F5..         MOV     ?V0 + 0,A
    528                 //从PIT表中进行转发
    529                 SendDataFromPIT(result,AcceptData);
   \   0000B6                ; Setup parameters for call to function SendDataFromPIT
   \   0000B6   90....       MOV     DPTR,#AcceptData
   \   0000B9   740C         MOV     A,#0xc
   \   0000BB   12....       LCALL   ?PUSH_XSTACK8_X
   \   0000BE   A9..         MOV     R1,?V0 + 0
   \   0000C0   12....       LCALL   ??SendDataFromPIT?relay
   \   0000C3   740C         MOV     A,#0xc
   \   0000C5   12....       LCALL   ?DEALLOC_XSTACK8
    530                 //删除PIT中所对应的表项
    531                 DeleteItemPITS(result);
   \   0000C8                ; Setup parameters for call to function DeleteItemPITS
   \   0000C8   AA..         MOV     R2,?V0 + 0
   \   0000CA   7B00         MOV     R3,#0x0
   \   0000CC   12....       LCALL   ??DeleteItemPITS?relay
    532                 //插入数据到CS表中
    533                 if(CScounter == 0)
   \   0000CF   90....       MOV     DPTR,#CScounter
   \   0000D2   12....       LCALL   ??Subroutine144_0 & 0xFFFF
   \                     ??CrossCallReturnLabel_295:
   \   0000D5   7012         JNZ     ??SampleApp_Data_Process_2
    534                 {
    535                     InsertContentStore(AcceptData);
   \   0000D7                ; Setup parameters for call to function InsertContentStore
   \   0000D7   90....       MOV     DPTR,#AcceptData
   \   0000DA   740C         MOV     A,#0xc
   \   0000DC   12....       LCALL   ?PUSH_XSTACK8_X
   \   0000DF   12....       LCALL   ??InsertContentStore?relay
   \   0000E2   740C         MOV     A,#0xc
   \   0000E4   12....       LCALL   ?DEALLOC_XSTACK8
   \   0000E7   8074         SJMP    ??SampleApp_Data_Process_1
    536                 }
    537                 else
    538                 {
    539                     for(int i=0;i<CScounter;i++)
   \                     ??SampleApp_Data_Process_2:
   \   0000E9   7E00         MOV     R6,#0x0
   \   0000EB   7F00         MOV     R7,#0x0
   \   0000ED   805F         SJMP    ??SampleApp_Data_Process_3
    540                     {
    541                         if( ContentStore[i].interestName.DestinationID ==AcceptData.interestName.DestinationID &&
    542                             ContentStore[i].interestName.DataFlag ==AcceptData.interestName.DataFlag &&
    543                             ContentStore[i].interestName.PackageCounter == AcceptData.interestName.PackageCounter)
   \                     ??SampleApp_Data_Process_4:
   \   0000EF   EE           MOV     A,R6
   \   0000F0   F8           MOV     R0,A
   \   0000F1   EF           MOV     A,R7
   \   0000F2   F9           MOV     R1,A
   \   0000F3   E8           MOV     A,R0
   \   0000F4   12....       LCALL   ?Subroutine72 & 0xFFFF
   \                     ??CrossCallReturnLabel_124:
   \   0000F7   39           ADDC    A,R1
   \   0000F8   12....       LCALL   ?Subroutine55 & 0xFFFF
   \                     ??CrossCallReturnLabel_211:
   \   0000FB   90....       MOV     DPTR,#AcceptData + 2
   \   0000FE   E0           MOVX    A,@DPTR
   \   0000FF   6A           XRL     A,R2
   \   000100   7003         JNZ     ??SampleApp_Data_Process_5
   \   000102   A3           INC     DPTR
   \   000103   E0           MOVX    A,@DPTR
   \   000104   6B           XRL     A,R3
   \                     ??SampleApp_Data_Process_5:
   \   000105   702C         JNZ     ??SampleApp_Data_Process_6
   \   000107   8882         MOV     DPL,R0
   \   000109   8983         MOV     DPH,R1
   \   00010B   A3           INC     DPTR
   \   00010C   A3           INC     DPTR
   \   00010D   12....       LCALL   ??Subroutine125_0 & 0xFFFF
   \                     ??CrossCallReturnLabel_202:
   \   000110   90....       MOV     DPTR,#AcceptData + 4
   \   000113   E0           MOVX    A,@DPTR
   \   000114   6A           XRL     A,R2
   \   000115   7003         JNZ     ??SampleApp_Data_Process_7
   \   000117   A3           INC     DPTR
   \   000118   E0           MOVX    A,@DPTR
   \   000119   6B           XRL     A,R3
   \                     ??SampleApp_Data_Process_7:
   \   00011A   7017         JNZ     ??SampleApp_Data_Process_6
   \   00011C   8882         MOV     DPL,R0
   \   00011E   8983         MOV     DPH,R1
   \   000120   A3           INC     DPTR
   \   000121   A3           INC     DPTR
   \   000122   A3           INC     DPTR
   \   000123   A3           INC     DPTR
   \   000124   12....       LCALL   ??Subroutine157_0 & 0xFFFF
   \                     ??CrossCallReturnLabel_362:
   \   000127   90....       MOV     DPTR,#AcceptData + 6
   \   00012A   E0           MOVX    A,@DPTR
   \   00012B   68           XRL     A,R0
   \   00012C   7003         JNZ     ??SampleApp_Data_Process_8
   \   00012E   A3           INC     DPTR
   \   00012F   E0           MOVX    A,@DPTR
   \   000130   69           XRL     A,R1
   \                     ??SampleApp_Data_Process_8:
   \   000131   6013         JZ      ??SampleApp_Data_Process_9
    544                          { }
    545                          else
    546                          {
    547                              DeleteItemCS();
   \                     ??SampleApp_Data_Process_6:
   \   000133                ; Setup parameters for call to function DeleteItemCS
   \   000133   12....       LCALL   ??DeleteItemCS?relay
    548                              InsertContentStore(AcceptData);
   \   000136                ; Setup parameters for call to function InsertContentStore
   \   000136   90....       MOV     DPTR,#AcceptData
   \   000139   740C         MOV     A,#0xc
   \   00013B   12....       LCALL   ?PUSH_XSTACK8_X
   \   00013E   12....       LCALL   ??InsertContentStore?relay
   \   000141   740C         MOV     A,#0xc
   \   000143   12....       LCALL   ?DEALLOC_XSTACK8
    549                          }
    550                        }
   \                     ??SampleApp_Data_Process_9:
   \   000146   EE           MOV     A,R6
   \   000147   2401         ADD     A,#0x1
   \   000149   0E           INC     R6
   \   00014A   EF           MOV     A,R7
   \   00014B   3400         ADDC    A,#0x0
   \   00014D   FF           MOV     R7,A
   \                     ??SampleApp_Data_Process_3:
   \   00014E   90....       MOV     DPTR,#CScounter
   \   000151   12....       LCALL   ??Subroutine157_0 & 0xFFFF
    551                    } 
    552                 }   
   \                     ??CrossCallReturnLabel_363:
   \   000154   C3           CLR     C
   \   000155   EE           MOV     A,R6
   \   000156   98           SUBB    A,R0
   \   000157   EF           MOV     A,R7
   \   000158   12....       LCALL   ?Subroutine100 & 0xFFFF
   \                     ??CrossCallReturnLabel_163:
   \   00015B   4092         JC      ??SampleApp_Data_Process_4
    553          }
   \                     ??SampleApp_Data_Process_1:
   \   00015D   02....       LJMP    ??Subroutine118_0 & 0xFFFF

   \                                 In  segment BANKED_CODE, align 1, keep-with-next
   \                     ?Subroutine57:
   \   000000   A3           INC     DPTR
   \   000001   A3           INC     DPTR
   \   000002   A3           INC     DPTR
   \   000003   E0           MOVX    A,@DPTR
   \   000004   FE           MOV     R6,A
   \   000005   8A82         MOV     DPL,R2
   \   000007   8B83         MOV     DPH,R3
   \   000009   A3           INC     DPTR
   \   00000A   A3           INC     DPTR
   \   00000B   A3           INC     DPTR
   \   00000C   A3           INC     DPTR
   \   00000D   22           RET

   \                                 In  segment BANKED_CODE, align 1, keep-with-next
   \                     ?Subroutine24:
   \   000000   F0           MOVX    @DPTR,A
   \   000001   A3           INC     DPTR
   \   000002   ED           MOV     A,R5
   \   000003   F0           MOVX    @DPTR,A
   \   000004   8A82         MOV     DPL,R2
   \   000006   8B83         MOV     DPH,R3
   \   000008   A3           INC     DPTR
   \   000009   A3           INC     DPTR
   \   00000A   A3           INC     DPTR
   \   00000B   A3           INC     DPTR
   \   00000C   A3           INC     DPTR
   \   00000D   22           RET

   \                                 In  segment BANKED_CODE, align 1, keep-with-next
   \                     ??Subroutine121_0:
   \   000000   E0           MOVX    A,@DPTR
   \   000001   FA           MOV     R2,A
   \   000002   A3           INC     DPTR
   \   000003   E0           MOVX    A,@DPTR
   \   000004   22           RET

   \                                 In  segment BANKED_CODE, align 1, keep-with-next
   \                     ?Subroutine38:
   \   000000   F0           MOVX    @DPTR,A
   \   000001   8882         MOV     DPL,R0
   \   000003   8983         MOV     DPH,R1
   \   000005   22           RET

   \                                 In  segment BANKED_CODE, align 1, keep-with-next
   \                     ?Subroutine72:
   \   000000   12....       LCALL   ?Subroutine104 & 0xFFFF
   \                     ??CrossCallReturnLabel_173:
   \   000003   22           RET

   \                                 In  segment BANKED_CODE, align 1, keep-with-next
   \                     ?Subroutine104:
   \   000000   75F00E       MOV     B,#0xe
   \   000003   A4           MUL     AB
   \   000004   F8           MOV     R0,A
   \   000005   AAF0         MOV     R2,B
   \   000007   75F00E       MOV     B,#0xe
   \   00000A   E9           MOV     A,R1
   \   00000B   A4           MUL     AB
   \   00000C   2A           ADD     A,R2
   \   00000D   F9           MOV     R1,A
   \   00000E   74..         MOV     A,#ContentStore & 0xff
   \   000010   28           ADD     A,R0
   \   000011   F8           MOV     R0,A
   \   000012   74..         MOV     A,#(ContentStore >> 8) & 0xff
   \   000014   22           RET

   \                                 In  segment BANKED_CODE, align 1, keep-with-next
   \                     ?Subroutine55:
   \   000000   F9           MOV     R1,A
   \   000001   8882         MOV     DPL,R0
   \   000003   8983         MOV     DPH,R1
   \   000005                REQUIRE ??Subroutine125_0
   \   000005                ; // Fall through to label ??Subroutine125_0

   \                                 In  segment BANKED_CODE, align 1, keep-with-next
   \                     ?Subroutine100:
   \   000000   99           SUBB    A,R1
   \   000001   A2D2         MOV     C,0xD0 /* PSW */.2
   \   000003   65D0         XRL     A,PSW
   \   000005   33           RLC     A
   \   000006   22           RET
    554          
    555          
    556          
    557          //继续下发兴趣包

   \                                 In  segment BANKED_CODE, align 1, keep-with-next
    558          void SampleApp_ContinueSend(void)
   \                     SampleApp_ContinueSend:
    559          {
   \   000000   74F6         MOV     A,#-0xa
   \   000002   12....       LCALL   ?BANKED_ENTER_XDATA
   \   000005                ; Saved register size: 10
   \   000005                ; Auto size: 20
   \   000005   74EC         MOV     A,#-0x14
   \   000007   12....       LCALL   ?ALLOC_XSTACK8
    560            uint8 interestData[20];
    561            interestData[0] = 0x7E;
   \   00000A   85..82       MOV     DPL,?XSP + 0
   \   00000D   85..83       MOV     DPH,?XSP + 1
   \   000010   747E         MOV     A,#0x7e
   \   000012   F0           MOVX    @DPTR,A
    562            interestData[1] = 0x45;
   \   000013   7401         MOV     A,#0x1
   \   000015   12....       LCALL   ?XSTACK_DISP0_8
   \   000018   7445         MOV     A,#0x45
   \   00001A   F0           MOVX    @DPTR,A
    563            interestData[2] = AcceptInterest.PackageFlag;
   \   00001B   90....       MOV     DPTR,#AcceptInterest
   \   00001E   E0           MOVX    A,@DPTR
   \   00001F   C0E0         PUSH    A
   \   000021   7402         MOV     A,#0x2
   \   000023   12....       LCALL   ?XSTACK_DISP0_8
   \   000026   D0E0         POP     A
   \   000028   F0           MOVX    @DPTR,A
    564            interestData[3] = HI_UINT16(AcceptInterest.interestName.DestinationID);
   \   000029   90....       MOV     DPTR,#AcceptInterest + 3
   \   00002C   E0           MOVX    A,@DPTR
   \   00002D   C0E0         PUSH    A
   \   00002F   7403         MOV     A,#0x3
   \   000031   12....       LCALL   ?XSTACK_DISP0_8
   \   000034   D0E0         POP     A
   \   000036   F0           MOVX    @DPTR,A
    565            interestData[4] = LO_UINT16(AcceptInterest.interestName.DestinationID);
   \   000037   90....       MOV     DPTR,#AcceptInterest + 2
   \   00003A   E0           MOVX    A,@DPTR
   \   00003B   C0E0         PUSH    A
   \   00003D   7404         MOV     A,#0x4
   \   00003F   12....       LCALL   ?XSTACK_DISP0_8
   \   000042   D0E0         POP     A
   \   000044   F0           MOVX    @DPTR,A
    566            interestData[5] = AcceptInterest.interestName.DataFlag;
   \   000045   90....       MOV     DPTR,#AcceptInterest + 4
   \   000048   E0           MOVX    A,@DPTR
   \   000049   C0E0         PUSH    A
   \   00004B   7405         MOV     A,#0x5
   \   00004D   12....       LCALL   ?XSTACK_DISP0_8
   \   000050   D0E0         POP     A
   \   000052   F0           MOVX    @DPTR,A
    567            interestData[6] = HI_UINT16(AcceptInterest.interestName.PackageCounter);
   \   000053   90....       MOV     DPTR,#AcceptInterest + 7
   \   000056   E0           MOVX    A,@DPTR
   \   000057   C0E0         PUSH    A
   \   000059   7406         MOV     A,#0x6
   \   00005B   12....       LCALL   ?XSTACK_DISP0_8
   \   00005E   D0E0         POP     A
   \   000060   F0           MOVX    @DPTR,A
    568            interestData[7] = LO_UINT16(AcceptInterest.interestName.PackageCounter);
   \   000061   90....       MOV     DPTR,#AcceptInterest + 6
   \   000064   E0           MOVX    A,@DPTR
   \   000065   C0E0         PUSH    A
   \   000067   7407         MOV     A,#0x7
   \   000069   12....       LCALL   ?XSTACK_DISP0_8
   \   00006C   D0E0         POP     A
   \   00006E   12....       LCALL   ?Subroutine15 & 0xFFFF
    569            interestData[8] = HI_UINT16(NodeId);//lastID;
   \                     ??CrossCallReturnLabel_22:
   \   000071   12....       LCALL   ?SS_SHR
   \   000074   7408         MOV     A,#0x8
   \   000076   12....       LCALL   ?XSTACK_DISP0_8
   \   000079   12....       LCALL   ?Subroutine37 & 0xFFFF
    570            interestData[9] = LO_UINT16(NodeId);
   \                     ??CrossCallReturnLabel_65:
   \   00007C   C0E0         PUSH    A
   \   00007E   7409         MOV     A,#0x9
   \   000080   12....       LCALL   ?XSTACK_DISP0_8
   \   000083   D0E0         POP     A
   \   000085   F0           MOVX    @DPTR,A
    571            interestData[10] = AcceptInterest.Noce;
   \   000086   90....       MOV     DPTR,#AcceptInterest + 10
   \   000089   E0           MOVX    A,@DPTR
   \   00008A   C0E0         PUSH    A
   \   00008C   740A         MOV     A,#0xa
   \   00008E   12....       LCALL   ?XSTACK_DISP0_8
   \   000091   D0E0         POP     A
   \   000093   F0           MOVX    @DPTR,A
    572            interestData[11] = 0;//保留位
   \   000094   740B         MOV     A,#0xb
   \   000096   12....       LCALL   ?XSTACK_DISP0_8
   \   000099   E4           CLR     A
   \   00009A   F0           MOVX    @DPTR,A
    573            interestData[12] = layer;//层数 
   \   00009B   90....       MOV     DPTR,#layer
   \   00009E   E0           MOVX    A,@DPTR
   \   00009F   C0E0         PUSH    A
   \   0000A1   740C         MOV     A,#0xc
   \   0000A3   12....       LCALL   ?XSTACK_DISP0_8
   \   0000A6   D0E0         POP     A
   \   0000A8   F0           MOVX    @DPTR,A
    574            interestData[13] = 0;
   \   0000A9   740D         MOV     A,#0xd
   \   0000AB   12....       LCALL   ?XSTACK_DISP0_8
   \   0000AE   E4           CLR     A
   \   0000AF   F0           MOVX    @DPTR,A
    575            interestData[14] = 0;
   \   0000B0   740E         MOV     A,#0xe
   \   0000B2   12....       LCALL   ?XSTACK_DISP0_8
   \   0000B5   E4           CLR     A
   \   0000B6   F0           MOVX    @DPTR,A
    576            interestData[15] = 0;
   \   0000B7   740F         MOV     A,#0xf
   \   0000B9   12....       LCALL   ?XSTACK_DISP0_8
   \   0000BC   E4           CLR     A
   \   0000BD   F0           MOVX    @DPTR,A
    577            interestData[16] = 0;
   \   0000BE   7410         MOV     A,#0x10
   \   0000C0   12....       LCALL   ?XSTACK_DISP0_8
   \   0000C3   E4           CLR     A
   \   0000C4   F0           MOVX    @DPTR,A
    578            interestData[17] = 0;
   \   0000C5   7411         MOV     A,#0x11
   \   0000C7   12....       LCALL   ?XSTACK_DISP0_8
   \   0000CA   E4           CLR     A
   \   0000CB   F0           MOVX    @DPTR,A
    579            interestData[18] = 0;
   \   0000CC   7412         MOV     A,#0x12
   \   0000CE   12....       LCALL   ?XSTACK_DISP0_8
   \   0000D1   E4           CLR     A
   \   0000D2   F0           MOVX    @DPTR,A
    580            interestData[19] = 0x7E;
   \   0000D3   7413         MOV     A,#0x13
   \   0000D5   12....       LCALL   ?XSTACK_DISP0_8
   \   0000D8   747E         MOV     A,#0x7e
   \   0000DA   F0           MOVX    @DPTR,A
    581            
    582            if ( AF_DataRequest( &SampleApp_Periodic_DstAddr, &SampleApp_epDesc,
    583                                 SAMPLEAPP_INTEREST_CLUSTERID,
    584                                 20,
    585                                 interestData,
    586                                 &SampleApp_TransID,
    587                                 AF_DISCV_ROUTE,
    588                                 AF_DEFAULT_RADIUS ) == afStatus_SUCCESS )
   \   0000DB                ; Setup parameters for call to function AF_DataRequest
   \   0000DB   02....       LJMP    ?Subroutine4 & 0xFFFF
    589            {
    590            }
    591            else
    592            { }
    593          }
    594          //从FIB表中转发兴趣包

   \                                 In  segment BANKED_CODE, align 1, keep-with-next
    595          void ForwardingInterestFromFIB(int id)
   \                     ForwardingInterestFromFIB:
    596          {
   \   000000   74F2         MOV     A,#-0xe
   \   000002   12....       LCALL   ?BANKED_ENTER_XDATA
   \   000005                ; Saved register size: 14
   \   000005                ; Auto size: 20
   \   000005   74EC         MOV     A,#-0x14
   \   000007   12....       LCALL   ?ALLOC_XSTACK8
   \   00000A   EA           MOV     A,R2
   \   00000B   FE           MOV     R6,A
   \   00000C   EB           MOV     A,R3
   \   00000D   FF           MOV     R7,A
    597             int temp = 0;
   \   00000E   75..00       MOV     ?V0 + 0,#0x0
   \   000011   75..00       MOV     ?V0 + 1,#0x0
    598             uint8 interestData[20];
    599             interestData[0] = 0x7E;
   \   000014   85..82       MOV     DPL,?XSP + 0
   \   000017   85..83       MOV     DPH,?XSP + 1
   \   00001A   747E         MOV     A,#0x7e
   \   00001C   F0           MOVX    @DPTR,A
    600             interestData[1] = 0x45;
   \   00001D   7401         MOV     A,#0x1
   \   00001F   12....       LCALL   ?XSTACK_DISP0_8
   \   000022   7445         MOV     A,#0x45
   \   000024   F0           MOVX    @DPTR,A
    601             interestData[2] = AcceptInterest.PackageFlag;
   \   000025   90....       MOV     DPTR,#AcceptInterest
   \   000028   E0           MOVX    A,@DPTR
   \   000029   C0E0         PUSH    A
   \   00002B   7402         MOV     A,#0x2
   \   00002D   12....       LCALL   ?XSTACK_DISP0_8
   \   000030   D0E0         POP     A
   \   000032   F0           MOVX    @DPTR,A
    602             interestData[3] = HI_UINT16(AcceptInterest.interestName.DestinationID);
   \   000033   90....       MOV     DPTR,#AcceptInterest + 3
   \   000036   E0           MOVX    A,@DPTR
   \   000037   C0E0         PUSH    A
   \   000039   7403         MOV     A,#0x3
   \   00003B   12....       LCALL   ?XSTACK_DISP0_8
   \   00003E   D0E0         POP     A
   \   000040   F0           MOVX    @DPTR,A
    603             interestData[4] = LO_UINT16(AcceptInterest.interestName.DestinationID);
   \   000041   90....       MOV     DPTR,#AcceptInterest + 2
   \   000044   E0           MOVX    A,@DPTR
   \   000045   C0E0         PUSH    A
   \   000047   7404         MOV     A,#0x4
   \   000049   12....       LCALL   ?XSTACK_DISP0_8
   \   00004C   D0E0         POP     A
   \   00004E   F0           MOVX    @DPTR,A
    604             interestData[5] = AcceptInterest.interestName.DataFlag;
   \   00004F   90....       MOV     DPTR,#AcceptInterest + 4
   \   000052   E0           MOVX    A,@DPTR
   \   000053   C0E0         PUSH    A
   \   000055   7405         MOV     A,#0x5
   \   000057   12....       LCALL   ?XSTACK_DISP0_8
   \   00005A   D0E0         POP     A
   \   00005C   F0           MOVX    @DPTR,A
    605             interestData[6] = HI_UINT16(AcceptInterest.interestName.PackageCounter);
   \   00005D   90....       MOV     DPTR,#AcceptInterest + 7
   \   000060   E0           MOVX    A,@DPTR
   \   000061   C0E0         PUSH    A
   \   000063   7406         MOV     A,#0x6
   \   000065   12....       LCALL   ?XSTACK_DISP0_8
   \   000068   D0E0         POP     A
   \   00006A   F0           MOVX    @DPTR,A
    606             interestData[7] = LO_UINT16(AcceptInterest.interestName.PackageCounter);
   \   00006B   90....       MOV     DPTR,#AcceptInterest + 6
   \   00006E   E0           MOVX    A,@DPTR
   \   00006F   C0E0         PUSH    A
   \   000071   7407         MOV     A,#0x7
   \   000073   12....       LCALL   ?XSTACK_DISP0_8
   \   000076   D0E0         POP     A
   \   000078   F0           MOVX    @DPTR,A
    607             interestData[10] = AcceptInterest.Noce;
   \   000079   90....       MOV     DPTR,#AcceptInterest + 10
   \   00007C   E0           MOVX    A,@DPTR
   \   00007D   C0E0         PUSH    A
   \   00007F   740A         MOV     A,#0xa
   \   000081   12....       LCALL   ?XSTACK_DISP0_8
   \   000084   D0E0         POP     A
   \   000086   F0           MOVX    @DPTR,A
    608             interestData[11] = 0;//保留位
   \   000087   740B         MOV     A,#0xb
   \   000089   12....       LCALL   ?XSTACK_DISP0_8
   \   00008C   E4           CLR     A
   \   00008D   F0           MOVX    @DPTR,A
    609             interestData[12] = layer;//层数 
   \   00008E   90....       MOV     DPTR,#layer
   \   000091   E0           MOVX    A,@DPTR
   \   000092   C0E0         PUSH    A
   \   000094   740C         MOV     A,#0xc
   \   000096   12....       LCALL   ?XSTACK_DISP0_8
   \   000099   D0E0         POP     A
   \   00009B   F0           MOVX    @DPTR,A
    610             interestData[13] = 0;
   \   00009C   740D         MOV     A,#0xd
   \   00009E   12....       LCALL   ?XSTACK_DISP0_8
   \   0000A1   E4           CLR     A
   \   0000A2   F0           MOVX    @DPTR,A
    611             interestData[14] = 0;
   \   0000A3   740E         MOV     A,#0xe
   \   0000A5   12....       LCALL   ?XSTACK_DISP0_8
   \   0000A8   E4           CLR     A
   \   0000A9   F0           MOVX    @DPTR,A
    612             interestData[15] = 0;
   \   0000AA   740F         MOV     A,#0xf
   \   0000AC   12....       LCALL   ?XSTACK_DISP0_8
   \   0000AF   E4           CLR     A
   \   0000B0   F0           MOVX    @DPTR,A
    613             interestData[16] = 0;
   \   0000B1   7410         MOV     A,#0x10
   \   0000B3   12....       LCALL   ?XSTACK_DISP0_8
   \   0000B6   E4           CLR     A
   \   0000B7   F0           MOVX    @DPTR,A
    614             interestData[17] = 0;
   \   0000B8   7411         MOV     A,#0x11
   \   0000BA   12....       LCALL   ?XSTACK_DISP0_8
   \   0000BD   E4           CLR     A
   \   0000BE   F0           MOVX    @DPTR,A
    615             interestData[18] = 0;
   \   0000BF   7412         MOV     A,#0x12
   \   0000C1   12....       LCALL   ?XSTACK_DISP0_8
   \   0000C4   E4           CLR     A
   \   0000C5   F0           MOVX    @DPTR,A
    616             interestData[19] = 0x7E;
   \   0000C6   7413         MOV     A,#0x13
   \   0000C8   12....       LCALL   ?XSTACK_DISP0_8
   \   0000CB   747E         MOV     A,#0x7e
   \   0000CD   F0           MOVX    @DPTR,A
   \   0000CE   EE           MOV     A,R6
   \   0000CF   F8           MOV     R0,A
   \   0000D0   EF           MOV     A,R7
   \   0000D1   F9           MOV     R1,A
   \   0000D2   E8           MOV     A,R0
   \   0000D3   75F016       MOV     B,#0x16
   \   0000D6   A4           MUL     AB
   \   0000D7   F8           MOV     R0,A
   \   0000D8   AAF0         MOV     R2,B
   \   0000DA   75F016       MOV     B,#0x16
   \   0000DD   E9           MOV     A,R1
   \   0000DE   A4           MUL     AB
   \   0000DF   2A           ADD     A,R2
   \   0000E0   F9           MOV     R1,A
   \   0000E1   74..         MOV     A,#ForwardingTable & 0xff
   \   0000E3   28           ADD     A,R0
   \   0000E4   F5..         MOV     ?V0 + 2,A
   \   0000E6   74..         MOV     A,#(ForwardingTable >> 8) & 0xff
   \   0000E8   39           ADDC    A,R1
   \   0000E9   F5..         MOV     ?V0 + 3,A
   \   0000EB   8071         SJMP    ??CrossCallReturnLabel_118
    617               
    618             //被重复使用
    619             while(temp<ForwardingTable[id].OutcomingNumber)
    620             {	
    621                  interestData[8] = HI_UINT16(ForwardingTable[id].OutcomingQueue[id]);//lastID;
   \                     ??ForwardingInterestFromFIB_0:
   \   0000ED   EE           MOV     A,R6
   \   0000EE   F8           MOV     R0,A
   \   0000EF   EF           MOV     A,R7
   \   0000F0   F9           MOV     R1,A
   \   0000F1   E8           MOV     A,R0
   \   0000F2   C3           CLR     C
   \   0000F3   33           RLC     A
   \   0000F4   F8           MOV     R0,A
   \   0000F5   E9           MOV     A,R1
   \   0000F6   33           RLC     A
   \   0000F7   F9           MOV     R1,A
   \   0000F8   E5..         MOV     A,?V0 + 2
   \   0000FA   28           ADD     A,R0
   \   0000FB   F582         MOV     DPL,A
   \   0000FD   E5..         MOV     A,?V0 + 3
   \   0000FF   12....       LCALL   ?Subroutine65 & 0xFFFF
   \                     ??CrossCallReturnLabel_191:
   \   000102   C0E0         PUSH    A
   \   000104   7408         MOV     A,#0x8
   \   000106   12....       LCALL   ?XSTACK_DISP0_8
   \   000109   D0E0         POP     A
   \   00010B   F0           MOVX    @DPTR,A
    622                  interestData[9] = LO_UINT16(ForwardingTable[id].OutcomingQueue[id]); 
   \   00010C   7409         MOV     A,#0x9
   \   00010E   12....       LCALL   ?XSTACK_DISP0_8
   \   000111   EA           MOV     A,R2
   \   000112   F0           MOVX    @DPTR,A
    623                 if ( AF_DataRequest( &SampleApp_Periodic_DstAddr, &SampleApp_epDesc,
    624                                       SAMPLEAPP_INTEREST_CLUSTERID,
    625                                       20,
    626                                       interestData,
    627                                       &SampleApp_TransID,
    628                                       AF_DISCV_ROUTE,
    629                                       AF_DEFAULT_RADIUS ) == afStatus_SUCCESS )
   \   000113                ; Setup parameters for call to function AF_DataRequest
   \   000113   75..1E       MOV     ?V0 + 4,#0x1e
   \   000116   78..         MOV     R0,#?V0 + 4
   \   000118   12....       LCALL   ?PUSH_XSTACK_I_ONE
   \   00011B   75....       MOV     ?V0 + 4,#SampleApp_TransID & 0xff
   \   00011E   75....       MOV     ?V0 + 5,#(SampleApp_TransID >> 8) & 0xff
   \   000121   78..         MOV     R0,#?V0 + 4
   \   000123   12....       LCALL   ?PUSH_XSTACK_I_TWO
   \   000126   7403         MOV     A,#0x3
   \   000128   12....       LCALL   ?XSTACK_DISP0_8
   \   00012B   8582..       MOV     ?V0 + 4,DPL
   \   00012E   8583..       MOV     ?V0 + 5,DPH
   \   000131   78..         MOV     R0,#?V0 + 4
   \   000133   12....       LCALL   ?PUSH_XSTACK_I_TWO
   \   000136   75..14       MOV     ?V0 + 4,#0x14
   \   000139   75..00       MOV     ?V0 + 5,#0x0
   \   00013C   78..         MOV     R0,#?V0 + 4
   \   00013E   12....       LCALL   ?PUSH_XSTACK_I_TWO
   \   000141   75..09       MOV     ?V0 + 4,#0x9
   \   000144   78..         MOV     R0,#?V0 + 4
   \   000146   12....       LCALL   ?PUSH_XSTACK_I_TWO
   \   000149   7920         MOV     R1,#0x20
   \   00014B   7C..         MOV     R4,#SampleApp_epDesc & 0xff
   \   00014D   7D..         MOV     R5,#(SampleApp_epDesc >> 8) & 0xff
   \   00014F   7A..         MOV     R2,#SampleApp_Periodic_DstAddr & 0xff
   \   000151   7B..         MOV     R3,#(SampleApp_Periodic_DstAddr >> 8) & 0xff
   \   000153   12....       LCALL   ??AF_DataRequest?relay
   \   000156   7409         MOV     A,#0x9
   \   000158   12....       LCALL   ?DEALLOC_XSTACK8
    630                   {  
    631                   }
    632                 temp++;
   \   00015B   12....       LCALL   ?Subroutine66 & 0xFFFF
    633             } 
   \                     ??CrossCallReturnLabel_118:
   \   00015E   E5..         MOV     A,?V0 + 2
   \   000160   2410         ADD     A,#0x10
   \   000162   F582         MOV     DPL,A
   \   000164   E5..         MOV     A,?V0 + 3
   \   000166   12....       LCALL   ?Subroutine50 & 0xFFFF
   \                     ??CrossCallReturnLabel_94:
   \   000169   4082         JC      ??ForwardingInterestFromFIB_0
    634          }
   \   00016B                REQUIRE ?Subroutine1
   \   00016B                ; // Fall through to label ?Subroutine1

   \                                 In  segment BANKED_CODE, align 1, keep-with-next
   \                     ?Subroutine1:
   \   000000   7414         MOV     A,#0x14
   \   000002   12....       LCALL   ?DEALLOC_XSTACK8
   \   000005   7F06         MOV     R7,#0x6
   \   000007   02....       LJMP    ?BANKED_LEAVE_XDATA

   \                                 In  segment BANKED_CODE, align 1, keep-with-next
   \                     ?Subroutine66:
   \   000000   E5..         MOV     A,?V0 + 0
   \   000002   2401         ADD     A,#0x1
   \   000004   F5..         MOV     ?V0 + 0,A
   \   000006   E5..         MOV     A,?V0 + 1
   \   000008   3400         ADDC    A,#0x0
   \   00000A   F5..         MOV     ?V0 + 1,A
   \   00000C   22           RET

   \                                 In  segment BANKED_CODE, align 1, keep-with-next
   \                     ?Subroutine65:
   \   000000   12....       LCALL   ?Subroutine99 & 0xFFFF
   \                     ??CrossCallReturnLabel_161:
   \   000003                REQUIRE ??Subroutine121_0
   \   000003                ; // Fall through to label ??Subroutine121_0

   \                                 In  segment BANKED_CODE, align 1, keep-with-next
   \                     ?Subroutine50:
   \   000000   12....       LCALL   ??Subroutine158_0 & 0xFFFF
   \                     ??CrossCallReturnLabel_376:
   \   000003   12....       LCALL   ?Subroutine111 & 0xFFFF
   \                     ??CrossCallReturnLabel_373:
   \   000006   C3           CLR     C
   \   000007   E5..         MOV     A,?V0 + 0
   \   000009   98           SUBB    A,R0
   \   00000A   E5..         MOV     A,?V0 + 1
   \   00000C   99           SUBB    A,R1
   \   00000D   22           RET

   \                                 In  segment BANKED_CODE, align 1, keep-with-next
   \                     ?Subroutine99:
   \   000000   39           ADDC    A,R1
   \   000001   F583         MOV     DPH,A
   \   000003   A3           INC     DPTR
   \   000004   A3           INC     DPTR
   \   000005   A3           INC     DPTR
   \   000006   A3           INC     DPTR
   \   000007   A3           INC     DPTR
   \   000008   A3           INC     DPTR
   \   000009   22           RET
    635          //从PIT表里转发数据包

   \                                 In  segment BANKED_CODE, align 1, keep-with-next
    636          void SendDataFromPIT( uint8 num, Data data)
   \                     SendDataFromPIT:
    637          {
   \   000000   74F2         MOV     A,#-0xe
   \   000002   12....       LCALL   ?BANKED_ENTER_XDATA
   \   000005                ; Saved register size: 14
   \   000005                ; Auto size: 20
   \   000005   74EC         MOV     A,#-0x14
   \   000007   12....       LCALL   ?ALLOC_XSTACK8
    638             int j=0;
    639             uint8 ddata[20];
    640             ddata[0] = 0x7E;
   \   00000A   85..82       MOV     DPL,?XSP + 0
   \   00000D   85..83       MOV     DPH,?XSP + 1
   \   000010   747E         MOV     A,#0x7e
   \   000012   F0           MOVX    @DPTR,A
    641             ddata[1] = 0x45;
   \   000013   7401         MOV     A,#0x1
   \   000015   12....       LCALL   ?XSTACK_DISP0_8
   \   000018   7445         MOV     A,#0x45
   \   00001A   F0           MOVX    @DPTR,A
    642             ddata[2] = 2;//PackageFlag标识包的类型，interest=1,data=2,其他=3
   \   00001B   7402         MOV     A,#0x2
   \   00001D   12....       LCALL   ?XSTACK_DISP0_8
   \   000020   7402         MOV     A,#0x2
   \   000022   F0           MOVX    @DPTR,A
    643             //name
    644             ddata[3] = HI_UINT16(data.interestName.DestinationID);
   \   000023   7424         MOV     A,#0x24
   \   000025   12....       LCALL   ?XSTACK_DISP0_8
   \   000028   12....       LCALL   ??Subroutine121_0 & 0xFFFF
   \                     ??CrossCallReturnLabel_188:
   \   00002B   C0E0         PUSH    A
   \   00002D   7403         MOV     A,#0x3
   \   00002F   12....       LCALL   ?XSTACK_DISP0_8
   \   000032   D0E0         POP     A
   \   000034   F0           MOVX    @DPTR,A
    645             ddata[4] = LO_UINT16(data.interestName.DestinationID);
   \   000035   7404         MOV     A,#0x4
   \   000037   12....       LCALL   ?XSTACK_DISP0_8
   \   00003A   EA           MOV     A,R2
   \   00003B   F0           MOVX    @DPTR,A
    646             ddata[5] = data.interestName.DataFlag; //DataFlag标志需要请求的数据包的类型，温度=1，湿度=2，光照=3，电压=4
   \   00003C   7426         MOV     A,#0x26
   \   00003E   12....       LCALL   ?XSTACK_DISP0_8
   \   000041   E0           MOVX    A,@DPTR
   \   000042   C0E0         PUSH    A
   \   000044   7405         MOV     A,#0x5
   \   000046   12....       LCALL   ?XSTACK_DISP0_8
   \   000049   D0E0         POP     A
   \   00004B   F0           MOVX    @DPTR,A
    647             ddata[6] = HI_UINT16(data.interestName.PackageCounter); //包批次号
   \   00004C   7428         MOV     A,#0x28
   \   00004E   12....       LCALL   ?XSTACK_DISP0_8
   \   000051   12....       LCALL   ??Subroutine121_0 & 0xFFFF
   \                     ??CrossCallReturnLabel_189:
   \   000054   C0E0         PUSH    A
   \   000056   7406         MOV     A,#0x6
   \   000058   12....       LCALL   ?XSTACK_DISP0_8
   \   00005B   D0E0         POP     A
   \   00005D   F0           MOVX    @DPTR,A
    648             ddata[7] = LO_UINT16(data.interestName.PackageCounter);
   \   00005E   7407         MOV     A,#0x7
   \   000060   12....       LCALL   ?XSTACK_DISP0_8
   \   000063   EA           MOV     A,R2
   \   000064   F0           MOVX    @DPTR,A
    649             ddata[8] = HI_UINT16(data.PackageAll);//PackageAll数据包的总个数
   \   000065   7408         MOV     A,#0x8
   \   000067   12....       LCALL   ?XSTACK_DISP0_8
   \   00006A   E4           CLR     A
   \   00006B   F0           MOVX    @DPTR,A
    650             ddata[9] = LO_UINT16(data.PackageAll);
   \   00006C   742A         MOV     A,#0x2a
   \   00006E   12....       LCALL   ?XSTACK_DISP0_8
   \   000071   E0           MOVX    A,@DPTR
   \   000072   C0E0         PUSH    A
   \   000074   7409         MOV     A,#0x9
   \   000076   12....       LCALL   ?XSTACK_DISP0_8
   \   000079   D0E0         POP     A
   \   00007B   F0           MOVX    @DPTR,A
    651             ddata[10] = HI_UINT16(data.PackageSeg); //PackageSeg目前属于第几个包
   \   00007C   740A         MOV     A,#0xa
   \   00007E   12....       LCALL   ?XSTACK_DISP0_8
   \   000081   E4           CLR     A
   \   000082   F0           MOVX    @DPTR,A
    652             ddata[11] = LO_UINT16(data.PackageSeg);
   \   000083   742B         MOV     A,#0x2b
   \   000085   12....       LCALL   ?XSTACK_DISP0_8
   \   000088   E0           MOVX    A,@DPTR
   \   000089   C0E0         PUSH    A
   \   00008B   740B         MOV     A,#0xb
   \   00008D   12....       LCALL   ?XSTACK_DISP0_8
   \   000090   D0E0         POP     A
   \   000092   F0           MOVX    @DPTR,A
    653             ddata[12] = HI_UINT16(data.Data);
   \   000093   742C         MOV     A,#0x2c
   \   000095   12....       LCALL   ?XSTACK_DISP0_8
   \   000098   12....       LCALL   ??Subroutine121_0 & 0xFFFF
   \                     ??CrossCallReturnLabel_190:
   \   00009B   C0E0         PUSH    A
   \   00009D   740C         MOV     A,#0xc
   \   00009F   12....       LCALL   ?XSTACK_DISP0_8
   \   0000A2   D0E0         POP     A
   \   0000A4   F0           MOVX    @DPTR,A
    654             ddata[13] = LO_UINT16(data.Data);
   \   0000A5   740D         MOV     A,#0xd
   \   0000A7   12....       LCALL   ?XSTACK_DISP0_8
   \   0000AA   EA           MOV     A,R2
   \   0000AB   F0           MOVX    @DPTR,A
    655             ddata[16] = 0;
   \   0000AC   7410         MOV     A,#0x10
   \   0000AE   12....       LCALL   ?XSTACK_DISP0_8
   \   0000B1   E4           CLR     A
   \   0000B2   F0           MOVX    @DPTR,A
    656             ddata[17] = 0;
   \   0000B3   7411         MOV     A,#0x11
   \   0000B5   12....       LCALL   ?XSTACK_DISP0_8
   \   0000B8   E4           CLR     A
   \   0000B9   F0           MOVX    @DPTR,A
    657             ddata[18] = 0;
   \   0000BA   7412         MOV     A,#0x12
   \   0000BC   12....       LCALL   ?XSTACK_DISP0_8
   \   0000BF   E4           CLR     A
   \   0000C0   F0           MOVX    @DPTR,A
    658             ddata[19] = 0x7e;
   \   0000C1   7413         MOV     A,#0x13
   \   0000C3   12....       LCALL   ?XSTACK_DISP0_8
   \   0000C6   747E         MOV     A,#0x7e
   \   0000C8   F0           MOVX    @DPTR,A
    659             
    660             for(j=0;j<PendingTable[num].IncomingNumber;j++)
   \   0000C9   75..00       MOV     ?V0 + 0,#0x0
   \   0000CC   75..00       MOV     ?V0 + 1,#0x0
   \   0000CF   E9           MOV     A,R1
   \   0000D0   75F014       MOV     B,#0x14
   \   0000D3   A4           MUL     AB
   \   0000D4   F8           MOV     R0,A
   \   0000D5   A9F0         MOV     R1,B
   \   0000D7   74..         MOV     A,#PendingTable & 0xff
   \   0000D9   28           ADD     A,R0
   \   0000DA   FE           MOV     R6,A
   \   0000DB   74..         MOV     A,#(PendingTable >> 8) & 0xff
   \   0000DD   39           ADDC    A,R1
   \   0000DE   FF           MOV     R7,A
   \   0000DF   806D         SJMP    ??CrossCallReturnLabel_119
   \                     ??SendDataFromPIT_0:
   \   0000E1   E5..         MOV     A,?V0 + 0
   \   0000E3   C3           CLR     C
   \   0000E4   33           RLC     A
   \   0000E5   F8           MOV     R0,A
   \   0000E6   E5..         MOV     A,?V0 + 1
   \   0000E8   33           RLC     A
   \   0000E9   F9           MOV     R1,A
   \   0000EA   EE           MOV     A,R6
   \   0000EB   28           ADD     A,R0
   \   0000EC   F582         MOV     DPL,A
   \   0000EE   EF           MOV     A,R7
   \   0000EF   12....       LCALL   ?Subroutine65 & 0xFFFF
   \                     ??CrossCallReturnLabel_192:
   \   0000F2   C0E0         PUSH    A
   \   0000F4   740E         MOV     A,#0xe
   \   0000F6   12....       LCALL   ?XSTACK_DISP0_8
   \   0000F9   D0E0         POP     A
   \   0000FB   F0           MOVX    @DPTR,A
    661             {
    662                ddata[14] = HI_UINT16(PendingTable[num].IncomingQueue[j]);
    663                ddata[15] = LO_UINT16(PendingTable[num].IncomingQueue[j]);
   \   0000FC   740F         MOV     A,#0xf
   \   0000FE   12....       LCALL   ?XSTACK_DISP0_8
   \   000101   EA           MOV     A,R2
   \   000102   F0           MOVX    @DPTR,A
    664                if ( AF_DataRequest( &SampleApp_Periodic_DstAddr, &SampleApp_epDesc,
    665                                      SAMPLEAPP_DATA_CLUSTERID,
    666                                      20,
    667                                      ddata,
    668                                      &SampleApp_TransID,
    669                                      AF_DISCV_ROUTE,
    670                                      AF_DEFAULT_RADIUS ) == afStatus_SUCCESS )      
   \   000103                ; Setup parameters for call to function AF_DataRequest
   \   000103   75..1E       MOV     ?V0 + 3,#0x1e
   \   000106   78..         MOV     R0,#?V0 + 3
   \   000108   12....       LCALL   ?PUSH_XSTACK_I_ONE
   \   00010B   75....       MOV     ?V0 + 4,#SampleApp_TransID & 0xff
   \   00010E   75....       MOV     ?V0 + 5,#(SampleApp_TransID >> 8) & 0xff
   \   000111   78..         MOV     R0,#?V0 + 4
   \   000113   12....       LCALL   ?PUSH_XSTACK_I_TWO
   \   000116   7403         MOV     A,#0x3
   \   000118   12....       LCALL   ?XSTACK_DISP0_8
   \   00011B   8582..       MOV     ?V0 + 4,DPL
   \   00011E   8583..       MOV     ?V0 + 5,DPH
   \   000121   78..         MOV     R0,#?V0 + 4
   \   000123   12....       LCALL   ?PUSH_XSTACK_I_TWO
   \   000126   75..14       MOV     ?V0 + 4,#0x14
   \   000129   75..00       MOV     ?V0 + 5,#0x0
   \   00012C   78..         MOV     R0,#?V0 + 4
   \   00012E   12....       LCALL   ?PUSH_XSTACK_I_TWO
   \   000131   75..0B       MOV     ?V0 + 4,#0xb
   \   000134   78..         MOV     R0,#?V0 + 4
   \   000136   12....       LCALL   ?PUSH_XSTACK_I_TWO
   \   000139   7920         MOV     R1,#0x20
   \   00013B   7C..         MOV     R4,#SampleApp_epDesc & 0xff
   \   00013D   7D..         MOV     R5,#(SampleApp_epDesc >> 8) & 0xff
   \   00013F   7A..         MOV     R2,#SampleApp_Periodic_DstAddr & 0xff
   \   000141   7B..         MOV     R3,#(SampleApp_Periodic_DstAddr >> 8) & 0xff
   \   000143   12....       LCALL   ??AF_DataRequest?relay
   \   000146   7409         MOV     A,#0x9
   \   000148   12....       LCALL   ?DEALLOC_XSTACK8
    671                {
    672                }
    673                else
    674                {
    675                            // Error occurred in request to send.
    676                }
    677             }   
   \   00014B   12....       LCALL   ?Subroutine66 & 0xFFFF
   \                     ??CrossCallReturnLabel_119:
   \   00014E   EE           MOV     A,R6
   \   00014F   2410         ADD     A,#0x10
   \   000151   F582         MOV     DPL,A
   \   000153   EF           MOV     A,R7
   \   000154   12....       LCALL   ?Subroutine50 & 0xFFFF
   \                     ??CrossCallReturnLabel_95:
   \   000157   4088         JC      ??SendDataFromPIT_0
    678          }
   \   000159   02....       LJMP    ?Subroutine1 & 0xFFFF
    679          //从CS表中发送数据

   \                                 In  segment BANKED_CODE, align 1, keep-with-next
   \                     ?Subroutine0:
   \   000000   F0           MOVX    @DPTR,A
   \   000001                ; Setup parameters for call to function AF_DataRequest
   \   000001                ; Setup parameters for call to function AF_DataRequest
   \   000001   75..1E       MOV     ?V0 + 0,#0x1e
   \   000004   78..         MOV     R0,#?V0 + 0
   \   000006   12....       LCALL   ?PUSH_XSTACK_I_ONE
   \   000009   75....       MOV     ?V0 + 0,#SampleApp_TransID & 0xff
   \   00000C   75....       MOV     ?V0 + 1,#(SampleApp_TransID >> 8) & 0xff
   \   00000F   78..         MOV     R0,#?V0 + 0
   \   000011   12....       LCALL   ?PUSH_XSTACK_I_TWO
   \   000014   7403         MOV     A,#0x3
   \   000016   12....       LCALL   ?XSTACK_DISP0_8
   \   000019   8582..       MOV     ?V0 + 0,DPL
   \   00001C   8583..       MOV     ?V0 + 1,DPH
   \   00001F   78..         MOV     R0,#?V0 + 0
   \   000021   12....       LCALL   ?PUSH_XSTACK_I_TWO
   \   000024   75..14       MOV     ?V0 + 0,#0x14
   \   000027   75..00       MOV     ?V0 + 1,#0x0
   \   00002A   78..         MOV     R0,#?V0 + 0
   \   00002C   12....       LCALL   ?PUSH_XSTACK_I_TWO
   \   00002F   75..0B       MOV     ?V0 + 0,#0xb
   \   000032                REQUIRE ??Subroutine117_0
   \   000032                ; // Fall through to label ??Subroutine117_0

   \                                 In  segment BANKED_CODE, align 1, keep-with-next
    680          void SampleApp_SendDataFromCS( uint16 num,uint16 Addr)
   \                     SampleApp_SendDataFromCS:
    681          {
   \   000000   74F6         MOV     A,#-0xa
   \   000002   12....       LCALL   ?BANKED_ENTER_XDATA
   \   000005                ; Saved register size: 10
   \   000005                ; Auto size: 20
   \   000005   74EC         MOV     A,#-0x14
   \   000007   12....       LCALL   ?ALLOC_XSTACK8
    682             uint8 CSData[20];
    683             CSData[0] = 0x7E;
   \   00000A   85..82       MOV     DPL,?XSP + 0
   \   00000D   85..83       MOV     DPH,?XSP + 1
   \   000010   747E         MOV     A,#0x7e
   \   000012   F0           MOVX    @DPTR,A
    684             CSData[1] = 0X45;
   \   000013   7401         MOV     A,#0x1
   \   000015   12....       LCALL   ?XSTACK_DISP0_8
   \   000018   7445         MOV     A,#0x45
   \   00001A   F0           MOVX    @DPTR,A
    685             CSData[2] = 2;
   \   00001B   7402         MOV     A,#0x2
   \   00001D   12....       LCALL   ?XSTACK_DISP0_8
   \   000020   7402         MOV     A,#0x2
   \   000022   F0           MOVX    @DPTR,A
    686             CSData[3] = HI_UINT16(ContentStore[num].interestName.DestinationID);
   \   000023   EA           MOV     A,R2
   \   000024   75F00E       MOV     B,#0xe
   \   000027   A4           MUL     AB
   \   000028   FA           MOV     R2,A
   \   000029   A8F0         MOV     R0,B
   \   00002B   75F00E       MOV     B,#0xe
   \   00002E   EB           MOV     A,R3
   \   00002F   A4           MUL     AB
   \   000030   28           ADD     A,R0
   \   000031   FB           MOV     R3,A
   \   000032   74..         MOV     A,#ContentStore & 0xff
   \   000034   2A           ADD     A,R2
   \   000035   F8           MOV     R0,A
   \   000036   74..         MOV     A,#(ContentStore >> 8) & 0xff
   \   000038   3B           ADDC    A,R3
   \   000039   F9           MOV     R1,A
   \   00003A   8882         MOV     DPL,R0
   \   00003C   8983         MOV     DPH,R1
   \   00003E   12....       LCALL   ??Subroutine142_0 & 0xFFFF
   \                     ??CrossCallReturnLabel_288:
   \   000041   C0E0         PUSH    A
   \   000043   7403         MOV     A,#0x3
   \   000045   12....       LCALL   ?XSTACK_DISP0_8
   \   000048   D0E0         POP     A
   \   00004A   F0           MOVX    @DPTR,A
    687             CSData[4] = LO_UINT16(ContentStore[num].interestName.DestinationID);
   \   00004B   7404         MOV     A,#0x4
   \   00004D   12....       LCALL   ?XSTACK_DISP0_8
   \   000050   EE           MOV     A,R6
   \   000051   12....       LCALL   ?Subroutine38 & 0xFFFF
    688             CSData[5] = ContentStore[num].interestName.DataFlag;
   \                     ??CrossCallReturnLabel_70:
   \   000054   A3           INC     DPTR
   \   000055   A3           INC     DPTR
   \   000056   E0           MOVX    A,@DPTR
   \   000057   C0E0         PUSH    A
   \   000059   7405         MOV     A,#0x5
   \   00005B   12....       LCALL   ?XSTACK_DISP0_8
   \   00005E   D0E0         POP     A
   \   000060   12....       LCALL   ?Subroutine38 & 0xFFFF
   \                     ??CrossCallReturnLabel_71:
   \   000063   A3           INC     DPTR
   \   000064   A3           INC     DPTR
   \   000065   A3           INC     DPTR
   \   000066   A3           INC     DPTR
   \   000067   12....       LCALL   ??Subroutine142_0 & 0xFFFF
   \                     ??CrossCallReturnLabel_289:
   \   00006A   C0E0         PUSH    A
   \   00006C   7406         MOV     A,#0x6
   \   00006E   12....       LCALL   ?XSTACK_DISP0_8
   \   000071   D0E0         POP     A
   \   000073   F0           MOVX    @DPTR,A
    689             CSData[6] = HI_UINT16(ContentStore[num].interestName.PackageCounter);
    690             CSData[7] = LO_UINT16(ContentStore[num].interestName.PackageCounter);
   \   000074   7407         MOV     A,#0x7
   \   000076   12....       LCALL   ?XSTACK_DISP0_8
   \   000079   EE           MOV     A,R6
   \   00007A   12....       LCALL   ?Subroutine29 & 0xFFFF
   \                     ??CrossCallReturnLabel_55:
   \   00007D   FE           MOV     R6,A
   \   00007E   A3           INC     DPTR
   \   00007F   E0           MOVX    A,@DPTR
   \   000080   C0E0         PUSH    A
   \   000082   7408         MOV     A,#0x8
   \   000084   12....       LCALL   ?XSTACK_DISP0_8
   \   000087   D0E0         POP     A
   \   000089   F0           MOVX    @DPTR,A
    691             //CS存储其他内容
    692             CSData[8] = HI_UINT16(ContentStore[num].PackageAll);
    693             CSData[9] = LO_UINT16(ContentStore[num].PackageAll);        
   \   00008A   7409         MOV     A,#0x9
   \   00008C   12....       LCALL   ?XSTACK_DISP0_8
   \   00008F   12....       LCALL   ?Subroutine25 & 0xFFFF
   \                     ??CrossCallReturnLabel_42:
   \   000092   12....       LCALL   ??Subroutine142_0 & 0xFFFF
   \                     ??CrossCallReturnLabel_290:
   \   000095   C0E0         PUSH    A
   \   000097   740A         MOV     A,#0xa
   \   000099   12....       LCALL   ?XSTACK_DISP0_8
   \   00009C   D0E0         POP     A
   \   00009E   F0           MOVX    @DPTR,A
    694             CSData[10] = HI_UINT16(ContentStore[num].PackageSeg);
    695             CSData[11] = LO_UINT16(ContentStore[num].PackageSeg);
   \   00009F   740B         MOV     A,#0xb
   \   0000A1   12....       LCALL   ?XSTACK_DISP0_8
   \   0000A4   12....       LCALL   ?Subroutine25 & 0xFFFF
   \                     ??CrossCallReturnLabel_43:
   \   0000A7   A3           INC     DPTR
   \   0000A8   A3           INC     DPTR
   \   0000A9   12....       LCALL   ??Subroutine142_0 & 0xFFFF
   \                     ??CrossCallReturnLabel_291:
   \   0000AC   C0E0         PUSH    A
   \   0000AE   740C         MOV     A,#0xc
   \   0000B0   12....       LCALL   ?XSTACK_DISP0_8
   \   0000B3   D0E0         POP     A
   \   0000B5   F0           MOVX    @DPTR,A
    696             CSData[12] = HI_UINT16(ContentStore[num].Data);
    697             CSData[13] = LO_UINT16(ContentStore[num].Data);
   \   0000B6   740D         MOV     A,#0xd
   \   0000B8   12....       LCALL   ?XSTACK_DISP0_8
   \   0000BB   EE           MOV     A,R6
   \   0000BC   F0           MOVX    @DPTR,A
    698             CSData[14] = HI_UINT16(Addr);
   \   0000BD   740E         MOV     A,#0xe
   \   0000BF   12....       LCALL   ?XSTACK_DISP0_8
   \   0000C2   ED           MOV     A,R5
   \   0000C3   F0           MOVX    @DPTR,A
    699             CSData[15] = LO_UINT16(Addr);
   \   0000C4   740F         MOV     A,#0xf
   \   0000C6   12....       LCALL   ?XSTACK_DISP0_8
   \   0000C9   EC           MOV     A,R4
   \   0000CA   F0           MOVX    @DPTR,A
    700             CSData[16] = 0;
   \   0000CB   7410         MOV     A,#0x10
   \   0000CD   12....       LCALL   ?XSTACK_DISP0_8
   \   0000D0   E4           CLR     A
   \   0000D1   F0           MOVX    @DPTR,A
    701             CSData[17] = 0;
   \   0000D2   7411         MOV     A,#0x11
   \   0000D4   12....       LCALL   ?XSTACK_DISP0_8
   \   0000D7   E4           CLR     A
   \   0000D8   F0           MOVX    @DPTR,A
    702             CSData[18] = 0;  
   \   0000D9   7412         MOV     A,#0x12
   \   0000DB   12....       LCALL   ?XSTACK_DISP0_8
   \   0000DE   E4           CLR     A
   \   0000DF   F0           MOVX    @DPTR,A
    703             CSData[19] = 0x7E;
   \   0000E0   7413         MOV     A,#0x13
   \   0000E2   12....       LCALL   ?XSTACK_DISP0_8
   \   0000E5   747E         MOV     A,#0x7e
   \   0000E7   F0           MOVX    @DPTR,A
    704             ++ContentStore[num].number;
   \   0000E8   12....       LCALL   ?Subroutine68 & 0xFFFF
   \                     ??CrossCallReturnLabel_221:
   \   0000EB   12....       LCALL   ??Subroutine136_0 & 0xFFFF
   \                     ??CrossCallReturnLabel_249:
   \   0000EE   02....       LJMP    ?Subroutine0 & 0xFFFF
    705             
    706             if ( AF_DataRequest( &SampleApp_Periodic_DstAddr, &SampleApp_epDesc,
    707                                      SAMPLEAPP_DATA_CLUSTERID,
    708                                 20,
    709                                 CSData,
    710                                 &SampleApp_TransID,
    711                                 AF_DISCV_ROUTE,
    712                                 AF_DEFAULT_RADIUS ) == afStatus_SUCCESS )
    713             {
    714             }
    715             else
    716             {
    717               // Error occurred in request to send.
    718             }
    719          }

   \                                 In  segment BANKED_CODE, align 1, keep-with-next
   \                     ?Subroutine25:
   \   000000   EE           MOV     A,R6
   \   000001   12....       LCALL   ?Subroutine80 & 0xFFFF
   \                     ??CrossCallReturnLabel_137:
   \   000004   22           RET

   \                                 In  segment BANKED_CODE, align 1, keep-with-next
   \                     ?Subroutine68:
   \   000000   E8           MOV     A,R0
   \   000001   240C         ADD     A,#0xc
   \   000003                REQUIRE ??Subroutine128_0
   \   000003                ; // Fall through to label ??Subroutine128_0

   \                                 In  segment BANKED_CODE, align 1, keep-with-next
   \                     ??Subroutine128_0:
   \   000000   F582         MOV     DPL,A
   \   000002   E9           MOV     A,R1
   \   000003                REQUIRE ??Subroutine129_0
   \   000003                ; // Fall through to label ??Subroutine129_0

   \                                 In  segment BANKED_CODE, align 1, keep-with-next
   \                     ??Subroutine142_0:
   \   000000   E0           MOVX    A,@DPTR
   \   000001   FE           MOV     R6,A
   \   000002   A3           INC     DPTR
   \   000003   E0           MOVX    A,@DPTR
   \   000004   22           RET
    720          
    721          //回ACK包

   \                                 In  segment BANKED_CODE, align 1, keep-with-next
    722          void SampleApp_AckMessage_Send(int lastid)
   \                     SampleApp_AckMessage_Send:
    723          {
   \   000000   74F6         MOV     A,#-0xa
   \   000002   12....       LCALL   ?BANKED_ENTER_XDATA
   \   000005                ; Saved register size: 10
   \   000005                ; Auto size: 20
   \   000005   74EC         MOV     A,#-0x14
   \   000007   12....       LCALL   ?ALLOC_XSTACK8
    724            uint8 AckData[20];
    725            AckData[0] = 0x7E;
   \   00000A   85..82       MOV     DPL,?XSP + 0
   \   00000D   85..83       MOV     DPH,?XSP + 1
   \   000010   747E         MOV     A,#0x7e
   \   000012   F0           MOVX    @DPTR,A
    726            AckData[1] = 0x45;
   \   000013   7401         MOV     A,#0x1
   \   000015   12....       LCALL   ?XSTACK_DISP0_8
   \   000018   7445         MOV     A,#0x45
   \   00001A   F0           MOVX    @DPTR,A
    727            AckData[2] = 3;//Ack为3
   \   00001B   7402         MOV     A,#0x2
   \   00001D   12....       LCALL   ?XSTACK_DISP0_8
   \   000020   7403         MOV     A,#0x3
   \   000022   12....       LCALL   ?Subroutine15 & 0xFFFF
    728            AckData[3] = HI_UINT16(NodeId);
   \                     ??CrossCallReturnLabel_23:
   \   000025   12....       LCALL   ?SS_SHR
   \   000028   7403         MOV     A,#0x3
   \   00002A   12....       LCALL   ?XSTACK_DISP0_8
   \   00002D   12....       LCALL   ?Subroutine37 & 0xFFFF
    729            AckData[4] = LO_UINT16(NodeId);
   \                     ??CrossCallReturnLabel_66:
   \   000030   C0E0         PUSH    A
   \   000032   7404         MOV     A,#0x4
   \   000034   12....       LCALL   ?XSTACK_DISP0_8
   \   000037   D0E0         POP     A
   \   000039   F0           MOVX    @DPTR,A
    730            AckData[5] = HI_UINT16(lastid);
   \   00003A   8A..         MOV     ?V0 + 0,R2
   \   00003C   8B..         MOV     ?V0 + 1,R3
   \   00003E   7408         MOV     A,#0x8
   \   000040   78..         MOV     R0,#?V0 + 0
   \   000042   12....       LCALL   ?SS_SHR
   \   000045   7405         MOV     A,#0x5
   \   000047   12....       LCALL   ?XSTACK_DISP0_8
   \   00004A   E5..         MOV     A,?V0 + 0
   \   00004C   F0           MOVX    @DPTR,A
    731            AckData[6] = LO_UINT16(lastid);
   \   00004D   7406         MOV     A,#0x6
   \   00004F   12....       LCALL   ?XSTACK_DISP0_8
   \   000052   EA           MOV     A,R2
   \   000053   F0           MOVX    @DPTR,A
    732            AckData[7] = 0;
   \   000054   7407         MOV     A,#0x7
   \   000056   12....       LCALL   ?XSTACK_DISP0_8
   \   000059   E4           CLR     A
   \   00005A   F0           MOVX    @DPTR,A
    733            AckData[8] = 0;
   \   00005B   7408         MOV     A,#0x8
   \   00005D   12....       LCALL   ?XSTACK_DISP0_8
   \   000060   E4           CLR     A
   \   000061   F0           MOVX    @DPTR,A
    734            AckData[9] = 0;
   \   000062   7409         MOV     A,#0x9
   \   000064   12....       LCALL   ?XSTACK_DISP0_8
   \   000067   E4           CLR     A
   \   000068   F0           MOVX    @DPTR,A
    735            AckData[10] = 0;
   \   000069   740A         MOV     A,#0xa
   \   00006B   12....       LCALL   ?XSTACK_DISP0_8
   \   00006E   E4           CLR     A
   \   00006F   F0           MOVX    @DPTR,A
    736            AckData[11] = 0;
   \   000070   740B         MOV     A,#0xb
   \   000072   12....       LCALL   ?XSTACK_DISP0_8
   \   000075   E4           CLR     A
   \   000076   F0           MOVX    @DPTR,A
    737            AckData[12] = 0;
   \   000077   740C         MOV     A,#0xc
   \   000079   12....       LCALL   ?XSTACK_DISP0_8
   \   00007C   E4           CLR     A
   \   00007D   F0           MOVX    @DPTR,A
    738            AckData[13] = 0;
   \   00007E   740D         MOV     A,#0xd
   \   000080   12....       LCALL   ?XSTACK_DISP0_8
   \   000083   E4           CLR     A
   \   000084   F0           MOVX    @DPTR,A
    739            AckData[14] = 0;
   \   000085   740E         MOV     A,#0xe
   \   000087   12....       LCALL   ?XSTACK_DISP0_8
   \   00008A   E4           CLR     A
   \   00008B   F0           MOVX    @DPTR,A
    740            AckData[15] = 0;
   \   00008C   740F         MOV     A,#0xf
   \   00008E   12....       LCALL   ?XSTACK_DISP0_8
   \   000091   E4           CLR     A
   \   000092   F0           MOVX    @DPTR,A
    741            AckData[16] = 0;
   \   000093   7410         MOV     A,#0x10
   \   000095   12....       LCALL   ?XSTACK_DISP0_8
   \   000098   E4           CLR     A
   \   000099   F0           MOVX    @DPTR,A
    742            AckData[17] = 0;
   \   00009A   7411         MOV     A,#0x11
   \   00009C   12....       LCALL   ?XSTACK_DISP0_8
   \   00009F   E4           CLR     A
   \   0000A0   F0           MOVX    @DPTR,A
    743            AckData[18] = 0;
   \   0000A1   7412         MOV     A,#0x12
   \   0000A3   12....       LCALL   ?XSTACK_DISP0_8
   \   0000A6   E4           CLR     A
   \   0000A7   F0           MOVX    @DPTR,A
    744            AckData[19] = 0x7E;
   \   0000A8   7413         MOV     A,#0x13
   \   0000AA   12....       LCALL   ?XSTACK_DISP0_8
   \   0000AD   747E         MOV     A,#0x7e
   \   0000AF   F0           MOVX    @DPTR,A
    745            if ( AF_DataRequest( &SampleApp_Periodic_DstAddr, &SampleApp_epDesc,
    746                                 SAMPLEAPP_ACK_CLUSTERID,
    747                                 20,
    748                                 AckData,
    749                                 &SampleApp_TransID,
    750                                 AF_DISCV_ROUTE,
    751                                 AF_DEFAULT_RADIUS ) == afStatus_SUCCESS )
   \   0000B0                ; Setup parameters for call to function AF_DataRequest
   \   0000B0   75..1E       MOV     ?V0 + 0,#0x1e
   \   0000B3   78..         MOV     R0,#?V0 + 0
   \   0000B5   12....       LCALL   ?PUSH_XSTACK_I_ONE
   \   0000B8   75....       MOV     ?V0 + 0,#SampleApp_TransID & 0xff
   \   0000BB   75....       MOV     ?V0 + 1,#(SampleApp_TransID >> 8) & 0xff
   \   0000BE   78..         MOV     R0,#?V0 + 0
   \   0000C0   12....       LCALL   ?PUSH_XSTACK_I_TWO
   \   0000C3   7403         MOV     A,#0x3
   \   0000C5   12....       LCALL   ?XSTACK_DISP0_8
   \   0000C8   8582..       MOV     ?V0 + 0,DPL
   \   0000CB   8583..       MOV     ?V0 + 1,DPH
   \   0000CE   78..         MOV     R0,#?V0 + 0
   \   0000D0   12....       LCALL   ?PUSH_XSTACK_I_TWO
   \   0000D3   75..14       MOV     ?V0 + 0,#0x14
   \   0000D6   75..00       MOV     ?V0 + 1,#0x0
   \   0000D9   78..         MOV     R0,#?V0 + 0
   \   0000DB   12....       LCALL   ?PUSH_XSTACK_I_TWO
   \   0000DE   75..0A       MOV     ?V0 + 0,#0xa
   \   0000E1   02....       LJMP    ??Subroutine117_0 & 0xFFFF
    752             {
    753             }
    754             else
    755             { }     
    756          }
    757          //直接回数据包

   \                                 In  segment BANKED_CODE, align 1, keep-with-next
    758          void SampleApp_DataMessage_Send(int id,int counter)
   \                     SampleApp_DataMessage_Send:
    759          {
   \   000000   74F6         MOV     A,#-0xa
   \   000002   12....       LCALL   ?BANKED_ENTER_XDATA
   \   000005                ; Saved register size: 10
   \   000005                ; Auto size: 20
   \   000005   74EC         MOV     A,#-0x14
   \   000007   12....       LCALL   ?ALLOC_XSTACK8
   \   00000A   EA           MOV     A,R2
   \   00000B   FE           MOV     R6,A
   \   00000C   EB           MOV     A,R3
   \   00000D   FF           MOV     R7,A
    760             num++;
   \   00000E   90....       MOV     DPTR,#num
   \   000011   12....       LCALL   ??Subroutine135_0 & 0xFFFF
    761             uint8 data[20];
    762             data[0] = 0x7E;
   \                     ??CrossCallReturnLabel_238:
   \   000014   85..82       MOV     DPL,?XSP + 0
   \   000017   85..83       MOV     DPH,?XSP + 1
   \   00001A   747E         MOV     A,#0x7e
   \   00001C   F0           MOVX    @DPTR,A
    763             data[1] = 0x45;
   \   00001D   7401         MOV     A,#0x1
   \   00001F   12....       LCALL   ?XSTACK_DISP0_8
   \   000022   7445         MOV     A,#0x45
   \   000024   F0           MOVX    @DPTR,A
    764             data[2] = 2;//PackageFlag标识包的类型，interest=1,data=2,其他=3
   \   000025   7402         MOV     A,#0x2
   \   000027   12....       LCALL   ?XSTACK_DISP0_8
   \   00002A   7402         MOV     A,#0x2
   \   00002C   12....       LCALL   ?Subroutine15 & 0xFFFF
    765             //name
    766             data[3] = HI_UINT16(NodeId);
   \                     ??CrossCallReturnLabel_24:
   \   00002F   12....       LCALL   ?SS_SHR
   \   000032   7403         MOV     A,#0x3
   \   000034   12....       LCALL   ?XSTACK_DISP0_8
   \   000037   12....       LCALL   ?Subroutine37 & 0xFFFF
    767             data[4] = LO_UINT16(NodeId);
   \                     ??CrossCallReturnLabel_67:
   \   00003A   C0E0         PUSH    A
   \   00003C   7404         MOV     A,#0x4
   \   00003E   12....       LCALL   ?XSTACK_DISP0_8
   \   000041   D0E0         POP     A
   \   000043   F0           MOVX    @DPTR,A
    768             data[5] = 4; //DataFlag标志需要请求的数据包的类型，温度=1，湿度=2，光照=3，电压=4
   \   000044   7405         MOV     A,#0x5
   \   000046   12....       LCALL   ?XSTACK_DISP0_8
   \   000049   7404         MOV     A,#0x4
   \   00004B   F0           MOVX    @DPTR,A
    769             data[6] = HI_UINT16(counter); //包批次号
   \   00004C   8C..         MOV     ?V0 + 0,R4
   \   00004E   8D..         MOV     ?V0 + 1,R5
   \   000050   7408         MOV     A,#0x8
   \   000052   78..         MOV     R0,#?V0 + 0
   \   000054   12....       LCALL   ?SS_SHR
   \   000057   7406         MOV     A,#0x6
   \   000059   12....       LCALL   ?XSTACK_DISP0_8
   \   00005C   E5..         MOV     A,?V0 + 0
   \   00005E   F0           MOVX    @DPTR,A
    770             data[7] = LO_UINT16(counter);
   \   00005F   7407         MOV     A,#0x7
   \   000061   12....       LCALL   ?XSTACK_DISP0_8
   \   000064   EC           MOV     A,R4
   \   000065   F0           MOVX    @DPTR,A
    771             data[8] = HI_UINT16(num);//PackageAll数据包的总个数
   \   000066   90....       MOV     DPTR,#num + 1
   \   000069   E0           MOVX    A,@DPTR
   \   00006A   FA           MOV     R2,A
   \   00006B   7408         MOV     A,#0x8
   \   00006D   12....       LCALL   ?XSTACK_DISP0_8
   \   000070   EA           MOV     A,R2
   \   000071   F0           MOVX    @DPTR,A
    772             data[9] = LO_UINT16(num);
   \   000072   90....       MOV     DPTR,#num
   \   000075   E0           MOVX    A,@DPTR
   \   000076   C0E0         PUSH    A
   \   000078   7409         MOV     A,#0x9
   \   00007A   12....       LCALL   ?XSTACK_DISP0_8
   \   00007D   D0E0         POP     A
   \   00007F   F0           MOVX    @DPTR,A
    773             data[10] = HI_UINT16(num); //PackageSeg目前属于第几个包
   \   000080   740A         MOV     A,#0xa
   \   000082   12....       LCALL   ?XSTACK_DISP0_8
   \   000085   EA           MOV     A,R2
   \   000086   F0           MOVX    @DPTR,A
    774             data[11] = LO_UINT16(num);
   \   000087   90....       MOV     DPTR,#num
   \   00008A   E0           MOVX    A,@DPTR
   \   00008B   C0E0         PUSH    A
   \   00008D   740B         MOV     A,#0xb
   \   00008F   12....       LCALL   ?XSTACK_DISP0_8
   \   000092   D0E0         POP     A
   \   000094   F0           MOVX    @DPTR,A
    775             uint16 voltage = getADC();
   \   000095                ; Setup parameters for call to function getADC
   \   000095   12....       LCALL   ??getADC?relay
    776             data[12] = HI_UINT16(voltage);
   \   000098   740C         MOV     A,#0xc
   \   00009A   12....       LCALL   ?XSTACK_DISP0_8
   \   00009D   EB           MOV     A,R3
   \   00009E   F0           MOVX    @DPTR,A
    777             data[13] = LO_UINT16(voltage);
   \   00009F   740D         MOV     A,#0xd
   \   0000A1   12....       LCALL   ?XSTACK_DISP0_8
   \   0000A4   EA           MOV     A,R2
   \   0000A5   F0           MOVX    @DPTR,A
    778             data[14] = HI_UINT16(id);//数据包的目的id
   \   0000A6   8E..         MOV     ?V0 + 0,R6
   \   0000A8   8F..         MOV     ?V0 + 1,R7
   \   0000AA   7408         MOV     A,#0x8
   \   0000AC   78..         MOV     R0,#?V0 + 0
   \   0000AE   12....       LCALL   ?SS_SHR
   \   0000B1   740E         MOV     A,#0xe
   \   0000B3   12....       LCALL   ?XSTACK_DISP0_8
   \   0000B6   E5..         MOV     A,?V0 + 0
   \   0000B8   F0           MOVX    @DPTR,A
    779             data[15] = LO_UINT16(id);
   \   0000B9   740F         MOV     A,#0xf
   \   0000BB   12....       LCALL   ?XSTACK_DISP0_8
   \   0000BE   EE           MOV     A,R6
   \   0000BF   F0           MOVX    @DPTR,A
    780             data[16] = 0;
   \   0000C0   7410         MOV     A,#0x10
   \   0000C2   12....       LCALL   ?XSTACK_DISP0_8
   \   0000C5   E4           CLR     A
   \   0000C6   F0           MOVX    @DPTR,A
    781             data[17] = 0;
   \   0000C7   7411         MOV     A,#0x11
   \   0000C9   12....       LCALL   ?XSTACK_DISP0_8
   \   0000CC   E4           CLR     A
   \   0000CD   F0           MOVX    @DPTR,A
    782             data[18] = 0;
   \   0000CE   7412         MOV     A,#0x12
   \   0000D0   12....       LCALL   ?XSTACK_DISP0_8
   \   0000D3   E4           CLR     A
   \   0000D4   F0           MOVX    @DPTR,A
    783             data[19] = 0x7e;
   \   0000D5   7413         MOV     A,#0x13
   \   0000D7   12....       LCALL   ?XSTACK_DISP0_8
   \   0000DA   747E         MOV     A,#0x7e
   \   0000DC   02....       LJMP    ?Subroutine0 & 0xFFFF
    784             
    785             if ( AF_DataRequest( &SampleApp_Periodic_DstAddr, &SampleApp_epDesc,
    786                                      SAMPLEAPP_DATA_CLUSTERID,
    787                                 20,
    788                                 data,
    789                                 &SampleApp_TransID,
    790                                 AF_DISCV_ROUTE,
    791                                 AF_DEFAULT_RADIUS ) == afStatus_SUCCESS )
    792             {
    793             }
    794             else
    795             {
    796                 // Error occurred in request to send.
    797             }
    798          }

   \                                 In  segment BANKED_CODE, align 1, keep-with-next
   \                     ??Subroutine135_0:
   \   000000   12....       LCALL   ?Subroutine78 & 0xFFFF
   \                     ??CrossCallReturnLabel_276:
   \   000003   22           RET
    799          
    800          
    801          
    802          
    803          /*********************************************************************
    804          *********************************************************************/
    805          //NDN相关表的操作
    806          //插入CS表

   \                                 In  segment BANKED_CODE, align 1, keep-with-next
    807          void InsertContentStore(Data data)
   \                     InsertContentStore:
    808          {
   \   000000   C082         PUSH    DPL
   \   000002   C083         PUSH    DPH
   \   000004                ; Saved register size: 2
   \   000004                ; Auto size: 0
    809            uint8 temp;	
    810           //若CS表未满
    811            if(CScounter<10)
   \   000004   90....       MOV     DPTR,#CScounter
   \   000007   12....       LCALL   ?Subroutine45 & 0xFFFF
   \                     ??CrossCallReturnLabel_82:
   \   00000A   504C         JNC     ??InsertContentStore_0
    812            {
    813              //CS存储Interest相关内容
    814              ContentStore[CScounter].interestName.DestinationID=data.interestName.DestinationID;
   \   00000C   90....       MOV     DPTR,#CScounter
   \   00000F   12....       LCALL   ?Subroutine42 & 0xFFFF
   \                     ??CrossCallReturnLabel_78:
   \   000012   7402         MOV     A,#0x2
   \   000014   12....       LCALL   ?XSTACK_DISP0_8
   \   000017   12....       LCALL   ??Subroutine130_0 & 0xFFFF
   \                     ??CrossCallReturnLabel_223:
   \   00001A   12....       LCALL   ??Subroutine123_0 & 0xFFFF
    815              ContentStore[CScounter].interestName.DataFlag=data.interestName.DataFlag;	
   \                     ??CrossCallReturnLabel_194:
   \   00001D   7404         MOV     A,#0x4
   \   00001F   12....       LCALL   ?XSTACK_DISP0_8
   \   000022   12....       LCALL   ??Subroutine130_0 & 0xFFFF
   \                     ??CrossCallReturnLabel_224:
   \   000025   12....       LCALL   ??Subroutine122_0 & 0xFFFF
    816              ContentStore[CScounter].interestName.PackageCounter=data.interestName.PackageCounter;
   \                     ??CrossCallReturnLabel_197:
   \   000028   7406         MOV     A,#0x6
   \   00002A   12....       LCALL   ?XSTACK_DISP0_8
   \   00002D   12....       LCALL   ?Subroutine34 & 0xFFFF
    817              //CS存储其他内容
    818              ContentStore[CScounter].PackageAll=data.PackageAll;
   \                     ??CrossCallReturnLabel_199:
   \   000030   7408         MOV     A,#0x8
   \   000032   12....       LCALL   ?XSTACK_DISP0_8
   \   000035   12....       LCALL   ?Subroutine56 & 0xFFFF
   \                     ??CrossCallReturnLabel_100:
   \   000038   12....       LCALL   ??Subroutine146_0 & 0xFFFF
    819              ContentStore[CScounter].PackageSeg=data.PackageSeg;
   \                     ??CrossCallReturnLabel_311:
   \   00003B   7409         MOV     A,#0x9
   \   00003D   12....       LCALL   ?XSTACK_DISP0_8
   \   000040   12....       LCALL   ?Subroutine49 & 0xFFFF
   \                     ??CrossCallReturnLabel_92:
   \   000043   12....       LCALL   ??Subroutine146_0 & 0xFFFF
    820              ContentStore[CScounter].Data=data.Data;
   \                     ??CrossCallReturnLabel_312:
   \   000046   740A         MOV     A,#0xa
   \   000048   12....       LCALL   ?XSTACK_DISP0_8
   \   00004B   12....       LCALL   ?Subroutine18 & 0xFFFF
    821              ContentStore[CScounter].number=0;	
   \                     ??CrossCallReturnLabel_29:
   \   00004E   F0           MOVX    @DPTR,A
    822              CScounter = CScounter+1;
   \   00004F   90....       MOV     DPTR,#CScounter
   \   000052   12....       LCALL   ??Subroutine136_0 & 0xFFFF
    823            }
   \                     ??CrossCallReturnLabel_250:
   \   000055   02....       LJMP    ??CrossCallReturnLabel_30 & 0xFFFF
    824            //若CS表已经装满，需要使用替换策略进行替换，我们使用LRU(最近最少使用)
    825            else
    826            {	
    827              temp=0;
   \                     ??InsertContentStore_0:
   \   000058   7D00         MOV     R5,#0x0
    828              for(int temp_i=1;temp_i<ContentStoreNumber;++temp_i)
   \   00005A   7801         MOV     R0,#0x1
   \   00005C   7900         MOV     R1,#0x0
    829              {   
    830                   if(ContentStore[temp].number > ContentStore[temp_i].number)
   \                     ??InsertContentStore_1:
   \   00005E   12....       LCALL   ?Subroutine69 & 0xFFFF
   \                     ??CrossCallReturnLabel_214:
   \   000061   C082         PUSH    DPL
   \   000063   C083         PUSH    DPH
   \   000065   ED           MOV     A,R5
   \   000066   75F00E       MOV     B,#0xe
   \   000069   A4           MUL     AB
   \   00006A   FA           MOV     R2,A
   \   00006B   ABF0         MOV     R3,B
   \   00006D   12....       LCALL   ??Subroutine127_0 & 0xFFFF
   \                     ??CrossCallReturnLabel_212:
   \   000070   12....       LCALL   ??Subroutine125_0 & 0xFFFF
   \                     ??CrossCallReturnLabel_203:
   \   000073   D083         POP     DPH
   \   000075   D082         POP     DPL
   \   000077   12....       LCALL   ?Subroutine61 & 0xFFFF
   \                     ??CrossCallReturnLabel_111:
   \   00007A   5002         JNC     ??InsertContentStore_2
    831                       temp=temp_i;
   \   00007C   E8           MOV     A,R0
   \   00007D   FD           MOV     R5,A
    832              }	
   \                     ??InsertContentStore_2:
   \   00007E   E8           MOV     A,R0
   \   00007F   2401         ADD     A,#0x1
   \   000081   08           INC     R0
   \   000082   E9           MOV     A,R1
   \   000083   3400         ADDC    A,#0x0
   \   000085   F9           MOV     R1,A
   \   000086   C3           CLR     C
   \   000087   E8           MOV     A,R0
   \   000088   940A         SUBB    A,#0xa
   \   00008A   E9           MOV     A,R1
   \   00008B   9400         SUBB    A,#0x0
   \   00008D   A2D2         MOV     C,0xD0 /* PSW */.2
   \   00008F   65D0         XRL     A,PSW
   \   000091   33           RLC     A
   \   000092   40CA         JC      ??InsertContentStore_1
    833              //替换temp所在位置的内容	
    834              //CS存储Interest相关内容
    835              ContentStore[temp].interestName.DestinationID=data.interestName.DestinationID;	
   \   000094   ED           MOV     A,R5
   \   000095   75F00E       MOV     B,#0xe
   \   000098   A4           MUL     AB
   \   000099   F8           MOV     R0,A
   \   00009A   A9F0         MOV     R1,B
   \   00009C   74..         MOV     A,#ContentStore & 0xff
   \   00009E   28           ADD     A,R0
   \   00009F   F8           MOV     R0,A
   \   0000A0   74..         MOV     A,#(ContentStore >> 8) & 0xff
   \   0000A2   39           ADDC    A,R1
   \   0000A3   F9           MOV     R1,A
   \   0000A4   7402         MOV     A,#0x2
   \   0000A6   12....       LCALL   ?XSTACK_DISP0_8
   \   0000A9   12....       LCALL   ??Subroutine130_0 & 0xFFFF
   \                     ??CrossCallReturnLabel_225:
   \   0000AC   12....       LCALL   ??Subroutine123_0 & 0xFFFF
    836              ContentStore[temp].interestName.DataFlag=data.interestName.DataFlag;	
   \                     ??CrossCallReturnLabel_195:
   \   0000AF   7404         MOV     A,#0x4
   \   0000B1   12....       LCALL   ?XSTACK_DISP0_8
   \   0000B4   12....       LCALL   ??Subroutine130_0 & 0xFFFF
   \                     ??CrossCallReturnLabel_226:
   \   0000B7   12....       LCALL   ??Subroutine122_0 & 0xFFFF
    837              ContentStore[temp].interestName.PackageCounter=data.interestName.PackageCounter;	
   \                     ??CrossCallReturnLabel_198:
   \   0000BA   7406         MOV     A,#0x6
   \   0000BC   12....       LCALL   ?XSTACK_DISP0_8
   \   0000BF   12....       LCALL   ?Subroutine34 & 0xFFFF
    838              //CS存储其他内容
    839              ContentStore[temp].PackageAll=data.PackageAll;	
   \                     ??CrossCallReturnLabel_200:
   \   0000C2   7408         MOV     A,#0x8
   \   0000C4   12....       LCALL   ?XSTACK_DISP0_8
   \   0000C7   12....       LCALL   ?Subroutine56 & 0xFFFF
   \                     ??CrossCallReturnLabel_101:
   \   0000CA   12....       LCALL   ??Subroutine146_0 & 0xFFFF
    840              ContentStore[temp].PackageSeg=data.PackageSeg;	
   \                     ??CrossCallReturnLabel_313:
   \   0000CD   7409         MOV     A,#0x9
   \   0000CF   12....       LCALL   ?XSTACK_DISP0_8
   \   0000D2   12....       LCALL   ?Subroutine49 & 0xFFFF
   \                     ??CrossCallReturnLabel_93:
   \   0000D5   12....       LCALL   ??Subroutine146_0 & 0xFFFF
    841              ContentStore[temp].Data=data.Data;	
   \                     ??CrossCallReturnLabel_314:
   \   0000D8   740A         MOV     A,#0xa
   \   0000DA   12....       LCALL   ?XSTACK_DISP0_8
   \   0000DD   12....       LCALL   ?Subroutine18 & 0xFFFF
    842              ContentStore[temp].number=0;
    843            }
   \                     ??CrossCallReturnLabel_30:
   \   0000E0   F0           MOVX    @DPTR,A
    844          }
   \   0000E1                REQUIRE ?Subroutine2
   \   0000E1                ; // Fall through to label ?Subroutine2

   \                                 In  segment BANKED_CODE, align 1, keep-with-next
   \                     ?Subroutine2:
   \   000000   D083         POP     DPH
   \   000002   D082         POP     DPL
   \   000004   02....       LJMP    ?BRET

   \                                 In  segment BANKED_CODE, align 1, keep-with-next
   \                     ?Subroutine56:
   \   000000   12....       LCALL   ?Subroutine92 & 0xFFFF
   \                     ??CrossCallReturnLabel_158:
   \   000003   22           RET

   \                                 In  segment BANKED_CODE, align 1, keep-with-next
   \                     ?Subroutine92:
   \   000000   E0           MOVX    A,@DPTR
   \   000001   8882         MOV     DPL,R0
   \   000003   8983         MOV     DPH,R1
   \   000005   A3           INC     DPTR
   \   000006   A3           INC     DPTR
   \   000007   A3           INC     DPTR
   \   000008   A3           INC     DPTR
   \   000009   A3           INC     DPTR
   \   00000A   A3           INC     DPTR
   \   00000B   22           RET

   \                                 In  segment BANKED_CODE, align 1, keep-with-next
   \                     ?Subroutine49:
   \   000000   12....       LCALL   ?Subroutine92 & 0xFFFF
   \                     ??CrossCallReturnLabel_157:
   \   000003   A3           INC     DPTR
   \   000004   A3           INC     DPTR
   \   000005   22           RET

   \                                 In  segment BANKED_CODE, align 1, keep-with-next
   \                     ?Subroutine34:
   \   000000   12....       LCALL   ??Subroutine147_0 & 0xFFFF
   \                     ??CrossCallReturnLabel_326:
   \   000003                REQUIRE ??Subroutine122_0
   \   000003                ; // Fall through to label ??Subroutine122_0

   \                                 In  segment BANKED_CODE, align 1, keep-with-next
   \                     ??Subroutine122_0:
   \   000000   A3           INC     DPTR
   \   000001   A3           INC     DPTR
   \   000002                REQUIRE ??Subroutine123_0
   \   000002                ; // Fall through to label ??Subroutine123_0

   \                                 In  segment BANKED_CODE, align 1, keep-with-next
   \                     ??Subroutine123_0:
   \   000000   EA           MOV     A,R2
   \   000001                REQUIRE ??Subroutine124_0
   \   000001                ; // Fall through to label ??Subroutine124_0

   \                                 In  segment BANKED_CODE, align 1, keep-with-next
   \                     ?Subroutine18:
   \   000000   12....       LCALL   ?Subroutine84 & 0xFFFF
   \                     ??CrossCallReturnLabel_146:
   \   000003   A3           INC     DPTR
   \   000004   A3           INC     DPTR
   \   000005   A3           INC     DPTR
   \   000006   A3           INC     DPTR
   \   000007   A3           INC     DPTR
   \   000008   A3           INC     DPTR
   \   000009   12....       LCALL   ??Subroutine151_0 & 0xFFFF
   \                     ??CrossCallReturnLabel_341:
   \   00000C   240C         ADD     A,#0xc
   \   00000E   12....       LCALL   ??Subroutine148_0 & 0xFFFF
   \                     ??CrossCallReturnLabel_335:
   \   000011   22           RET

   \                                 In  segment BANKED_CODE, align 1, keep-with-next
   \                     ?Subroutine69:
   \   000000   E8           MOV     A,R0
   \   000001   FA           MOV     R2,A
   \   000002   E9           MOV     A,R1
   \   000003   FB           MOV     R3,A
   \   000004   EA           MOV     A,R2
   \   000005   75F00E       MOV     B,#0xe
   \   000008   A4           MUL     AB
   \   000009   FA           MOV     R2,A
   \   00000A   ACF0         MOV     R4,B
   \   00000C   75F00E       MOV     B,#0xe
   \   00000F   EB           MOV     A,R3
   \   000010   A4           MUL     AB
   \   000011   2C           ADD     A,R4
   \   000012                REQUIRE ??Subroutine126_0
   \   000012                ; // Fall through to label ??Subroutine126_0

   \                                 In  segment BANKED_CODE, align 1, keep-with-next
   \                     ??Subroutine126_0:
   \   000000   FB           MOV     R3,A
   \   000001                REQUIRE ??Subroutine127_0
   \   000001                ; // Fall through to label ??Subroutine127_0

   \                                 In  segment BANKED_CODE, align 1, keep-with-next
   \                     ??Subroutine127_0:
   \   000000   74..         MOV     A,#(ContentStore + 12) & 0xff
   \   000002   2A           ADD     A,R2
   \   000003   F582         MOV     DPL,A
   \   000005   74..         MOV     A,#((ContentStore + 12) >> 8) & 0xff
   \   000007   3B           ADDC    A,R3
   \   000008   F583         MOV     DPH,A
   \   00000A   22           RET

   \                                 In  segment BANKED_CODE, align 1, keep-with-next
   \                     ??Subroutine130_0:
   \   000000   12....       LCALL   ??Subroutine140_0 & 0xFFFF
   \                     ??CrossCallReturnLabel_285:
   \   000003   22           RET

   \                                 In  segment BANKED_CODE, align 1, keep-with-next
   \                     ?Subroutine42:
   \   000000   12....       LCALL   ?Subroutine88 & 0xFFFF
   \                     ??CrossCallReturnLabel_301:
   \   000003   12....       LCALL   ?Subroutine104 & 0xFFFF
   \                     ??CrossCallReturnLabel_172:
   \   000006   39           ADDC    A,R1
   \   000007   F9           MOV     R1,A
   \   000008   22           RET

   \                                 In  segment BANKED_CODE, align 1, keep-with-next
   \                     ?Subroutine61:
   \   000000   C3           CLR     C
   \   000001   E0           MOVX    A,@DPTR
   \   000002   9A           SUBB    A,R2
   \   000003   A3           INC     DPTR
   \   000004   E0           MOVX    A,@DPTR
   \   000005   9B           SUBB    A,R3
   \   000006   22           RET

   \                                 In  segment BANKED_CODE, align 1, keep-with-next
   \                     ?Subroutine45:
   \   000000   C3           CLR     C
   \   000001   E0           MOVX    A,@DPTR
   \   000002   940A         SUBB    A,#0xa
   \   000004   12....       LCALL   ?Subroutine94 & 0xFFFF
   \                     ??CrossCallReturnLabel_278:
   \   000007   22           RET

   \                                 In  segment BANKED_CODE, align 1, keep-with-next
   \                     ?Subroutine84:
   \   000000   12....       LCALL   ?Subroutine107 & 0xFFFF
   \                     ??CrossCallReturnLabel_331:
   \   000003   A3           INC     DPTR
   \   000004   A3           INC     DPTR
   \   000005   22           RET

   \                                 In  segment BANKED_CODE, align 1, keep-with-next
   \                     ?Subroutine94:
   \   000000   A3           INC     DPTR
   \   000001   E0           MOVX    A,@DPTR
   \   000002   9400         SUBB    A,#0x0
   \   000004   A2D2         MOV     C,0xD0 /* PSW */.2
   \   000006   65D0         XRL     A,PSW
   \   000008   33           RLC     A
   \   000009   22           RET

   \                                 In  segment BANKED_CODE, align 1, keep-with-next
   \                     ??Subroutine140_0:
   \   000000   12....       LCALL   ?Subroutine108 & 0xFFFF
   \                     ??CrossCallReturnLabel_287:
   \   000003   22           RET

   \                                 In  segment BANKED_CODE, align 1, keep-with-next
   \                     ?Subroutine108:
   \   000000   12....       LCALL   ?Subroutine115 & 0xFFFF
   \                     ??CrossCallReturnLabel_333:
   \   000003   22           RET

   \                                 In  segment BANKED_CODE, align 1, keep-with-next
   \                     ?Subroutine115:
   \   000000   E0           MOVX    A,@DPTR
   \   000001   FA           MOV     R2,A
   \   000002   A3           INC     DPTR
   \   000003   E0           MOVX    A,@DPTR
   \   000004   FB           MOV     R3,A
   \   000005   8882         MOV     DPL,R0
   \   000007   8983         MOV     DPH,R1
   \   000009   22           RET

   \                                 In  segment BANKED_CODE, align 1, keep-with-next
   \                     ??Subroutine147_0:
   \   000000   12....       LCALL   ?Subroutine107 & 0xFFFF
   \                     ??CrossCallReturnLabel_332:
   \   000003   22           RET

   \                                 In  segment BANKED_CODE, align 1, keep-with-next
   \                     ??Subroutine148_0:
   \   000000   12....       LCALL   ?Subroutine113 & 0xFFFF
   \                     ??CrossCallReturnLabel_388:
   \   000003   E4           CLR     A
   \   000004   F0           MOVX    @DPTR,A
   \   000005   A3           INC     DPTR
   \   000006   22           RET

   \                                 In  segment BANKED_CODE, align 1, keep-with-next
   \                     ?Subroutine113:
   \   000000   F582         MOV     DPL,A
   \   000002   E9           MOV     A,R1
   \   000003                REQUIRE ??Subroutine149_0
   \   000003                ; // Fall through to label ??Subroutine149_0

   \                                 In  segment BANKED_CODE, align 1, keep-with-next
   \                     ??Subroutine151_0:
   \   000000   12....       LCALL   ?Subroutine106 & 0xFFFF
   \                     ??CrossCallReturnLabel_357:
   \   000003   E8           MOV     A,R0
   \   000004   22           RET

   \                                 In  segment BANKED_CODE, align 1, keep-with-next
   \                     ?Subroutine106:
   \   000000   EA           MOV     A,R2
   \   000001                REQUIRE ??Subroutine153_0
   \   000001                ; // Fall through to label ??Subroutine153_0

   \                                 In  segment BANKED_CODE, align 1, keep-with-next
   \                     ?Subroutine107:
   \   000000   12....       LCALL   ?Subroutine115 & 0xFFFF
   \                     ??CrossCallReturnLabel_334:
   \   000003   A3           INC     DPTR
   \   000004   A3           INC     DPTR
   \   000005   22           RET
    845          
    846          //查找CS表

   \                                 In  segment BANKED_CODE, align 1, keep-with-next
    847          int ContentStoreFinder(Interest interest)
   \                     ContentStoreFinder:
    848          {
   \   000000   74F7         MOV     A,#-0x9
   \   000002   12....       LCALL   ?BANKED_ENTER_XDATA
   \   000005                ; Saved register size: 9
   \   000005                ; Auto size: 0
    849            //Interst包中InterestName临时进行存储
    850            tempInterName.DestinationID=interest.interestName.DestinationID;
   \   000005   740B         MOV     A,#0xb
   \   000007   12....       LCALL   ?XSTACK_DISP0_8
   \   00000A   12....       LCALL   ?Subroutine35 & 0xFFFF
    851            tempInterName.DataFlag=interest.interestName.DataFlag;	
   \                     ??CrossCallReturnLabel_58:
   \   00000D   12....       LCALL   ?XSTACK_DISP0_8
   \   000010   12....       LCALL   ?Subroutine36 & 0xFFFF
    852            tempInterName.PackageCounter=interest.interestName.PackageCounter;
   \                     ??CrossCallReturnLabel_61:
   \   000013   12....       LCALL   ?XSTACK_DISP0_8
   \   000016   12....       LCALL   ?Subroutine20 & 0xFFFF
    853            for(temp_i=0;temp_i<CScounter;)
   \                     ??CrossCallReturnLabel_33:
   \   000019   8003         SJMP    ??CrossCallReturnLabel_251
    854            {
    855              temp_j=0;		
    856              if(tempInterName.DestinationID==ContentStore[temp_i].interestName.DestinationID)	
    857              {		
    858                ++temp_j;	
    859              }	
    860              if(tempInterName.DataFlag==ContentStore[temp_i].interestName.DataFlag)	
    861              {		
    862                ++temp_j;	
    863              }	
    864              if(tempInterName.PackageCounter==ContentStore[temp_i].interestName.PackageCounter)	
    865              {		
    866                ++temp_j;	
    867              }		
    868              if(temp_j==3)	
    869              {		
    870                return temp_i;	
    871              }
    872              temp_i++;
   \                     ??ContentStoreFinder_0:
   \   00001B   12....       LCALL   ??Subroutine136_0 & 0xFFFF
   \                     ??CrossCallReturnLabel_251:
   \   00001E   12....       LCALL   ?Subroutine16 & 0xFFFF
   \                     ??CrossCallReturnLabel_25:
   \   000021   5040         JNC     ??ContentStoreFinder_1
   \   000023   12....       LCALL   ?Subroutine26 & 0xFFFF
   \                     ??CrossCallReturnLabel_44:
   \   000026   12....       LCALL   ?Subroutine72 & 0xFFFF
   \                     ??CrossCallReturnLabel_125:
   \   000029   12....       LCALL   ?Subroutine52 & 0xFFFF
   \                     ??CrossCallReturnLabel_96:
   \   00002C   7003         JNZ     ??ContentStoreFinder_2
   \   00002E   A3           INC     DPTR
   \   00002F   E0           MOVX    A,@DPTR
   \   000030   6B           XRL     A,R3
   \                     ??ContentStoreFinder_2:
   \   000031   7003         JNZ     ??CrossCallReturnLabel_321
   \   000033   12....       LCALL   ?Subroutine30 & 0xFFFF
   \                     ??CrossCallReturnLabel_321:
   \   000036   8882         MOV     DPL,R0
   \   000038   8983         MOV     DPH,R1
   \   00003A   A3           INC     DPTR
   \   00003B   A3           INC     DPTR
   \   00003C   E0           MOVX    A,@DPTR
   \   00003D   6E           XRL     A,R6
   \   00003E   7003         JNZ     ??ContentStoreFinder_3
   \   000040   A3           INC     DPTR
   \   000041   E0           MOVX    A,@DPTR
   \   000042   6F           XRL     A,R7
   \                     ??ContentStoreFinder_3:
   \   000043   7003         JNZ     ??CrossCallReturnLabel_240
   \   000045   12....       LCALL   ?Subroutine32 & 0xFFFF
   \                     ??CrossCallReturnLabel_240:
   \   000048   8882         MOV     DPL,R0
   \   00004A   8983         MOV     DPH,R1
   \   00004C   A3           INC     DPTR
   \   00004D   A3           INC     DPTR
   \   00004E   A3           INC     DPTR
   \   00004F   A3           INC     DPTR
   \   000050   E0           MOVX    A,@DPTR
   \   000051   6C           XRL     A,R4
   \   000052   7003         JNZ     ??ContentStoreFinder_4
   \   000054   A3           INC     DPTR
   \   000055   E0           MOVX    A,@DPTR
   \   000056   6D           XRL     A,R5
   \                     ??ContentStoreFinder_4:
   \   000057   7003         JNZ     ??CrossCallReturnLabel_241
   \   000059   12....       LCALL   ?Subroutine32 & 0xFFFF
   \                     ??CrossCallReturnLabel_241:
   \   00005C   12....       LCALL   ?Subroutine62 & 0xFFFF
   \                     ??CrossCallReturnLabel_115:
   \   00005F   70BA         JNZ     ??ContentStoreFinder_0
   \   000061   8003         SJMP    ??ContentStoreFinder_5
    873            }
    874            //如果temp_i不为CScounter则查找成功，否则查找失败
    875            return CScounter;
   \                     ??ContentStoreFinder_1:
   \   000063   90....       MOV     DPTR,#CScounter
   \                     ??ContentStoreFinder_5:
   \   000066                REQUIRE ?Subroutine5
   \   000066                ; // Fall through to label ?Subroutine5
    876          }

   \                                 In  segment BANKED_CODE, align 1, keep-with-next
   \                     ?Subroutine5:
   \   000000   12....       LCALL   ??Subroutine125_0 & 0xFFFF
   \                     ??CrossCallReturnLabel_209:
   \   000003   02....       LJMP    ??Subroutine156_0 & 0xFFFF

   \                                 In  segment BANKED_CODE, align 1, keep-with-next
   \                     ?Subroutine16:
   \   000000   F0           MOVX    @DPTR,A
   \   000001   90....       MOV     DPTR,#CScounter
   \   000004   12....       LCALL   ?Subroutine83 & 0xFFFF
   \                     ??CrossCallReturnLabel_144:
   \   000007   22           RET

   \                                 In  segment BANKED_CODE, align 1, keep-with-next
   \                     ?Subroutine62:
   \   000000   90....       MOV     DPTR,#temp_j
   \   000003   E0           MOVX    A,@DPTR
   \   000004   6403         XRL     A,#0x3
   \   000006   90....       MOV     DPTR,#temp_i
   \   000009   22           RET

   \                                 In  segment BANKED_CODE, align 1, keep-with-next
   \                     ?Subroutine36:
   \   000000   E0           MOVX    A,@DPTR
   \   000001   FE           MOV     R6,A
   \   000002   A3           INC     DPTR
   \   000003   E0           MOVX    A,@DPTR
   \   000004   FF           MOV     R7,A
   \   000005   90....       MOV     DPTR,#tempInterName + 2
   \   000008   EE           MOV     A,R6
   \   000009   F0           MOVX    @DPTR,A
   \   00000A   A3           INC     DPTR
   \   00000B   EF           MOV     A,R7
   \   00000C   F0           MOVX    @DPTR,A
   \   00000D   740F         MOV     A,#0xf
   \   00000F   22           RET

   \                                 In  segment BANKED_CODE, align 1, keep-with-next
   \                     ?Subroutine35:
   \   000000   12....       LCALL   ?Subroutine111 & 0xFFFF
   \                     ??CrossCallReturnLabel_372:
   \   000003   90....       MOV     DPTR,#tempInterName
   \   000006   E8           MOV     A,R0
   \   000007   F0           MOVX    @DPTR,A
   \   000008   A3           INC     DPTR
   \   000009   E9           MOV     A,R1
   \   00000A   F0           MOVX    @DPTR,A
   \   00000B   740D         MOV     A,#0xd
   \   00000D   22           RET

   \                                 In  segment BANKED_CODE, align 1, keep-with-next
   \                     ?Subroutine32:
   \   000000   90....       MOV     DPTR,#temp_j
   \   000003                REQUIRE ??Subroutine135_0
   \   000003                ; // Fall through to label ??Subroutine135_0

   \                                 In  segment BANKED_CODE, align 1, keep-with-next
   \                     ?Subroutine20:
   \   000000   E0           MOVX    A,@DPTR
   \   000001   FC           MOV     R4,A
   \   000002   A3           INC     DPTR
   \   000003   E0           MOVX    A,@DPTR
   \   000004   FD           MOV     R5,A
   \   000005   90....       MOV     DPTR,#tempInterName + 4
   \   000008   EC           MOV     A,R4
   \   000009   F0           MOVX    @DPTR,A
   \   00000A   A3           INC     DPTR
   \   00000B   ED           MOV     A,R5
   \   00000C   F0           MOVX    @DPTR,A
   \   00000D   90....       MOV     DPTR,#temp_i
   \   000010   E4           CLR     A
   \   000011   F0           MOVX    @DPTR,A
   \   000012   A3           INC     DPTR
   \   000013   22           RET

   \                                 In  segment BANKED_CODE, align 1, keep-with-next
   \                     ?Subroutine83:
   \   000000   12....       LCALL   ?Subroutine111 & 0xFFFF
   \                     ??CrossCallReturnLabel_374:
   \   000003   7583..       MOV     DPH,#(temp_i >> 8) & 0xff
   \   000006   7582..       MOV     DPL,#temp_i & 0xff
   \   000009   C3           CLR     C
   \   00000A   E0           MOVX    A,@DPTR
   \   00000B   98           SUBB    A,R0
   \   00000C   A3           INC     DPTR
   \   00000D   E0           MOVX    A,@DPTR
   \   00000E   99           SUBB    A,R1
   \   00000F   A2D2         MOV     C,0xD0 /* PSW */.2
   \   000011   65D0         XRL     A,PSW
   \   000013   33           RLC     A
   \   000014   22           RET

   \                                 In  segment BANKED_CODE, align 1, keep-with-next
   \                     ?Subroutine52:
   \   000000   12....       LCALL   ?Subroutine90 & 0xFFFF
   \                     ??CrossCallReturnLabel_156:
   \   000003   22           RET

   \                                 In  segment BANKED_CODE, align 1, keep-with-next
   \                     ?Subroutine90:
   \   000000   39           ADDC    A,R1
   \   000001   F9           MOV     R1,A
   \   000002   90....       MOV     DPTR,#tempInterName
   \   000005   12....       LCALL   ?Subroutine108 & 0xFFFF
   \                     ??CrossCallReturnLabel_286:
   \   000008   E0           MOVX    A,@DPTR
   \   000009   6A           XRL     A,R2
   \   00000A   22           RET

   \                                 In  segment BANKED_CODE, align 1, keep-with-next
   \                     ?Subroutine26:
   \   000000   12....       LCALL   ?Subroutine81 & 0xFFFF
   \                     ??CrossCallReturnLabel_139:
   \   000003   22           RET

   \                                 In  segment BANKED_CODE, align 1, keep-with-next
   \                     ?Subroutine81:
   \   000000   90....       MOV     DPTR,#temp_j
   \   000003   E4           CLR     A
   \   000004   F0           MOVX    @DPTR,A
   \   000005   A3           INC     DPTR
   \   000006   F0           MOVX    @DPTR,A
   \   000007   12....       LCALL   ?Subroutine110 & 0xFFFF
   \                     ??CrossCallReturnLabel_304:
   \   00000A   22           RET

   \                                 In  segment BANKED_CODE, align 1, keep-with-next
   \                     ?Subroutine110:
   \   000000   90....       MOV     DPTR,#temp_i
   \   000003                REQUIRE ??Subroutine141_0
   \   000003                ; // Fall through to label ??Subroutine141_0

   \                                 In  segment BANKED_CODE, align 1, keep-with-next
   \                     ?Subroutine30:
   \   000000   90....       MOV     DPTR,#temp_j
   \   000003                REQUIRE ??Subroutine145_0
   \   000003                ; // Fall through to label ??Subroutine145_0

   \                                 In  segment BANKED_CODE, align 1, keep-with-next
   \                     ??Subroutine156_0:
   \   000000   7F01         MOV     R7,#0x1
   \   000002   02....       LJMP    ?BANKED_LEAVE_XDATA
    877          //从CS表中根据time删除使用次数最少的数据

   \                                 In  segment BANKED_CODE, align 1, keep-with-next
    878          void DeleteItemCS(void)
   \                     DeleteItemCS:
    879          {
   \   000000   74F7         MOV     A,#-0x9
   \   000002   12....       LCALL   ?BANKED_ENTER_XDATA
   \   000005                ; Saved register size: 9
   \   000005                ; Auto size: 0
    880            int temp;
    881            temp=0;
   \   000005   7800         MOV     R0,#0x0
   \   000007   7900         MOV     R1,#0x0
    882            for(temp_i=0;temp_i<CScounter;++temp_i)
   \   000009   90....       MOV     DPTR,#temp_i
   \   00000C   E4           CLR     A
   \   00000D   F0           MOVX    @DPTR,A
   \   00000E   A3           INC     DPTR
   \   00000F   8025         SJMP    ??CrossCallReturnLabel_257
    883            {	
    884              if(ContentStore[temp].number>ContentStore[temp_i].number)	
   \                     ??DeleteItemCS_0:
   \   000011   90....       MOV     DPTR,#temp_i
   \   000014   12....       LCALL   ??Subroutine125_0 & 0xFFFF
   \                     ??CrossCallReturnLabel_204:
   \   000017   EA           MOV     A,R2
   \   000018   75F00E       MOV     B,#0xe
   \   00001B   A4           MUL     AB
   \   00001C   FA           MOV     R2,A
   \   00001D   AEF0         MOV     R6,B
   \   00001F   75F00E       MOV     B,#0xe
   \   000022   EB           MOV     A,R3
   \   000023   A4           MUL     AB
   \   000024   2E           ADD     A,R6
   \   000025   12....       LCALL   ??Subroutine126_0 & 0xFFFF
   \                     ??CrossCallReturnLabel_213:
   \   000028   C3           CLR     C
   \   000029   E0           MOVX    A,@DPTR
   \   00002A   9C           SUBB    A,R4
   \   00002B   A3           INC     DPTR
   \   00002C   E0           MOVX    A,@DPTR
   \   00002D   9D           SUBB    A,R5
   \   00002E   5003         JNC     ??CrossCallReturnLabel_369
    885              {		
    886                temp=temp_i;	
   \   000030   12....       LCALL   ?Subroutine51 & 0xFFFF
    887              }
    888            }
   \                     ??CrossCallReturnLabel_369:
   \   000033   12....       LCALL   ?Subroutine33 & 0xFFFF
   \                     ??CrossCallReturnLabel_257:
   \   000036   F0           MOVX    @DPTR,A
   \   000037   12....       LCALL   ?Subroutine69 & 0xFFFF
   \                     ??CrossCallReturnLabel_215:
   \   00003A   12....       LCALL   ??Subroutine159_0 & 0xFFFF
   \                     ??CrossCallReturnLabel_394:
   \   00003D   90....       MOV     DPTR,#CScounter
   \   000040   12....       LCALL   ??Subroutine125_0 & 0xFFFF
   \                     ??CrossCallReturnLabel_205:
   \   000043   7583..       MOV     DPH,#(temp_i >> 8) & 0xff
   \   000046   7582..       MOV     DPL,#temp_i & 0xff
   \   000049   12....       LCALL   ?Subroutine61 & 0xFFFF
   \                     ??CrossCallReturnLabel_112:
   \   00004C   A2D2         MOV     C,0xD0 /* PSW */.2
   \   00004E   65D0         XRL     A,PSW
   \   000050   33           RLC     A
   \   000051   40BE         JC      ??DeleteItemCS_0
    889            if(ContentStore[temp].number<2 && temp<CScounter-1)
   \   000053   90....       MOV     DPTR,#CScounter
   \   000056   12....       LCALL   ?Subroutine59 & 0xFFFF
   \                     ??CrossCallReturnLabel_106:
   \   000059   EC           MOV     A,R4
   \   00005A   9402         SUBB    A,#0x2
   \   00005C   ED           MOV     A,R5
   \   00005D   9400         SUBB    A,#0x0
   \   00005F   5068         JNC     ??DeleteItemCS_1
   \   000061   C3           CLR     C
   \   000062   12....       LCALL   ?Subroutine75 & 0xFFFF
   \                     ??CrossCallReturnLabel_130:
   \   000065   5062         JNC     ??DeleteItemCS_1
    890            {	
    891              for(temp_i=temp;temp_i<CScounter;++temp_i)	
   \   000067   90....       MOV     DPTR,#temp_i
   \   00006A   E8           MOV     A,R0
   \   00006B   F0           MOVX    @DPTR,A
   \   00006C   A3           INC     DPTR
   \   00006D   E9           MOV     A,R1
   \   00006E   804B         SJMP    ??CrossCallReturnLabel_258
    892              {		
    893                ContentStore[temp_i].interestName.DestinationID=ContentStore[temp_i+1].interestName.DestinationID;		
   \                     ??DeleteItemCS_2:
   \   000070   90....       MOV     DPTR,#temp_i
   \   000073   12....       LCALL   ?Subroutine42 & 0xFFFF
    894                ContentStore[temp_i].interestName.DataFlag=ContentStore[temp_i+1].interestName.DataFlag;		
    895                ContentStore[temp_i].interestName.PackageCounter=ContentStore[temp_i+1].interestName.PackageCounter;		
    896                ContentStore[temp_i].PackageAll=ContentStore[temp_i+1].PackageAll;		
    897                ContentStore[temp_i].PackageSeg=ContentStore[temp_i+1].PackageSeg;		
    898                ContentStore[temp_i].Data=ContentStore[temp_i+1].Data;		
    899                ContentStore[temp_i].number=ContentStore[temp_i+1].number;	
    900              }	
   \                     ??CrossCallReturnLabel_79:
   \   000076   E8           MOV     A,R0
   \   000077   240E         ADD     A,#0xe
   \   000079   12....       LCALL   ?Subroutine54 & 0xFFFF
   \                     ??CrossCallReturnLabel_227:
   \   00007C   12....       LCALL   ??Subroutine134_0 & 0xFFFF
   \                     ??CrossCallReturnLabel_237:
   \   00007F   2410         ADD     A,#0x10
   \   000081   12....       LCALL   ?Subroutine54 & 0xFFFF
   \                     ??CrossCallReturnLabel_228:
   \   000084   12....       LCALL   ??Subroutine133_0 & 0xFFFF
   \                     ??CrossCallReturnLabel_236:
   \   000087   2412         ADD     A,#0x12
   \   000089   12....       LCALL   ?Subroutine54 & 0xFFFF
   \                     ??CrossCallReturnLabel_229:
   \   00008C   12....       LCALL   ??Subroutine132_0 & 0xFFFF
   \                     ??CrossCallReturnLabel_235:
   \   00008F   2414         ADD     A,#0x14
   \   000091   12....       LCALL   ?Subroutine54 & 0xFFFF
   \                     ??CrossCallReturnLabel_230:
   \   000094   12....       LCALL   ??Subroutine131_0 & 0xFFFF
   \                     ??CrossCallReturnLabel_234:
   \   000097   2416         ADD     A,#0x16
   \   000099   12....       LCALL   ?Subroutine54 & 0xFFFF
   \                     ??CrossCallReturnLabel_231:
   \   00009C   12....       LCALL   ?Subroutine23 & 0xFFFF
   \                     ??CrossCallReturnLabel_232:
   \   00009F   2418         ADD     A,#0x18
   \   0000A1   12....       LCALL   ??Subroutine128_0 & 0xFFFF
   \                     ??CrossCallReturnLabel_219:
   \   0000A4   12....       LCALL   ?Subroutine53 & 0xFFFF
   \                     ??CrossCallReturnLabel_98:
   \   0000A7   12....       LCALL   ?Subroutine23 & 0xFFFF
   \                     ??CrossCallReturnLabel_233:
   \   0000AA   241A         ADD     A,#0x1a
   \   0000AC   12....       LCALL   ??Subroutine128_0 & 0xFFFF
   \                     ??CrossCallReturnLabel_220:
   \   0000AF   12....       LCALL   ??Subroutine125_0 & 0xFFFF
   \                     ??CrossCallReturnLabel_206:
   \   0000B2   12....       LCALL   ?Subroutine68 & 0xFFFF
   \                     ??CrossCallReturnLabel_222:
   \   0000B5   12....       LCALL   ??Subroutine123_0 & 0xFFFF
   \                     ??CrossCallReturnLabel_196:
   \   0000B8   12....       LCALL   ?Subroutine33 & 0xFFFF
   \                     ??CrossCallReturnLabel_258:
   \   0000BB   12....       LCALL   ?Subroutine16 & 0xFFFF
   \                     ??CrossCallReturnLabel_26:
   \   0000BE   40B0         JC      ??DeleteItemCS_2
    901              CScounter--;
   \                     ??DeleteItemCS_3:
   \   0000C0   90....       MOV     DPTR,#CScounter
   \   0000C3   12....       LCALL   ?Subroutine64 & 0xFFFF
    902            }
   \                     ??CrossCallReturnLabel_358:
   \   0000C6   F0           MOVX    @DPTR,A
   \   0000C7   8011         SJMP    ??DeleteItemCS_4
    903            else if(ContentStore[temp].number<2 && temp==CScounter-1)
   \                     ??DeleteItemCS_1:
   \   0000C9   C3           CLR     C
   \   0000CA   EC           MOV     A,R4
   \   0000CB   9402         SUBB    A,#0x2
   \   0000CD   ED           MOV     A,R5
   \   0000CE   9400         SUBB    A,#0x0
   \   0000D0   5008         JNC     ??DeleteItemCS_4
   \   0000D2   EA           MOV     A,R2
   \   0000D3   68           XRL     A,R0
   \   0000D4   7002         JNZ     ??DeleteItemCS_5
   \   0000D6   EB           MOV     A,R3
   \   0000D7   69           XRL     A,R1
   \                     ??DeleteItemCS_5:
   \   0000D8   60E6         JZ      ??DeleteItemCS_3
    904            {	
    905              CScounter--;
    906            }
    907          }
   \                     ??DeleteItemCS_4:
   \   0000DA   02....       LJMP    ??Subroutine156_0 & 0xFFFF

   \                                 In  segment BANKED_CODE, align 1, keep-with-next
   \                     ?Subroutine54:
   \   000000   12....       LCALL   ?Subroutine98 & 0xFFFF
   \                     ??CrossCallReturnLabel_379:
   \   000003                REQUIRE ??Subroutine130_0
   \   000003                ; // Fall through to label ??Subroutine130_0

   \                                 In  segment BANKED_CODE, align 1, keep-with-next
   \                     ?Subroutine23:
   \   000000   A3           INC     DPTR
   \   000001   A3           INC     DPTR
   \   000002                REQUIRE ??Subroutine131_0
   \   000002                ; // Fall through to label ??Subroutine131_0

   \                                 In  segment BANKED_CODE, align 1, keep-with-next
   \                     ??Subroutine131_0:
   \   000000   A3           INC     DPTR
   \   000001   A3           INC     DPTR
   \   000002                REQUIRE ??Subroutine132_0
   \   000002                ; // Fall through to label ??Subroutine132_0

   \                                 In  segment BANKED_CODE, align 1, keep-with-next
   \                     ??Subroutine132_0:
   \   000000   A3           INC     DPTR
   \   000001   A3           INC     DPTR
   \   000002                REQUIRE ??Subroutine133_0
   \   000002                ; // Fall through to label ??Subroutine133_0

   \                                 In  segment BANKED_CODE, align 1, keep-with-next
   \                     ??Subroutine133_0:
   \   000000   A3           INC     DPTR
   \   000001   A3           INC     DPTR
   \   000002                REQUIRE ??Subroutine134_0
   \   000002                ; // Fall through to label ??Subroutine134_0

   \                                 In  segment BANKED_CODE, align 1, keep-with-next
   \                     ??Subroutine134_0:
   \   000000   12....       LCALL   ??Subroutine151_0 & 0xFFFF
   \                     ??CrossCallReturnLabel_342:
   \   000003   22           RET

   \                                 In  segment BANKED_CODE, align 1, keep-with-next
   \                     ?Subroutine33:
   \   000000   90....       MOV     DPTR,#temp_i
   \   000003                REQUIRE ??Subroutine136_0
   \   000003                ; // Fall through to label ??Subroutine136_0

   \                                 In  segment BANKED_CODE, align 1, keep-with-next
   \                     ?Subroutine75:
   \   000000   E8           MOV     A,R0
   \   000001   9A           SUBB    A,R2
   \   000002   E9           MOV     A,R1
   \   000003   9B           SUBB    A,R3
   \   000004   A2D2         MOV     C,0xD0 /* PSW */.2
   \   000006   65D0         XRL     A,PSW
   \   000008   33           RLC     A
   \   000009   22           RET

   \                                 In  segment BANKED_CODE, align 1, keep-with-next
   \                     ?Subroutine59:
   \   000000   E0           MOVX    A,@DPTR
   \   000001   24FF         ADD     A,#-0x1
   \   000003   1A           DEC     R2
   \   000004   A3           INC     DPTR
   \   000005   E0           MOVX    A,@DPTR
   \   000006   34FF         ADDC    A,#-0x1
   \   000008   FB           MOV     R3,A
   \   000009   C3           CLR     C
   \   00000A   22           RET

   \                                 In  segment BANKED_CODE, align 1, keep-with-next
   \                     ?Subroutine53:
   \   000000   12....       LCALL   ??Subroutine147_0 & 0xFFFF
   \                     ??CrossCallReturnLabel_327:
   \   000003   22           RET

   \                                 In  segment BANKED_CODE, align 1, keep-with-next
   \                     ?Subroutine64:
   \   000000   E0           MOVX    A,@DPTR
   \   000001   24FF         ADD     A,#-0x1
   \   000003   F0           MOVX    @DPTR,A
   \   000004   A3           INC     DPTR
   \   000005   E0           MOVX    A,@DPTR
   \   000006   34FF         ADDC    A,#-0x1
   \   000008   22           RET

   \                                 In  segment BANKED_CODE, align 1, keep-with-next
   \                     ?Subroutine51:
   \   000000   90....       MOV     DPTR,#temp_i
   \   000003                REQUIRE ??Subroutine157_0
   \   000003                ; // Fall through to label ??Subroutine157_0

   \                                 In  segment BANKED_CODE, align 1, keep-with-next
   \                     ?Subroutine98:
   \   000000   F582         MOV     DPL,A
   \   000002   E9           MOV     A,R1
   \   000003                REQUIRE ??Subroutine158_0
   \   000003                ; // Fall through to label ??Subroutine158_0
    908          
    909          //PIT表相关处理操作
    910          //PIT表中interest查找

   \                                 In  segment BANKED_CODE, align 1, keep-with-next
    911          int  PendingTableFindInterest(Interest interest)
   \                     PendingTableFindInterest:
    912          {
   \   000000   74F7         MOV     A,#-0x9
   \   000002   12....       LCALL   ?BANKED_ENTER_XDATA
   \   000005                ; Saved register size: 9
   \   000005                ; Auto size: 0
    913            //Interst包中InterestName临时进行存储
    914            tempInterName.DestinationID=interest.interestName.DestinationID;	
   \   000005   740B         MOV     A,#0xb
   \   000007   12....       LCALL   ?XSTACK_DISP0_8
   \   00000A   12....       LCALL   ?Subroutine35 & 0xFFFF
    915            tempInterName.DataFlag=interest.interestName.DataFlag;	
   \                     ??CrossCallReturnLabel_59:
   \   00000D   12....       LCALL   ?XSTACK_DISP0_8
   \   000010   12....       LCALL   ?Subroutine36 & 0xFFFF
    916            tempInterName.PackageCounter=interest.interestName.PackageCounter;
   \                     ??CrossCallReturnLabel_62:
   \   000013   12....       LCALL   ?XSTACK_DISP0_8
   \   000016   12....       LCALL   ?Subroutine20 & 0xFFFF
    917            for(temp_i=0;temp_i<PITCounter;temp_i++)
   \                     ??CrossCallReturnLabel_34:
   \   000019   8003         SJMP    ??CrossCallReturnLabel_252
   \                     ??PendingTableFindInterest_0:
   \   00001B   12....       LCALL   ??Subroutine136_0 & 0xFFFF
   \                     ??CrossCallReturnLabel_252:
   \   00001E   12....       LCALL   ?Subroutine10 & 0xFFFF
   \                     ??CrossCallReturnLabel_9:
   \   000021   503A         JNC     ??PendingTableFindInterest_1
    918            {	
    919              temp_j=0;	
   \   000023   12....       LCALL   ?Subroutine13 & 0xFFFF
    920              if(tempInterName.DestinationID==PendingTable[temp_i].interestName.DestinationID)	
   \                     ??CrossCallReturnLabel_17:
   \   000026   7003         JNZ     ??PendingTableFindInterest_2
   \   000028   A3           INC     DPTR
   \   000029   E0           MOVX    A,@DPTR
   \   00002A   6B           XRL     A,R3
   \                     ??PendingTableFindInterest_2:
   \   00002B   7003         JNZ     ??CrossCallReturnLabel_322
    921              {		
    922                ++temp_j;	
   \   00002D   12....       LCALL   ?Subroutine30 & 0xFFFF
    923              }		
    924              if(tempInterName.DataFlag==PendingTable[temp_i].interestName.DataFlag)	
   \                     ??CrossCallReturnLabel_322:
   \   000030   8882         MOV     DPL,R0
   \   000032   8983         MOV     DPH,R1
   \   000034   A3           INC     DPTR
   \   000035   A3           INC     DPTR
   \   000036   E0           MOVX    A,@DPTR
   \   000037   6E           XRL     A,R6
   \   000038   7003         JNZ     ??PendingTableFindInterest_3
   \   00003A   A3           INC     DPTR
   \   00003B   E0           MOVX    A,@DPTR
   \   00003C   6F           XRL     A,R7
   \                     ??PendingTableFindInterest_3:
   \   00003D   7003         JNZ     ??CrossCallReturnLabel_242
    925              {		
    926                ++temp_j;	
   \   00003F   12....       LCALL   ?Subroutine32 & 0xFFFF
    927              }		
    928              if(tempInterName.PackageCounter==PendingTable[temp_i].interestName.PackageCounter)	
   \                     ??CrossCallReturnLabel_242:
   \   000042   8882         MOV     DPL,R0
   \   000044   8983         MOV     DPH,R1
   \   000046   A3           INC     DPTR
   \   000047   A3           INC     DPTR
   \   000048   A3           INC     DPTR
   \   000049   A3           INC     DPTR
   \   00004A   E0           MOVX    A,@DPTR
   \   00004B   6C           XRL     A,R4
   \   00004C   7003         JNZ     ??PendingTableFindInterest_4
   \   00004E   A3           INC     DPTR
   \   00004F   E0           MOVX    A,@DPTR
   \   000050   6D           XRL     A,R5
   \                     ??PendingTableFindInterest_4:
   \   000051   7003         JNZ     ??CrossCallReturnLabel_243
    929              {		
    930                ++temp_j;	
   \   000053   12....       LCALL   ?Subroutine32 & 0xFFFF
    931              }		
    932              if(temp_j==3)	
   \                     ??CrossCallReturnLabel_243:
   \   000056   12....       LCALL   ?Subroutine62 & 0xFFFF
   \                     ??CrossCallReturnLabel_116:
   \   000059   70C0         JNZ     ??PendingTableFindInterest_0
    933              {		
    934                return temp_i;	
   \   00005B   8003         SJMP    ??PendingTableFindInterest_5
    935              }
    936            }
    937            //如果temp_i不为PITCounter则查找成功，否则查找失败
    938            return PITCounter;
   \                     ??PendingTableFindInterest_1:
   \   00005D   90....       MOV     DPTR,#PITCounter
   \                     ??PendingTableFindInterest_5:
   \   000060   02....       LJMP    ?Subroutine5 & 0xFFFF
    939          }

   \                                 In  segment BANKED_CODE, align 1, keep-with-next
   \                     ?Subroutine13:
   \   000000   12....       LCALL   ?Subroutine81 & 0xFFFF
   \                     ??CrossCallReturnLabel_138:
   \   000003   12....       LCALL   ?Subroutine114 & 0xFFFF
   \                     ??CrossCallReturnLabel_176:
   \   000006   12....       LCALL   ?Subroutine90 & 0xFFFF
   \                     ??CrossCallReturnLabel_155:
   \   000009   22           RET

   \                                 In  segment BANKED_CODE, align 1, keep-with-next
   \                     ?Subroutine10:
   \   000000   F0           MOVX    @DPTR,A
   \   000001   90....       MOV     DPTR,#PITCounter
   \   000004   12....       LCALL   ?Subroutine83 & 0xFFFF
   \                     ??CrossCallReturnLabel_143:
   \   000007   22           RET

   \                                 In  segment BANKED_CODE, align 1, keep-with-next
   \                     ?Subroutine114:
   \   000000   75F014       MOV     B,#0x14
   \   000003   A4           MUL     AB
   \   000004   F8           MOV     R0,A
   \   000005   AAF0         MOV     R2,B
   \   000007   75F014       MOV     B,#0x14
   \   00000A   E9           MOV     A,R1
   \   00000B   A4           MUL     AB
   \   00000C   2A           ADD     A,R2
   \   00000D   F9           MOV     R1,A
   \   00000E   74..         MOV     A,#PendingTable & 0xff
   \   000010   28           ADD     A,R0
   \   000011   F8           MOV     R0,A
   \   000012   74..         MOV     A,#(PendingTable >> 8) & 0xff
   \   000014   22           RET
    940          
    941          //PIT表中未找到interestname则插入interestname和incommingQueue

   \                                 In  segment BANKED_CODE, align 1, keep-with-next
    942          void InsertNamePIT(Interest interest)
   \                     InsertNamePIT:
    943          {
   \   000000   74F7         MOV     A,#-0x9
   \   000002   12....       LCALL   ?BANKED_ENTER_XDATA
   \   000005                ; Saved register size: 9
   \   000005                ; Auto size: 0
    944            int	temp;
    945            //若PIT表未满
    946            if(PITCounter<PendingNumber)
   \   000005   90....       MOV     DPTR,#PITCounter
   \   000008   12....       LCALL   ?Subroutine45 & 0xFFFF
   \                     ??CrossCallReturnLabel_83:
   \   00000B   5024         JNC     ??InsertNamePIT_0
    947            {	
    948              //PIT存储Interest相关内容
    949              PendingTable[PITCounter].interestName.DestinationID=interest.interestName.DestinationID;	
   \   00000D   90....       MOV     DPTR,#PITCounter
   \   000010   12....       LCALL   ?Subroutine47 & 0xFFFF
   \                     ??CrossCallReturnLabel_89:
   \   000013   12....       LCALL   ?Subroutine71 & 0xFFFF
   \                     ??CrossCallReturnLabel_122:
   \   000016   12....       LCALL   ?XSTACK_DISP0_8
   \   000019   12....       LCALL   ?Subroutine27 & 0xFFFF
    950              PendingTable[PITCounter].interestName.DataFlag=interest.interestName.DataFlag;	
   \                     ??CrossCallReturnLabel_46:
   \   00001C   12....       LCALL   ?XSTACK_DISP0_8
   \   00001F   12....       LCALL   ?Subroutine28 & 0xFFFF
    951              PendingTable[PITCounter].interestName.PackageCounter=interest.interestName.PackageCounter;	
   \                     ??CrossCallReturnLabel_50:
   \   000022   12....       LCALL   ?XSTACK_DISP0_8
   \   000025   12....       LCALL   ?Subroutine8 & 0xFFFF
    952              //PIT存储其他内容
    953              PendingTable[PITCounter].IncomingQueue[PendingTable[PITCounter].IncomingNumber]=AcceptInterest.LastID;	
    954              PendingTable[PITCounter].IncomingNumber++;	
    955              PendingTable[PITCounter].time=0;//time需要定时的来更新，后续处理	
   \                     ??CrossCallReturnLabel_5:
   \   000028   F0           MOVX    @DPTR,A
    956              PITCounter++;
   \   000029   90....       MOV     DPTR,#PITCounter
   \   00002C   12....       LCALL   ??Subroutine136_0 & 0xFFFF
    957            }
   \                     ??CrossCallReturnLabel_253:
   \   00002F   803E         SJMP    ??CrossCallReturnLabel_6
    958              //若PIT表已经装满，需要使用替换策略进行替换，我们淘汰掉最长等待时间的条目
    959            else
    960            {
    961               temp=0;
   \                     ??InsertNamePIT_0:
   \   000031   7800         MOV     R0,#0x0
   \   000033   7900         MOV     R1,#0x0
    962               for(temp_i=1;temp_i<PITCounter;++temp_i)
   \   000035   90....       MOV     DPTR,#temp_i
   \   000038   12....       LCALL   ??Subroutine145_0 & 0xFFFF
    963               {
    964          	if(PendingTable[temp].time<PendingTable[temp_i].time)			
   \                     ??CrossCallReturnLabel_319:
   \   00003B   12....       LCALL   ?Subroutine74 & 0xFFFF
   \                     ??CrossCallReturnLabel_128:
   \   00003E   C082         PUSH    DPL
   \   000040   C083         PUSH    DPH
   \   000042   12....       LCALL   ?Subroutine41 & 0xFFFF
   \                     ??CrossCallReturnLabel_76:
   \   000045   D083         POP     DPH
   \   000047   D082         POP     DPL
   \   000049   12....       LCALL   ?Subroutine61 & 0xFFFF
   \                     ??CrossCallReturnLabel_113:
   \   00004C   5003         JNC     ??CrossCallReturnLabel_370
    965                   temp=temp_i;
   \   00004E   12....       LCALL   ?Subroutine51 & 0xFFFF
    966               }
   \                     ??CrossCallReturnLabel_370:
   \   000051   12....       LCALL   ?Subroutine33 & 0xFFFF
   \                     ??CrossCallReturnLabel_259:
   \   000054   12....       LCALL   ?Subroutine17 & 0xFFFF
   \                     ??CrossCallReturnLabel_27:
   \   000057   40E2         JC      ??CrossCallReturnLabel_319
    967               //替换temp所在位置的内容r
    968               //PIT存储Interest相关内容
    969               PendingTable[temp].interestName.DestinationID=interest.interestName.DestinationID;
   \   000059   E8           MOV     A,R0
   \   00005A   12....       LCALL   ?Subroutine71 & 0xFFFF
    970               PendingTable[temp].interestName.DataFlag=interest.interestName.DataFlag;
    971               PendingTable[temp].interestName.PackageCounter=interest.interestName.PackageCounter;
    972               //PIT存储其他内容
    973               PendingTable[temp].IncomingQueue[PendingTable[temp].IncomingNumber]=AcceptInterest.LastID;	
    974               PendingTable[temp].IncomingNumber++;
    975               PendingTable[temp].time=0;
    976              }
   \                     ??CrossCallReturnLabel_123:
   \   00005D   12....       LCALL   ?XSTACK_DISP0_8
   \   000060   12....       LCALL   ?Subroutine27 & 0xFFFF
   \                     ??CrossCallReturnLabel_47:
   \   000063   12....       LCALL   ?XSTACK_DISP0_8
   \   000066   12....       LCALL   ?Subroutine28 & 0xFFFF
   \                     ??CrossCallReturnLabel_51:
   \   000069   12....       LCALL   ?XSTACK_DISP0_8
   \   00006C   12....       LCALL   ?Subroutine8 & 0xFFFF
   \                     ??CrossCallReturnLabel_6:
   \   00006F   02....       LJMP    ??Subroutine155_0 & 0xFFFF
    977          }

   \                                 In  segment BANKED_CODE, align 1, keep-with-next
   \                     ?Subroutine71:
   \   000000   12....       LCALL   ?Subroutine101 & 0xFFFF
   \                     ??CrossCallReturnLabel_167:
   \   000003   740B         MOV     A,#0xb
   \   000005   22           RET

   \                                 In  segment BANKED_CODE, align 1, keep-with-next
   \                     ?Subroutine8:
   \   000000   12....       LCALL   ?Subroutine84 & 0xFFFF
   \                     ??CrossCallReturnLabel_145:
   \   000003   12....       LCALL   ??Subroutine151_0 & 0xFFFF
   \                     ??CrossCallReturnLabel_343:
   \   000006   2410         ADD     A,#0x10
   \   000008   FA           MOV     R2,A
   \   000009   E9           MOV     A,R1
   \   00000A   3400         ADDC    A,#0x0
   \   00000C   FB           MOV     R3,A
   \   00000D   EA           MOV     A,R2
   \   00000E   FC           MOV     R4,A
   \   00000F   EB           MOV     A,R3
   \   000010   FD           MOV     R5,A
   \   000011   90....       MOV     DPTR,#AcceptInterest + 8
   \   000014   E0           MOVX    A,@DPTR
   \   000015   FE           MOV     R6,A
   \   000016   A3           INC     DPTR
   \   000017   E0           MOVX    A,@DPTR
   \   000018   FF           MOV     R7,A
   \   000019   8C82         MOV     DPL,R4
   \   00001B   8D83         MOV     DPH,R5
   \   00001D   12....       LCALL   ??Subroutine138_0 & 0xFFFF
   \                     ??CrossCallReturnLabel_263:
   \   000020   EA           MOV     A,R2
   \   000021   C3           CLR     C
   \   000022   33           RLC     A
   \   000023   FA           MOV     R2,A
   \   000024   EB           MOV     A,R3
   \   000025   33           RLC     A
   \   000026   FB           MOV     R3,A
   \   000027   E8           MOV     A,R0
   \   000028   2A           ADD     A,R2
   \   000029   F582         MOV     DPL,A
   \   00002B   E9           MOV     A,R1
   \   00002C   12....       LCALL   ?Subroutine103 & 0xFFFF
   \                     ??CrossCallReturnLabel_171:
   \   00002F   EE           MOV     A,R6
   \   000030   F0           MOVX    @DPTR,A
   \   000031   A3           INC     DPTR
   \   000032   EF           MOV     A,R7
   \   000033   F0           MOVX    @DPTR,A
   \   000034   8C82         MOV     DPL,R4
   \   000036   8D83         MOV     DPH,R5
   \   000038   12....       LCALL   ?Subroutine78 & 0xFFFF
   \                     ??CrossCallReturnLabel_273:
   \   00003B   E8           MOV     A,R0
   \   00003C   12....       LCALL   ?Subroutine97 & 0xFFFF
   \                     ??CrossCallReturnLabel_336:
   \   00003F   22           RET

   \                                 In  segment BANKED_CODE, align 1, keep-with-next
   \                     ?Subroutine103:
   \   000000   3B           ADDC    A,R3
   \   000001   F583         MOV     DPH,A
   \   000003   A3           INC     DPTR
   \   000004   A3           INC     DPTR
   \   000005   A3           INC     DPTR
   \   000006   A3           INC     DPTR
   \   000007   A3           INC     DPTR
   \   000008   A3           INC     DPTR
   \   000009   22           RET

   \                                 In  segment BANKED_CODE, align 1, keep-with-next
   \                     ?Subroutine74:
   \   000000   E8           MOV     A,R0
   \   000001   FA           MOV     R2,A
   \   000002   E9           MOV     A,R1
   \   000003   FB           MOV     R3,A
   \   000004   12....       LCALL   ?Subroutine102 & 0xFFFF
   \                     ??CrossCallReturnLabel_169:
   \   000007   F583         MOV     DPH,A
   \   000009   22           RET

   \                                 In  segment BANKED_CODE, align 1, keep-with-next
   \                     ?Subroutine41:
   \   000000   90....       MOV     DPTR,#temp_i
   \   000003   12....       LCALL   ??Subroutine138_0 & 0xFFFF
   \                     ??CrossCallReturnLabel_265:
   \   000006   12....       LCALL   ?Subroutine102 & 0xFFFF
   \                     ??CrossCallReturnLabel_168:
   \   000009   12....       LCALL   ?Subroutine96 & 0xFFFF
   \                     ??CrossCallReturnLabel_267:
   \   00000C   22           RET

   \                                 In  segment BANKED_CODE, align 1, keep-with-next
   \                     ?Subroutine102:
   \   000000   EA           MOV     A,R2
   \   000001   75F014       MOV     B,#0x14
   \   000004   A4           MUL     AB
   \   000005   FA           MOV     R2,A
   \   000006   ACF0         MOV     R4,B
   \   000008   75F014       MOV     B,#0x14
   \   00000B   EB           MOV     A,R3
   \   00000C   A4           MUL     AB
   \   00000D   2C           ADD     A,R4
   \   00000E   FB           MOV     R3,A
   \   00000F   74..         MOV     A,#(PendingTable + 18) & 0xff
   \   000011   2A           ADD     A,R2
   \   000012   F582         MOV     DPL,A
   \   000014   74..         MOV     A,#((PendingTable + 18) >> 8) & 0xff
   \   000016   3B           ADDC    A,R3
   \   000017   22           RET

   \                                 In  segment BANKED_CODE, align 1, keep-with-next
   \                     ?Subroutine96:
   \   000000   F583         MOV     DPH,A
   \   000002                REQUIRE ??Subroutine138_0
   \   000002                ; // Fall through to label ??Subroutine138_0

   \                                 In  segment BANKED_CODE, align 1, keep-with-next
   \                     ?Subroutine17:
   \   000000   F0           MOVX    @DPTR,A
   \   000001   90....       MOV     DPTR,#PITCounter
   \   000004   12....       LCALL   ??Subroutine138_0 & 0xFFFF
   \                     ??CrossCallReturnLabel_264:
   \   000007   7583..       MOV     DPH,#(temp_i >> 8) & 0xff
   \   00000A   7582..       MOV     DPL,#temp_i & 0xff
   \   00000D   C3           CLR     C
   \   00000E   E0           MOVX    A,@DPTR
   \   00000F   9A           SUBB    A,R2
   \   000010   A3           INC     DPTR
   \   000011   E0           MOVX    A,@DPTR
   \   000012   9B           SUBB    A,R3
   \   000013   A2D2         MOV     C,0xD0 /* PSW */.2
   \   000015   65D0         XRL     A,PSW
   \   000017   33           RLC     A
   \   000018   22           RET

   \                                 In  segment BANKED_CODE, align 1, keep-with-next
   \                     ?Subroutine101:
   \   000000   12....       LCALL   ?Subroutine114 & 0xFFFF
   \                     ??CrossCallReturnLabel_177:
   \   000003   39           ADDC    A,R1
   \   000004   F9           MOV     R1,A
   \   000005   22           RET

   \                                 In  segment BANKED_CODE, align 1, keep-with-next
   \                     ?Subroutine28:
   \   000000   12....       LCALL   ??Subroutine147_0 & 0xFFFF
   \                     ??CrossCallReturnLabel_325:
   \   000003   12....       LCALL   ?Subroutine106 & 0xFFFF
   \                     ??CrossCallReturnLabel_353:
   \   000006   740F         MOV     A,#0xf
   \   000008   22           RET

   \                                 In  segment BANKED_CODE, align 1, keep-with-next
   \                     ?Subroutine27:
   \   000000   12....       LCALL   ??Subroutine140_0 & 0xFFFF
   \                     ??CrossCallReturnLabel_282:
   \   000003   12....       LCALL   ?Subroutine106 & 0xFFFF
   \                     ??CrossCallReturnLabel_352:
   \   000006   740D         MOV     A,#0xd
   \   000008   22           RET

   \                                 In  segment BANKED_CODE, align 1, keep-with-next
   \                     ?Subroutine97:
   \   000000   2412         ADD     A,#0x12
   \   000002                REQUIRE ??Subroutine148_0
   \   000002                ; // Fall through to label ??Subroutine148_0

   \                                 In  segment BANKED_CODE, align 1, keep-with-next
   \                     ??Subroutine155_0:
   \   000000   F0           MOVX    @DPTR,A
   \   000001                REQUIRE ??Subroutine156_0
   \   000001                ; // Fall through to label ??Subroutine156_0
    978          
    979          //PIT表中找到了interestName则插入incommingQuere

   \                                 In  segment BANKED_CODE, align 1, keep-with-next
    980          void InsertIncomingPIT(uint8 i)
   \                     InsertIncomingPIT:
    981          {
   \   000000   74F6         MOV     A,#-0xa
   \   000002   12....       LCALL   ?BANKED_ENTER_XDATA
   \   000005                ; Saved register size: 10
   \   000005                ; Auto size: 0
    982            //目前只存储前5个到达的interest包
    983            if(PendingTable[i].IncomingNumber<5)
   \   000005   E9           MOV     A,R1
   \   000006   75F014       MOV     B,#0x14
   \   000009   A4           MUL     AB
   \   00000A   FA           MOV     R2,A
   \   00000B   ABF0         MOV     R3,B
   \   00000D   74..         MOV     A,#PendingTable & 0xff
   \   00000F   2A           ADD     A,R2
   \   000010   FC           MOV     R4,A
   \   000011   74..         MOV     A,#(PendingTable >> 8) & 0xff
   \   000013   3B           ADDC    A,R3
   \   000014   FD           MOV     R5,A
   \   000015   EC           MOV     A,R4
   \   000016   2410         ADD     A,#0x10
   \   000018   FA           MOV     R2,A
   \   000019   ED           MOV     A,R5
   \   00001A   3400         ADDC    A,#0x0
   \   00001C   FB           MOV     R3,A
   \   00001D   EA           MOV     A,R2
   \   00001E   FE           MOV     R6,A
   \   00001F   EB           MOV     A,R3
   \   000020   FF           MOV     R7,A
   \   000021   8E82         MOV     DPL,R6
   \   000023   8F83         MOV     DPH,R7
   \   000025   12....       LCALL   ??Subroutine125_0 & 0xFFFF
   \                     ??CrossCallReturnLabel_207:
   \   000028   C3           CLR     C
   \   000029   EA           MOV     A,R2
   \   00002A   9405         SUBB    A,#0x5
   \   00002C   EB           MOV     A,R3
   \   00002D   9400         SUBB    A,#0x0
   \   00002F   501E         JNC     ??CrossCallReturnLabel_38
    984            {	
    985              PendingTable[i].IncomingQueue[PendingTable[i].IncomingNumber]=AcceptInterest.LastID;	
   \   000031   90....       MOV     DPTR,#AcceptInterest + 8
   \   000034   12....       LCALL   ?Subroutine89 & 0xFFFF
    986              PendingTable[i].IncomingNumber++;  // pitcounter 替换为 i
    987            }
   \                     ??CrossCallReturnLabel_153:
   \   000037   EA           MOV     A,R2
   \   000038   C3           CLR     C
   \   000039   33           RLC     A
   \   00003A   FA           MOV     R2,A
   \   00003B   EB           MOV     A,R3
   \   00003C   33           RLC     A
   \   00003D   FB           MOV     R3,A
   \   00003E   EC           MOV     A,R4
   \   00003F   2A           ADD     A,R2
   \   000040   F582         MOV     DPL,A
   \   000042   ED           MOV     A,R5
   \   000043   12....       LCALL   ?Subroutine103 & 0xFFFF
   \                     ??CrossCallReturnLabel_170:
   \   000046   E5..         MOV     A,?V0 + 0
   \   000048   F0           MOVX    @DPTR,A
   \   000049   A3           INC     DPTR
   \   00004A   E5..         MOV     A,?V0 + 1
   \   00004C   12....       LCALL   ?Subroutine22 & 0xFFFF
    988          }
   \                     ??CrossCallReturnLabel_38:
   \   00004F   02....       LJMP    ??Subroutine118_0 & 0xFFFF

   \                                 In  segment BANKED_CODE, align 1, keep-with-next
   \                     ?Subroutine22:
   \   000000   F0           MOVX    @DPTR,A
   \   000001   8E82         MOV     DPL,R6
   \   000003   8F83         MOV     DPH,R7
   \   000005   12....       LCALL   ?Subroutine78 & 0xFFFF
   \                     ??CrossCallReturnLabel_274:
   \   000008   22           RET
    989          
    990          //PIT表中查找Data知否为等待的data

   \                                 In  segment BANKED_CODE, align 1, keep-with-next
    991          int PendingTableFindData(Data data)
   \                     PendingTableFindData:
    992          {
   \   000000   74F7         MOV     A,#-0x9
   \   000002   12....       LCALL   ?BANKED_ENTER_XDATA
   \   000005                ; Saved register size: 9
   \   000005                ; Auto size: 0
    993            //Interst包中InterestName临时进行存储
    994            tempInterName.DestinationID=data.interestName.DestinationID;
   \   000005   740B         MOV     A,#0xb
   \   000007   12....       LCALL   ?XSTACK_DISP0_8
   \   00000A   12....       LCALL   ?Subroutine35 & 0xFFFF
    995            tempInterName.DataFlag=data.interestName.DataFlag;
   \                     ??CrossCallReturnLabel_60:
   \   00000D   12....       LCALL   ?XSTACK_DISP0_8
   \   000010   12....       LCALL   ?Subroutine36 & 0xFFFF
    996            tempInterName.PackageCounter=data.interestName.PackageCounter;
   \                     ??CrossCallReturnLabel_63:
   \   000013   12....       LCALL   ?XSTACK_DISP0_8
   \   000016   12....       LCALL   ?Subroutine20 & 0xFFFF
    997            for(temp_i=0;temp_i<PITCounter;temp_i++)
   \                     ??CrossCallReturnLabel_35:
   \   000019   8003         SJMP    ??CrossCallReturnLabel_254
   \                     ??PendingTableFindData_0:
   \   00001B   12....       LCALL   ??Subroutine136_0 & 0xFFFF
   \                     ??CrossCallReturnLabel_254:
   \   00001E   12....       LCALL   ?Subroutine10 & 0xFFFF
   \                     ??CrossCallReturnLabel_10:
   \   000021   503A         JNC     ??PendingTableFindData_1
    998            {	
    999              temp_j=0;		
   \   000023   12....       LCALL   ?Subroutine13 & 0xFFFF
   1000              if(tempInterName.DestinationID==PendingTable[temp_i].interestName.DestinationID)	
   \                     ??CrossCallReturnLabel_18:
   \   000026   7003         JNZ     ??PendingTableFindData_2
   \   000028   A3           INC     DPTR
   \   000029   E0           MOVX    A,@DPTR
   \   00002A   6B           XRL     A,R3
   \                     ??PendingTableFindData_2:
   \   00002B   7003         JNZ     ??CrossCallReturnLabel_323
   1001              {		
   1002                ++temp_j;	
   \   00002D   12....       LCALL   ?Subroutine30 & 0xFFFF
   1003              }	
   1004              if(tempInterName.DataFlag==PendingTable[temp_i].interestName.DataFlag)	
   \                     ??CrossCallReturnLabel_323:
   \   000030   8882         MOV     DPL,R0
   \   000032   8983         MOV     DPH,R1
   \   000034   A3           INC     DPTR
   \   000035   A3           INC     DPTR
   \   000036   E0           MOVX    A,@DPTR
   \   000037   6E           XRL     A,R6
   \   000038   7003         JNZ     ??PendingTableFindData_3
   \   00003A   A3           INC     DPTR
   \   00003B   E0           MOVX    A,@DPTR
   \   00003C   6F           XRL     A,R7
   \                     ??PendingTableFindData_3:
   \   00003D   7003         JNZ     ??CrossCallReturnLabel_244
   1005              {		
   1006                ++temp_j;	
   \   00003F   12....       LCALL   ?Subroutine32 & 0xFFFF
   1007              }		
   1008              if(tempInterName.PackageCounter==PendingTable[temp_i].interestName.PackageCounter)	
   \                     ??CrossCallReturnLabel_244:
   \   000042   8882         MOV     DPL,R0
   \   000044   8983         MOV     DPH,R1
   \   000046   A3           INC     DPTR
   \   000047   A3           INC     DPTR
   \   000048   A3           INC     DPTR
   \   000049   A3           INC     DPTR
   \   00004A   E0           MOVX    A,@DPTR
   \   00004B   6C           XRL     A,R4
   \   00004C   7003         JNZ     ??PendingTableFindData_4
   \   00004E   A3           INC     DPTR
   \   00004F   E0           MOVX    A,@DPTR
   \   000050   6D           XRL     A,R5
   \                     ??PendingTableFindData_4:
   \   000051   7003         JNZ     ??CrossCallReturnLabel_245
   1009              {		
   1010                ++temp_j;	
   \   000053   12....       LCALL   ?Subroutine32 & 0xFFFF
   1011              }		
   1012              if(temp_j==3)	
   \                     ??CrossCallReturnLabel_245:
   \   000056   12....       LCALL   ?Subroutine62 & 0xFFFF
   \                     ??CrossCallReturnLabel_117:
   \   000059   70C0         JNZ     ??PendingTableFindData_0
   1013              {		
   1014                return temp_i;	
   \   00005B   8003         SJMP    ??PendingTableFindData_5
   1015              }
   1016            }
   1017            //如果temp_i不为PITCounter则查找成功，否则查找失败
   1018            return PITCounter;
   \                     ??PendingTableFindData_1:
   \   00005D   90....       MOV     DPTR,#PITCounter
   \                     ??PendingTableFindData_5:
   \   000060   02....       LJMP    ?Subroutine5 & 0xFFFF
   1019          }
   1020          
   1021          //PIT表中删除操作，根据已经存在的time，删除长时间的

   \                                 In  segment BANKED_CODE, align 1, keep-with-next
   1022          void DeleteItemPIT( void )
   \                     DeleteItemPIT:
   1023          {
   \   000000   74F7         MOV     A,#-0x9
   \   000002   12....       LCALL   ?BANKED_ENTER_XDATA
   \   000005                ; Saved register size: 9
   \   000005                ; Auto size: 0
   1024            int temp;
   1025            temp=0;
   \   000005   7800         MOV     R0,#0x0
   \   000007   7900         MOV     R1,#0x0
   1026            for(temp_i=0;temp_i<PITCounter;++temp_i)
   \   000009   90....       MOV     DPTR,#temp_i
   \   00000C   E4           CLR     A
   \   00000D   F0           MOVX    @DPTR,A
   \   00000E   A3           INC     DPTR
   \   00000F   8019         SJMP    ??CrossCallReturnLabel_260
   1027            {	
   1028              if(PendingTable[temp].time<PendingTable[temp_i].time)	
   \                     ??DeleteItemPIT_0:
   \   000011   12....       LCALL   ?Subroutine74 & 0xFFFF
   \                     ??CrossCallReturnLabel_129:
   \   000014   C082         PUSH    DPL
   \   000016   C083         PUSH    DPH
   \   000018   12....       LCALL   ?Subroutine41 & 0xFFFF
   \                     ??CrossCallReturnLabel_77:
   \   00001B   D083         POP     DPH
   \   00001D   D082         POP     DPL
   \   00001F   12....       LCALL   ?Subroutine61 & 0xFFFF
   \                     ??CrossCallReturnLabel_114:
   \   000022   5003         JNC     ??CrossCallReturnLabel_371
   1029              {		
   1030                temp=temp_i;	
   \   000024   12....       LCALL   ?Subroutine51 & 0xFFFF
   1031              }
   1032            }	
   \                     ??CrossCallReturnLabel_371:
   \   000027   12....       LCALL   ?Subroutine33 & 0xFFFF
   \                     ??CrossCallReturnLabel_260:
   \   00002A   12....       LCALL   ?Subroutine17 & 0xFFFF
   \                     ??CrossCallReturnLabel_28:
   \   00002D   40E2         JC      ??DeleteItemPIT_0
   1033            if(temp<PITCounter-1)
   \   00002F   90....       MOV     DPTR,#PITCounter
   \   000032   12....       LCALL   ?Subroutine59 & 0xFFFF
   \                     ??CrossCallReturnLabel_107:
   \   000035   12....       LCALL   ?Subroutine75 & 0xFFFF
   \                     ??CrossCallReturnLabel_131:
   \   000038   5019         JNC     ??DeleteItemPIT_1
   1034            {
   1035              for(temp_i=temp;temp_i<PITCounter;++temp_i)	
   \   00003A   90....       MOV     DPTR,#temp_i
   \   00003D   E8           MOV     A,R0
   \   00003E   F0           MOVX    @DPTR,A
   \   00003F   A3           INC     DPTR
   \   000040   E9           MOV     A,R1
   \   000041   800B         SJMP    ??CrossCallReturnLabel_19
   1036              {		
   1037                PendingTable[temp_i].interestName.DestinationID=PendingTable[temp_i+1].interestName.DestinationID;		
   \                     ??DeleteItemPIT_2:
   \   000043   12....       LCALL   ?Subroutine11 & 0xFFFF
   1038                PendingTable[temp_i].interestName.DataFlag=PendingTable[temp_i+1].interestName.DataFlag;		
   1039                PendingTable[temp_i].interestName.PackageCounter=PendingTable[temp_i+1].interestName.PackageCounter;
   1040                for(temp_j=0;temp_j<5;++temp_j)		
   1041                {   
   1042                     PendingTable[temp_i].IncomingQueue[temp_j]=PendingTable[temp_i+1].IncomingQueue[temp_j];	
   \                     ??CrossCallReturnLabel_13:
   \   000046   12....       LCALL   ?Subroutine7 & 0xFFFF
   1043                }	
   \                     ??CrossCallReturnLabel_269:
   \   000049   40FB         JC      ??CrossCallReturnLabel_13
   1044                PendingTable[temp_i].IncomingNumber=PendingTable[temp_i+1].IncomingNumber;	
   \   00004B   12....       LCALL   ?Subroutine14 & 0xFFFF
   1045                PendingTable[temp_i].time=PendingTable[temp_i+1].time;	
   1046              }		
   \                     ??CrossCallReturnLabel_19:
   \   00004E   12....       LCALL   ?Subroutine10 & 0xFFFF
   \                     ??CrossCallReturnLabel_11:
   \   000051   40F0         JC      ??DeleteItemPIT_2
   1047              PITCounter--;
   \                     ??DeleteItemPIT_1:
   \   000053   02....       LJMP    ?Subroutine3 & 0xFFFF
   1048            }
   1049            else
   1050            {	
   1051              PITCounter--;
   1052            }
   1053          }

   \                                 In  segment BANKED_CODE, align 1, keep-with-next
   \                     ?Subroutine7:
   \   000000   12....       LCALL   ?Subroutine87 & 0xFFFF
   \                     ??CrossCallReturnLabel_150:
   \   000003   241A         ADD     A,#0x1a
   \   000005                REQUIRE ??Subroutine139_0
   \   000005                ; // Fall through to label ??Subroutine139_0

   \                                 In  segment BANKED_CODE, align 1, keep-with-next
   \                     ??Subroutine139_0:
   \   000000   F582         MOV     DPL,A
   \   000002   EB           MOV     A,R3
   \   000003   12....       LCALL   ??Subroutine158_0 & 0xFFFF
   \                     ??CrossCallReturnLabel_382:
   \   000006   E0           MOVX    A,@DPTR
   \   000007   FC           MOV     R4,A
   \   000008   A3           INC     DPTR
   \   000009   E0           MOVX    A,@DPTR
   \   00000A   FD           MOV     R5,A
   \   00000B   8A82         MOV     DPL,R2
   \   00000D   8B83         MOV     DPH,R3
   \   00000F   A3           INC     DPTR
   \   000010   A3           INC     DPTR
   \   000011   A3           INC     DPTR
   \   000012   A3           INC     DPTR
   \   000013   A3           INC     DPTR
   \   000014   A3           INC     DPTR
   \   000015   EC           MOV     A,R4
   \   000016   F0           MOVX    @DPTR,A
   \   000017   A3           INC     DPTR
   \   000018   ED           MOV     A,R5
   \   000019   F0           MOVX    @DPTR,A
   \   00001A   90....       MOV     DPTR,#temp_j
   \   00001D   12....       LCALL   ?Subroutine78 & 0xFFFF
   \                     ??CrossCallReturnLabel_277:
   \   000020   90....       MOV     DPTR,#temp_j
   \   000023   C3           CLR     C
   \   000024   E0           MOVX    A,@DPTR
   \   000025   9405         SUBB    A,#0x5
   \   000027   12....       LCALL   ?Subroutine94 & 0xFFFF
   \                     ??CrossCallReturnLabel_279:
   \   00002A   22           RET

   \                                 In  segment BANKED_CODE, align 1, keep-with-next
   \                     ?Subroutine14:
   \   000000   E8           MOV     A,R0
   \   000001   2424         ADD     A,#0x24
   \   000003   12....       LCALL   ?Subroutine77 & 0xFFFF
   \                     ??CrossCallReturnLabel_338:
   \   000006   2426         ADD     A,#0x26
   \   000008   12....       LCALL   ?Subroutine95 & 0xFFFF
   \                     ??CrossCallReturnLabel_160:
   \   00000B   12....       LCALL   ?Subroutine79 & 0xFFFF
   \                     ??CrossCallReturnLabel_134:
   \   00000E   22           RET

   \                                 In  segment BANKED_CODE, align 1, keep-with-next
   \                     ?Subroutine11:
   \   000000   90....       MOV     DPTR,#temp_i
   \   000003   12....       LCALL   ?Subroutine88 & 0xFFFF
   \                     ??CrossCallReturnLabel_300:
   \   000006   12....       LCALL   ?Subroutine101 & 0xFFFF
   \                     ??CrossCallReturnLabel_166:
   \   000009   E8           MOV     A,R0
   \   00000A   2414         ADD     A,#0x14
   \   00000C   12....       LCALL   ?Subroutine91 & 0xFFFF
   \                     ??CrossCallReturnLabel_283:
   \   00000F   12....       LCALL   ??Subroutine151_0 & 0xFFFF
   \                     ??CrossCallReturnLabel_344:
   \   000012   2416         ADD     A,#0x16
   \   000014   12....       LCALL   ?Subroutine85 & 0xFFFF
   \                     ??CrossCallReturnLabel_328:
   \   000017   12....       LCALL   ?Subroutine76 & 0xFFFF
   \                     ??CrossCallReturnLabel_132:
   \   00001A   12....       LCALL   ?Subroutine82 & 0xFFFF
   \                     ??CrossCallReturnLabel_140:
   \   00001D   22           RET

   \                                 In  segment BANKED_CODE, align 1, keep-with-next
   \                     ?Subroutine91:
   \   000000   12....       LCALL   ?Subroutine113 & 0xFFFF
   \                     ??CrossCallReturnLabel_387:
   \   000003                REQUIRE ??Subroutine140_0
   \   000003                ; // Fall through to label ??Subroutine140_0

   \                                 In  segment BANKED_CODE, align 1, keep-with-next
   \                     ?Subroutine85:
   \   000000   12....       LCALL   ?Subroutine113 & 0xFFFF
   \                     ??CrossCallReturnLabel_386:
   \   000003                REQUIRE ??Subroutine147_0
   \   000003                ; // Fall through to label ??Subroutine147_0

   \                                 In  segment BANKED_CODE, align 1, keep-with-next
   \                     ?Subroutine77:
   \   000000   12....       LCALL   ?Subroutine109 & 0xFFFF
   \                     ??CrossCallReturnLabel_348:
   \   000003   E8           MOV     A,R0
   \   000004   2410         ADD     A,#0x10
   \   000006                REQUIRE ??Subroutine150_0
   \   000006                ; // Fall through to label ??Subroutine150_0

   \                                 In  segment BANKED_CODE, align 1, keep-with-next
   \                     ??Subroutine150_0:
   \   000000   12....       LCALL   ?Subroutine113 & 0xFFFF
   \                     ??CrossCallReturnLabel_389:
   \   000003                REQUIRE ??Subroutine151_0
   \   000003                ; // Fall through to label ??Subroutine151_0

   \                                 In  segment BANKED_CODE, align 1, keep-with-next
   \                     ?Subroutine109:
   \   000000   F582         MOV     DPL,A
   \   000002   E9           MOV     A,R1
   \   000003   3400         ADDC    A,#0x0
   \   000005   F583         MOV     DPH,A
   \   000007                REQUIRE ??Subroutine152_0
   \   000007                ; // Fall through to label ??Subroutine152_0

   \                                 In  segment BANKED_CODE, align 1, keep-with-next
   \                     ?Subroutine3:
   \   000000   90....       MOV     DPTR,#PITCounter
   \   000003                REQUIRE ??Subroutine154_0
   \   000003                ; // Fall through to label ??Subroutine154_0

   \                                 In  segment BANKED_CODE, align 1, keep-with-next
   \                     ??Subroutine154_0:
   \   000000   12....       LCALL   ?Subroutine64 & 0xFFFF
   \                     ??CrossCallReturnLabel_359:
   \   000003                REQUIRE ??Subroutine155_0
   \   000003                ; // Fall through to label ??Subroutine155_0

   \                                 In  segment BANKED_CODE, align 1, keep-with-next
   \                     ?Subroutine87:
   \   000000   90....       MOV     DPTR,#temp_j
   \   000003   12....       LCALL   ??Subroutine152_0 & 0xFFFF
   \                     ??CrossCallReturnLabel_347:
   \   000006   EA           MOV     A,R2
   \   000007   C3           CLR     C
   \   000008   33           RLC     A
   \   000009   FA           MOV     R2,A
   \   00000A   EB           MOV     A,R3
   \   00000B   33           RLC     A
   \   00000C   FB           MOV     R3,A
   \   00000D   E8           MOV     A,R0
   \   00000E   2A           ADD     A,R2
   \   00000F   FA           MOV     R2,A
   \   000010   E9           MOV     A,R1
   \   000011   3B           ADDC    A,R3
   \   000012   FB           MOV     R3,A
   \   000013   EA           MOV     A,R2
   \   000014   22           RET

   \                                 In  segment BANKED_CODE, align 1, keep-with-next
   \                     ?Subroutine82:
   \   000000   A3           INC     DPTR
   \   000001   A3           INC     DPTR
   \   000002   12....       LCALL   ?Subroutine106 & 0xFFFF
   \                     ??CrossCallReturnLabel_356:
   \   000005   90....       MOV     DPTR,#temp_j
   \   000008   E4           CLR     A
   \   000009   F0           MOVX    @DPTR,A
   \   00000A   A3           INC     DPTR
   \   00000B   F0           MOVX    @DPTR,A
   \   00000C   22           RET

   \                                 In  segment BANKED_CODE, align 1, keep-with-next
   \                     ?Subroutine76:
   \   000000   12....       LCALL   ?Subroutine106 & 0xFFFF
   \                     ??CrossCallReturnLabel_354:
   \   000003   E8           MOV     A,R0
   \   000004   2418         ADD     A,#0x18
   \   000006   12....       LCALL   ?Subroutine113 & 0xFFFF
   \                     ??CrossCallReturnLabel_384:
   \   000009   12....       LCALL   ?Subroutine107 & 0xFFFF
   \                     ??CrossCallReturnLabel_330:
   \   00000C   22           RET

   \                                 In  segment BANKED_CODE, align 1, keep-with-next
   \                     ?Subroutine95:
   \   000000   12....       LCALL   ?Subroutine109 & 0xFFFF
   \                     ??CrossCallReturnLabel_349:
   \   000003   E8           MOV     A,R0
   \   000004   2412         ADD     A,#0x12
   \   000006   22           RET

   \                                 In  segment BANKED_CODE, align 1, keep-with-next
   \                     ?Subroutine79:
   \   000000   12....       LCALL   ?Subroutine113 & 0xFFFF
   \                     ??CrossCallReturnLabel_385:
   \   000003   12....       LCALL   ?Subroutine106 & 0xFFFF
   \                     ??CrossCallReturnLabel_355:
   \   000006   90....       MOV     DPTR,#temp_i
   \   000009   12....       LCALL   ?Subroutine112 & 0xFFFF
   \                     ??CrossCallReturnLabel_280:
   \   00000C   22           RET
   1054          
   1055          //PIT表中删除特定的Item

   \                                 In  segment BANKED_CODE, align 1, keep-with-next
   1056          void DeleteItemPITS(int i)
   \                     DeleteItemPITS:
   1057          {
   \   000000   74F7         MOV     A,#-0x9
   \   000002   12....       LCALL   ?BANKED_ENTER_XDATA
   \   000005                ; Saved register size: 9
   \   000005                ; Auto size: 0
   1058            if(i<PITCounter-1)
   \   000005   90....       MOV     DPTR,#PITCounter
   \   000008   12....       LCALL   ?Subroutine46 & 0xFFFF
   \                     ??CrossCallReturnLabel_85:
   \   00000B   5019         JNC     ??DeleteItemPITS_0
   1059            {	
   1060              for(temp_i=i;temp_i<PITCounter;++temp_i)	
   \   00000D   90....       MOV     DPTR,#temp_i
   \   000010   EA           MOV     A,R2
   \   000011   F0           MOVX    @DPTR,A
   \   000012   A3           INC     DPTR
   \   000013   EB           MOV     A,R3
   \   000014   800B         SJMP    ??CrossCallReturnLabel_20
   1061              {		
   1062                PendingTable[temp_i].interestName.DestinationID=PendingTable[temp_i+1].interestName.DestinationID;		
   \                     ??DeleteItemPITS_1:
   \   000016   12....       LCALL   ?Subroutine11 & 0xFFFF
   1063                PendingTable[temp_i].interestName.DataFlag=PendingTable[temp_i+1].interestName.DataFlag;		
   1064                PendingTable[temp_i].interestName.PackageCounter=PendingTable[temp_i+1].interestName.PackageCounter;
   1065                for(temp_j=0;temp_j<5;++temp_j)		
   1066                {			
   1067                  PendingTable[temp_i].IncomingQueue[temp_j]=PendingTable[temp_i+1].IncomingQueue[temp_j];		
   \                     ??CrossCallReturnLabel_14:
   \   000019   12....       LCALL   ?Subroutine7 & 0xFFFF
   1068                }		
   \                     ??CrossCallReturnLabel_270:
   \   00001C   40FB         JC      ??CrossCallReturnLabel_14
   1069                PendingTable[temp_i].IncomingNumber=PendingTable[temp_i+1].IncomingNumber;		
   \   00001E   12....       LCALL   ?Subroutine14 & 0xFFFF
   1070                PendingTable[temp_i].time=PendingTable[temp_i+1].time;
   1071              }	
   \                     ??CrossCallReturnLabel_20:
   \   000021   12....       LCALL   ?Subroutine10 & 0xFFFF
   \                     ??CrossCallReturnLabel_12:
   \   000024   40F0         JC      ??DeleteItemPITS_1
   1072                PITCounter--;
   \                     ??DeleteItemPITS_0:
   \   000026   02....       LJMP    ?Subroutine3 & 0xFFFF
   1073            }
   1074            else
   1075            {	
   1076              PITCounter--;
   1077            }
   1078          }

   \                                 In  segment BANKED_CODE, align 1, keep-with-next
   \                     ?Subroutine46:
   \   000000   E0           MOVX    A,@DPTR
   \   000001   24FF         ADD     A,#-0x1
   \   000003   F8           MOV     R0,A
   \   000004   A3           INC     DPTR
   \   000005   E0           MOVX    A,@DPTR
   \   000006   34FF         ADDC    A,#-0x1
   \   000008   F9           MOV     R1,A
   \   000009   C3           CLR     C
   \   00000A   EA           MOV     A,R2
   \   00000B   98           SUBB    A,R0
   \   00000C   EB           MOV     A,R3
   \   00000D   12....       LCALL   ?Subroutine100 & 0xFFFF
   \                     ??CrossCallReturnLabel_165:
   \   000010   22           RET
   1079          
   1080          /////////////////////////////////////////////////////////////////////////////////////////////
   1081          //FIB表相关操作
   1082          //FIB表查找interest，使用模糊查询，即只是比较DestinationID和DataFlag即可，不需要需要批次一样。

   \                                 In  segment BANKED_CODE, align 1, keep-with-next
   1083          int ForwardingTableFinder(Interest interest)
   \                     ForwardingTableFinder:
   1084          {
   \   000000   C082         PUSH    DPL
   \   000002   C083         PUSH    DPH
   \   000004                ; Saved register size: 2
   \   000004                ; Auto size: 0
   1085            //Interst包中InterestName临时进行存储
   1086            tempInterName.DestinationID=interest.interestName.DestinationID;
   \   000004   7402         MOV     A,#0x2
   \   000006   12....       LCALL   ?XSTACK_DISP0_8
   \   000009   12....       LCALL   ??Subroutine157_0 & 0xFFFF
   \                     ??CrossCallReturnLabel_364:
   \   00000C   90....       MOV     DPTR,#tempInterName
   \   00000F   E8           MOV     A,R0
   \   000010   F0           MOVX    @DPTR,A
   \   000011   A3           INC     DPTR
   \   000012   E9           MOV     A,R1
   \   000013   F0           MOVX    @DPTR,A
   1087            tempInterName.DataFlag=interest.interestName.DataFlag;
   \   000014   7404         MOV     A,#0x4
   \   000016   12....       LCALL   ?XSTACK_DISP0_8
   \   000019   12....       LCALL   ??Subroutine157_0 & 0xFFFF
   \                     ??CrossCallReturnLabel_365:
   \   00001C   90....       MOV     DPTR,#tempInterName + 2
   \   00001F   E8           MOV     A,R0
   \   000020   F0           MOVX    @DPTR,A
   \   000021   A3           INC     DPTR
   \   000022   E9           MOV     A,R1
   \   000023   F0           MOVX    @DPTR,A
   1088            tempInterName.PackageCounter=interest.interestName.PackageCounter;
   \   000024   7406         MOV     A,#0x6
   \   000026   12....       LCALL   ?XSTACK_DISP0_8
   \   000029   12....       LCALL   ??Subroutine157_0 & 0xFFFF
   \                     ??CrossCallReturnLabel_366:
   \   00002C   90....       MOV     DPTR,#tempInterName + 4
   \   00002F   E8           MOV     A,R0
   \   000030   F0           MOVX    @DPTR,A
   \   000031   A3           INC     DPTR
   \   000032   E9           MOV     A,R1
   \   000033   F0           MOVX    @DPTR,A
   1089            for(temp_i=0;temp_i<FIBCounter;temp_i++)
   \   000034   90....       MOV     DPTR,#temp_i
   \   000037   E4           CLR     A
   \   000038   F0           MOVX    @DPTR,A
   \   000039   A3           INC     DPTR
   \   00003A   8003         SJMP    ??CrossCallReturnLabel_255
   \                     ??ForwardingTableFinder_0:
   \   00003C   12....       LCALL   ??Subroutine136_0 & 0xFFFF
   \                     ??CrossCallReturnLabel_255:
   \   00003F   12....       LCALL   ?Subroutine6 & 0xFFFF
   \                     ??CrossCallReturnLabel_0:
   \   000042   5032         JNC     ??ForwardingTableFinder_1
   1090            {	
   1091              temp_j=0;		
   \   000044   12....       LCALL   ?Subroutine26 & 0xFFFF
   1092              if(tempInterName.DestinationID==ForwardingTable[temp_i].interestName.DestinationID)	
   \                     ??CrossCallReturnLabel_45:
   \   000047   12....       LCALL   ?Subroutine73 & 0xFFFF
   \                     ??CrossCallReturnLabel_126:
   \   00004A   12....       LCALL   ?Subroutine52 & 0xFFFF
   \                     ??CrossCallReturnLabel_97:
   \   00004D   7003         JNZ     ??ForwardingTableFinder_2
   \   00004F   A3           INC     DPTR
   \   000050   E0           MOVX    A,@DPTR
   \   000051   6B           XRL     A,R3
   \                     ??ForwardingTableFinder_2:
   \   000052   7003         JNZ     ??CrossCallReturnLabel_324
   1093              {		
   1094                ++temp_j;	
   \   000054   12....       LCALL   ?Subroutine30 & 0xFFFF
   1095              }	
   1096              if(tempInterName.DataFlag==ForwardingTable[temp_i].interestName.DataFlag)	
   \                     ??CrossCallReturnLabel_324:
   \   000057   90....       MOV     DPTR,#tempInterName + 2
   \   00005A   12....       LCALL   ?Subroutine53 & 0xFFFF
   \                     ??CrossCallReturnLabel_99:
   \   00005D   E0           MOVX    A,@DPTR
   \   00005E   6A           XRL     A,R2
   \   00005F   7003         JNZ     ??ForwardingTableFinder_3
   \   000061   A3           INC     DPTR
   \   000062   E0           MOVX    A,@DPTR
   \   000063   6B           XRL     A,R3
   \                     ??ForwardingTableFinder_3:
   \   000064   7003         JNZ     ??CrossCallReturnLabel_246
   1097              {		
   1098                ++temp_j;	
   \   000066   12....       LCALL   ?Subroutine32 & 0xFFFF
   1099              }	
   1100              if(temp_j==2)	
   \                     ??CrossCallReturnLabel_246:
   \   000069   90....       MOV     DPTR,#temp_j
   \   00006C   E0           MOVX    A,@DPTR
   \   00006D   6402         XRL     A,#0x2
   \   00006F   90....       MOV     DPTR,#temp_i
   \   000072   70C8         JNZ     ??ForwardingTableFinder_0
   1101              {		
   1102                return temp_i;	
   \   000074   8003         SJMP    ??ForwardingTableFinder_4
   1103              }
   1104            }
   1105            //如果temp_i不为FIBCounter则查找成功，否则查找失败
   1106            return FIBCounter;
   \                     ??ForwardingTableFinder_1:
   \   000076   90....       MOV     DPTR,#FIBCounter
   \                     ??ForwardingTableFinder_4:
   \   000079   12....       LCALL   ??Subroutine125_0 & 0xFFFF
   \                     ??CrossCallReturnLabel_208:
   \   00007C   02....       LJMP    ?Subroutine2 & 0xFFFF
   1107          }

   \                                 In  segment BANKED_CODE, align 1, keep-with-next
   \                     ?Subroutine73:
   \   000000   75F016       MOV     B,#0x16
   \   000003   A4           MUL     AB
   \   000004   F8           MOV     R0,A
   \   000005   AAF0         MOV     R2,B
   \   000007   75F016       MOV     B,#0x16
   \   00000A   E9           MOV     A,R1
   \   00000B   A4           MUL     AB
   \   00000C   2A           ADD     A,R2
   \   00000D   F9           MOV     R1,A
   \   00000E   74..         MOV     A,#ForwardingTable & 0xff
   \   000010   28           ADD     A,R0
   \   000011   F8           MOV     R0,A
   \   000012   74..         MOV     A,#(ForwardingTable >> 8) & 0xff
   \   000014   22           RET

   \                                 In  segment BANKED_CODE, align 1, keep-with-next
   \                     ?Subroutine6:
   \   000000   F0           MOVX    @DPTR,A
   \   000001   90....       MOV     DPTR,#FIBCounter
   \   000004   12....       LCALL   ?Subroutine83 & 0xFFFF
   \                     ??CrossCallReturnLabel_142:
   \   000007   22           RET
   1108          
   1109          
   1110          //FIB表未找到interest，插入新的interestnName，其他等待回复ACK后再添加。后进行广播转发

   \                                 In  segment BANKED_CODE, align 1, keep-with-next
   1111          void InsertInterestFIB(Interest interest)
   \                     InsertInterestFIB:
   1112          {
   \   000000   74F7         MOV     A,#-0x9
   \   000002   12....       LCALL   ?BANKED_ENTER_XDATA
   \   000005                ; Saved register size: 9
   \   000005                ; Auto size: 0
   1113            int temp;
   1114            //若FIB表未满
   1115            if(FIBCounter<ForwardingNumber)
   \   000005   90....       MOV     DPTR,#FIBCounter
   \   000008   12....       LCALL   ?Subroutine45 & 0xFFFF
   \                     ??CrossCallReturnLabel_84:
   \   00000B   5028         JNC     ??InsertInterestFIB_0
   1116            {	
   1117              //FIB存储Interest相关内容	
   1118              ForwardingTable[FIBCounter].interestName.DestinationID=interest.interestName.DestinationID;	
   \   00000D   90....       MOV     DPTR,#FIBCounter
   \   000010   12....       LCALL   ?Subroutine47 & 0xFFFF
   \                     ??CrossCallReturnLabel_90:
   \   000013   12....       LCALL   ?Subroutine73 & 0xFFFF
   \                     ??CrossCallReturnLabel_127:
   \   000016   39           ADDC    A,R1
   \   000017   F9           MOV     R1,A
   \   000018   740B         MOV     A,#0xb
   \   00001A   12....       LCALL   ?XSTACK_DISP0_8
   \   00001D   12....       LCALL   ?Subroutine27 & 0xFFFF
   1119              ForwardingTable[FIBCounter].interestName.DataFlag=interest.interestName.DataFlag;	
   \                     ??CrossCallReturnLabel_48:
   \   000020   12....       LCALL   ?XSTACK_DISP0_8
   \   000023   12....       LCALL   ?Subroutine28 & 0xFFFF
   1120              ForwardingTable[FIBCounter].interestName.PackageCounter=interest.interestName.PackageCounter;	
   \                     ??CrossCallReturnLabel_52:
   \   000026   12....       LCALL   ?XSTACK_DISP0_8
   \   000029   12....       LCALL   ?Subroutine19 & 0xFFFF
   1121              ForwardingTable[FIBCounter].time=0;
   \                     ??CrossCallReturnLabel_31:
   \   00002C   F0           MOVX    @DPTR,A
   1122              //time需要定时的来更新，后续处理		
   1123              FIBCounter++;
   \   00002D   90....       MOV     DPTR,#FIBCounter
   \   000030   12....       LCALL   ??Subroutine136_0 & 0xFFFF
   1124            }
   \                     ??CrossCallReturnLabel_256:
   \   000033   8067         SJMP    ??CrossCallReturnLabel_32
   1125            //若FIB表已经装满，需要使用替换策略进行替换，我们淘汰掉最长等待时间的条目
   1126            else
   1127            {	
   1128              temp=0;		
   \                     ??InsertInterestFIB_0:
   \   000035   7C00         MOV     R4,#0x0
   \   000037   7D00         MOV     R5,#0x0
   1129              for(temp_i=1;temp_i<FIBCounter;++temp_i)	
   \   000039   90....       MOV     DPTR,#temp_i
   \   00003C   12....       LCALL   ??Subroutine145_0 & 0xFFFF
   1130              {		
   1131                if(ForwardingTable[temp].time<ForwardingTable[temp_i].time && ForwardingTable[temp].used==0 && ForwardingTable[temp_i].used==0)	
   \                     ??CrossCallReturnLabel_320:
   \   00003F   12....       LCALL   ?Subroutine40 & 0xFFFF
   \                     ??CrossCallReturnLabel_74:
   \   000042   C082         PUSH    DPL
   \   000044   C083         PUSH    DPH
   \   000046   12....       LCALL   ?Subroutine63 & 0xFFFF
   \                     ??CrossCallReturnLabel_292:
   \   000049   FF           MOV     R7,A
   \   00004A   D083         POP     DPH
   \   00004C   D082         POP     DPL
   \   00004E   C3           CLR     C
   \   00004F   E0           MOVX    A,@DPTR
   \   000050   9E           SUBB    A,R6
   \   000051   A3           INC     DPTR
   \   000052   E0           MOVX    A,@DPTR
   \   000053   9F           SUBB    A,R7
   \   000054   5013         JNC     ??CrossCallReturnLabel_396
   \   000056   12....       LCALL   ?Subroutine43 & 0xFFFF
   \                     ??CrossCallReturnLabel_298:
   \   000059   700E         JNZ     ??CrossCallReturnLabel_396
   \   00005B   EA           MOV     A,R2
   \   00005C   2414         ADD     A,#0x14
   \   00005E   F582         MOV     DPL,A
   \   000060   EB           MOV     A,R3
   \   000061   12....       LCALL   ??Subroutine143_0 & 0xFFFF
   \                     ??CrossCallReturnLabel_296:
   \   000064   7003         JNZ     ??CrossCallReturnLabel_396
   1132                  temp=temp_i;	
   \   000066   12....       LCALL   ?Subroutine48 & 0xFFFF
   1133              }		
   \                     ??CrossCallReturnLabel_396:
   \   000069   12....       LCALL   ?Subroutine33 & 0xFFFF
   \                     ??CrossCallReturnLabel_261:
   \   00006C   12....       LCALL   ?Subroutine6 & 0xFFFF
   \                     ??CrossCallReturnLabel_1:
   \   00006F   40CE         JC      ??CrossCallReturnLabel_320
   1134              //替换temp所在位置的内容		
   1135              //PIT存储Interest相关内容
   1136              ForwardingTable[temp].interestName.DestinationID=interest.interestName.DestinationID;	
   \   000071   EC           MOV     A,R4
   \   000072   75F016       MOV     B,#0x16
   \   000075   A4           MUL     AB
   \   000076   FC           MOV     R4,A
   \   000077   A8F0         MOV     R0,B
   \   000079   75F016       MOV     B,#0x16
   \   00007C   ED           MOV     A,R5
   \   00007D   A4           MUL     AB
   \   00007E   28           ADD     A,R0
   \   00007F   FD           MOV     R5,A
   \   000080   74..         MOV     A,#ForwardingTable & 0xff
   \   000082   2C           ADD     A,R4
   \   000083   F8           MOV     R0,A
   \   000084   74..         MOV     A,#(ForwardingTable >> 8) & 0xff
   \   000086   3D           ADDC    A,R5
   \   000087   F9           MOV     R1,A
   \   000088   740B         MOV     A,#0xb
   \   00008A   12....       LCALL   ?XSTACK_DISP0_8
   \   00008D   12....       LCALL   ?Subroutine27 & 0xFFFF
   1137              ForwardingTable[temp].interestName.DataFlag=interest.interestName.DataFlag;	
   1138              ForwardingTable[temp].interestName.PackageCounter=interest.interestName.PackageCounter;	
   1139              ForwardingTable[temp].time=0;
   1140            }
   \                     ??CrossCallReturnLabel_49:
   \   000090   12....       LCALL   ?XSTACK_DISP0_8
   \   000093   12....       LCALL   ?Subroutine28 & 0xFFFF
   \                     ??CrossCallReturnLabel_53:
   \   000096   12....       LCALL   ?XSTACK_DISP0_8
   \   000099   12....       LCALL   ?Subroutine19 & 0xFFFF
   \                     ??CrossCallReturnLabel_32:
   \   00009C   02....       LJMP    ??Subroutine155_0 & 0xFFFF
   1141          }

   \                                 In  segment BANKED_CODE, align 1, keep-with-next
   \                     ?Subroutine63:
   \   000000   EA           MOV     A,R2
   \   000001   2412         ADD     A,#0x12
   \   000003   F582         MOV     DPL,A
   \   000005   EB           MOV     A,R3
   \   000006   12....       LCALL   ??Subroutine158_0 & 0xFFFF
   \                     ??CrossCallReturnLabel_377:
   \   000009                REQUIRE ??Subroutine142_0
   \   000009                ; // Fall through to label ??Subroutine142_0

   \                                 In  segment BANKED_CODE, align 1, keep-with-next
   \                     ?Subroutine43:
   \   000000   E8           MOV     A,R0
   \   000001   2414         ADD     A,#0x14
   \   000003   F582         MOV     DPL,A
   \   000005   E9           MOV     A,R1
   \   000006                REQUIRE ??Subroutine143_0
   \   000006                ; // Fall through to label ??Subroutine143_0

   \                                 In  segment BANKED_CODE, align 1, keep-with-next
   \                     ??Subroutine143_0:
   \   000000   12....       LCALL   ??Subroutine158_0 & 0xFFFF
   \                     ??CrossCallReturnLabel_383:
   \   000003                REQUIRE ??Subroutine144_0
   \   000003                ; // Fall through to label ??Subroutine144_0

   \                                 In  segment BANKED_CODE, align 1, keep-with-next
   \                     ?Subroutine19:
   \   000000   12....       LCALL   ?Subroutine84 & 0xFFFF
   \                     ??CrossCallReturnLabel_147:
   \   000003   12....       LCALL   ??Subroutine151_0 & 0xFFFF
   \                     ??CrossCallReturnLabel_345:
   \   000006   12....       LCALL   ?Subroutine97 & 0xFFFF
   \                     ??CrossCallReturnLabel_337:
   \   000009   22           RET

   \                                 In  segment BANKED_CODE, align 1, keep-with-next
   \                     ?Subroutine40:
   \   000000   12....       LCALL   ?Subroutine86 & 0xFFFF
   \                     ??CrossCallReturnLabel_149:
   \   000003   FA           MOV     R2,A
   \   000004   74..         MOV     A,#(ForwardingTable >> 8) & 0xff
   \   000006   39           ADDC    A,R1
   \   000007   FB           MOV     R3,A
   \   000008   EC           MOV     A,R4
   \   000009   F8           MOV     R0,A
   \   00000A   ED           MOV     A,R5
   \   00000B   F9           MOV     R1,A
   \   00000C   E8           MOV     A,R0
   \   00000D   75F016       MOV     B,#0x16
   \   000010   A4           MUL     AB
   \   000011   F8           MOV     R0,A
   \   000012   AEF0         MOV     R6,B
   \   000014   75F016       MOV     B,#0x16
   \   000017   E9           MOV     A,R1
   \   000018   A4           MUL     AB
   \   000019   2E           ADD     A,R6
   \   00001A   F9           MOV     R1,A
   \   00001B   74..         MOV     A,#ForwardingTable & 0xff
   \   00001D   28           ADD     A,R0
   \   00001E   F8           MOV     R0,A
   \   00001F   74..         MOV     A,#(ForwardingTable >> 8) & 0xff
   \   000021   39           ADDC    A,R1
   \   000022   F9           MOV     R1,A
   \   000023   E8           MOV     A,R0
   \   000024   2412         ADD     A,#0x12
   \   000026   12....       LCALL   ?Subroutine98 & 0xFFFF
   \                     ??CrossCallReturnLabel_378:
   \   000029   22           RET

   \                                 In  segment BANKED_CODE, align 1, keep-with-next
   \                     ?Subroutine48:
   \   000000   90....       MOV     DPTR,#temp_i
   \   000003                REQUIRE ??Subroutine159_0
   \   000003                ; // Fall through to label ??Subroutine159_0

   \                                 In  segment BANKED_CODE, align 1, keep-with-next
   \                     ?Subroutine86:
   \   000000   12....       LCALL   ?Subroutine110 & 0xFFFF
   \                     ??CrossCallReturnLabel_305:
   \   000003   75F016       MOV     B,#0x16
   \   000006   A4           MUL     AB
   \   000007   F8           MOV     R0,A
   \   000008   AAF0         MOV     R2,B
   \   00000A   75F016       MOV     B,#0x16
   \   00000D   E9           MOV     A,R1
   \   00000E   A4           MUL     AB
   \   00000F   2A           ADD     A,R2
   \   000010   F9           MOV     R1,A
   \   000011   74..         MOV     A,#ForwardingTable & 0xff
   \   000013   28           ADD     A,R0
   \   000014   22           RET
   1142          
   1143          
   1144          //FIB发送完新的interest后收到了ACK来进行outcomingQueue添加,
   1145          //若没有接受到下一跳的回复，则新的interest丢弃，根据OutcomingNumber来判断

   \                                 In  segment BANKED_CODE, align 1, keep-with-next
   1146          void InsertQueueFIB(uint8 interestID,uint16 nodeid)
   \                     InsertQueueFIB:
   1147          {
   \   000000   74F7         MOV     A,#-0x9
   \   000002   12....       LCALL   ?BANKED_ENTER_XDATA
   \   000005                ; Saved register size: 9
   \   000005                ; Auto size: 0
   \   000005   EA           MOV     A,R2
   \   000006   FC           MOV     R4,A
   \   000007   EB           MOV     A,R3
   \   000008   FD           MOV     R5,A
   1148            //FIB进行对应的interestID的输出节点号的添加
   1149            //判断是否有重复出口，若有则不进行添加
   1150            for(temp_i=0;temp_i<ForwardingTable[interestID].OutcomingNumber;temp_i++)
   \   000009   90....       MOV     DPTR,#temp_i
   \   00000C   E4           CLR     A
   \   00000D   F0           MOVX    @DPTR,A
   \   00000E   A3           INC     DPTR
   \   00000F   F0           MOVX    @DPTR,A
   \   000010   E9           MOV     A,R1
   \   000011   75F016       MOV     B,#0x16
   \   000014   A4           MUL     AB
   \   000015   F8           MOV     R0,A
   \   000016   A9F0         MOV     R1,B
   \   000018   74..         MOV     A,#ForwardingTable & 0xff
   \   00001A   28           ADD     A,R0
   \   00001B   FA           MOV     R2,A
   \   00001C   74..         MOV     A,#(ForwardingTable >> 8) & 0xff
   \   00001E   39           ADDC    A,R1
   \   00001F   FB           MOV     R3,A
   \   000020   EA           MOV     A,R2
   \   000021   2410         ADD     A,#0x10
   \   000023   F8           MOV     R0,A
   \   000024   EB           MOV     A,R3
   \   000025   3400         ADDC    A,#0x0
   \   000027   F9           MOV     R1,A
   \   000028   E8           MOV     A,R0
   \   000029   FE           MOV     R6,A
   \   00002A   E9           MOV     A,R1
   \   00002B   FF           MOV     R7,A
   \   00002C   8018         SJMP    ??CrossCallReturnLabel_239
   1151            {	
   1152              if(nodeid==ForwardingTable[interestID].OutcomingQueue[temp_i])					
   \                     ??InsertQueueFIB_0:
   \   00002E   90....       MOV     DPTR,#temp_i
   \   000031   12....       LCALL   ?Subroutine47 & 0xFFFF
   1153                return ;
   1154            }
   \                     ??CrossCallReturnLabel_91:
   \   000034   12....       LCALL   ?Subroutine70 & 0xFFFF
   \                     ??CrossCallReturnLabel_120:
   \   000037   E0           MOVX    A,@DPTR
   \   000038   6C           XRL     A,R4
   \   000039   7003         JNZ     ??InsertQueueFIB_1
   \   00003B   A3           INC     DPTR
   \   00003C   E0           MOVX    A,@DPTR
   \   00003D   6D           XRL     A,R5
   \                     ??InsertQueueFIB_1:
   \   00003E   6039         JZ      ??CrossCallReturnLabel_39
   \   000040   90....       MOV     DPTR,#temp_i
   \   000043   12....       LCALL   ??Subroutine135_0 & 0xFFFF
   \                     ??CrossCallReturnLabel_239:
   \   000046   8E82         MOV     DPL,R6
   \   000048   8F83         MOV     DPH,R7
   \   00004A   12....       LCALL   ??Subroutine157_0 & 0xFFFF
   \                     ??CrossCallReturnLabel_367:
   \   00004D   7583..       MOV     DPH,#(temp_i >> 8) & 0xff
   \   000050   7582..       MOV     DPL,#temp_i & 0xff
   \   000053   C3           CLR     C
   \   000054   E0           MOVX    A,@DPTR
   \   000055   98           SUBB    A,R0
   \   000056   A3           INC     DPTR
   \   000057   E0           MOVX    A,@DPTR
   \   000058   99           SUBB    A,R1
   \   000059   40D3         JC      ??InsertQueueFIB_0
   1155            if(temp_i==ForwardingTable[interestID].OutcomingNumber)
   \   00005B   8E82         MOV     DPL,R6
   \   00005D   8F83         MOV     DPH,R7
   \   00005F   12....       LCALL   ??Subroutine157_0 & 0xFFFF
   \                     ??CrossCallReturnLabel_368:
   \   000062   90....       MOV     DPTR,#temp_i
   \   000065   E0           MOVX    A,@DPTR
   \   000066   68           XRL     A,R0
   \   000067   7003         JNZ     ??InsertQueueFIB_2
   \   000069   A3           INC     DPTR
   \   00006A   E0           MOVX    A,@DPTR
   \   00006B   69           XRL     A,R1
   \                     ??InsertQueueFIB_2:
   \   00006C   700B         JNZ     ??CrossCallReturnLabel_39
   1156            {	
   1157              ForwardingTable[interestID].OutcomingQueue[ForwardingTable[interestID].OutcomingNumber]=nodeid; 
   \   00006E   E8           MOV     A,R0
   \   00006F   12....       LCALL   ?Subroutine70 & 0xFFFF
   1158              ForwardingTable[interestID].OutcomingNumber++;
   1159            }
   \                     ??CrossCallReturnLabel_121:
   \   000072   EC           MOV     A,R4
   \   000073   F0           MOVX    @DPTR,A
   \   000074   A3           INC     DPTR
   \   000075   ED           MOV     A,R5
   \   000076   12....       LCALL   ?Subroutine22 & 0xFFFF
   \                     ??CrossCallReturnLabel_39:
   \   000079   02....       LJMP    ??Subroutine156_0 & 0xFFFF
   1160          }

   \                                 In  segment BANKED_CODE, align 1, keep-with-next
   \                     ?Subroutine70:
   \   000000   C3           CLR     C
   \   000001   33           RLC     A
   \   000002   F8           MOV     R0,A
   \   000003   E9           MOV     A,R1
   \   000004   33           RLC     A
   \   000005   F9           MOV     R1,A
   \   000006   EA           MOV     A,R2
   \   000007   28           ADD     A,R0
   \   000008   F582         MOV     DPL,A
   \   00000A   EB           MOV     A,R3
   \   00000B   12....       LCALL   ?Subroutine99 & 0xFFFF
   \                     ??CrossCallReturnLabel_162:
   \   00000E   22           RET
   1161          
   1162          
   1163          //FIB表进行删除，删除当前没有被重复使用且时间最长的条目

   \                                 In  segment BANKED_CODE, align 1, keep-with-next
   1164          void DeleteItemFIB(void)
   \                     DeleteItemFIB:
   1165          {
   \   000000   74F7         MOV     A,#-0x9
   \   000002   12....       LCALL   ?BANKED_ENTER_XDATA
   \   000005                ; Saved register size: 9
   \   000005                ; Auto size: 0
   1166            int temp;
   1167            temp=0;
   \   000005   7C00         MOV     R4,#0x0
   \   000007   7D00         MOV     R5,#0x0
   1168            for(temp_i=0;temp_i<FIBCounter;++temp_i)
   \   000009   90....       MOV     DPTR,#temp_i
   \   00000C   E4           CLR     A
   \   00000D   F0           MOVX    @DPTR,A
   \   00000E   A3           INC     DPTR
   \   00000F   802D         SJMP    ??CrossCallReturnLabel_262
   1169            {	
   1170              if(ForwardingTable[temp].time<ForwardingTable[temp_i].time && ForwardingTable[temp].used==0 && ForwardingTable[temp_i].used==0)	
   \                     ??DeleteItemFIB_0:
   \   000011   12....       LCALL   ?Subroutine40 & 0xFFFF
   \                     ??CrossCallReturnLabel_75:
   \   000014   C082         PUSH    DPL
   \   000016   C083         PUSH    DPH
   \   000018   12....       LCALL   ?Subroutine63 & 0xFFFF
   \                     ??CrossCallReturnLabel_293:
   \   00001B   FF           MOV     R7,A
   \   00001C   D083         POP     DPH
   \   00001E   D082         POP     DPL
   \   000020   C3           CLR     C
   \   000021   E0           MOVX    A,@DPTR
   \   000022   9E           SUBB    A,R6
   \   000023   A3           INC     DPTR
   \   000024   E0           MOVX    A,@DPTR
   \   000025   9F           SUBB    A,R7
   \   000026   5013         JNC     ??CrossCallReturnLabel_397
   \   000028   12....       LCALL   ?Subroutine43 & 0xFFFF
   \                     ??CrossCallReturnLabel_299:
   \   00002B   700E         JNZ     ??CrossCallReturnLabel_397
   \   00002D   EA           MOV     A,R2
   \   00002E   2414         ADD     A,#0x14
   \   000030   F582         MOV     DPL,A
   \   000032   EB           MOV     A,R3
   \   000033   12....       LCALL   ??Subroutine143_0 & 0xFFFF
   \                     ??CrossCallReturnLabel_297:
   \   000036   7003         JNZ     ??CrossCallReturnLabel_397
   1171              {		
   1172                temp=temp_i;	
   \   000038   12....       LCALL   ?Subroutine48 & 0xFFFF
   1173              }
   1174            }
   \                     ??CrossCallReturnLabel_397:
   \   00003B   12....       LCALL   ?Subroutine33 & 0xFFFF
   \                     ??CrossCallReturnLabel_262:
   \   00003E   12....       LCALL   ?Subroutine6 & 0xFFFF
   \                     ??CrossCallReturnLabel_2:
   \   000041   40CE         JC      ??DeleteItemFIB_0
   1175            if(temp<FIBCounter-1)
   \   000043   90....       MOV     DPTR,#FIBCounter
   \   000046   E0           MOVX    A,@DPTR
   \   000047   24FF         ADD     A,#-0x1
   \   000049   18           DEC     R0
   \   00004A   A3           INC     DPTR
   \   00004B   E0           MOVX    A,@DPTR
   \   00004C   34FF         ADDC    A,#-0x1
   \   00004E   F9           MOV     R1,A
   \   00004F   C3           CLR     C
   \   000050   EC           MOV     A,R4
   \   000051   98           SUBB    A,R0
   \   000052   ED           MOV     A,R5
   \   000053   12....       LCALL   ?Subroutine100 & 0xFFFF
   \                     ??CrossCallReturnLabel_164:
   \   000056   501C         JNC     ??DeleteItemFIB_1
   1176            {	
   1177              for(temp_i=temp;temp_i<FIBCounter;++temp_i)	
   \   000058   90....       MOV     DPTR,#temp_i
   \   00005B   EC           MOV     A,R4
   \   00005C   F0           MOVX    @DPTR,A
   \   00005D   A3           INC     DPTR
   \   00005E   ED           MOV     A,R5
   \   00005F   800E         SJMP    ??CrossCallReturnLabel_7
   1178              {	
   1179                ForwardingTable[temp_i].interestName.DestinationID=ForwardingTable[temp_i+1].interestName.DestinationID;		
   \                     ??DeleteItemFIB_2:
   \   000061   12....       LCALL   ?Subroutine12 & 0xFFFF
   1180                ForwardingTable[temp_i].interestName.DataFlag=ForwardingTable[temp_i+1].interestName.DataFlag;		
   1181                ForwardingTable[temp_i].interestName.PackageCounter=ForwardingTable[temp_i+1].interestName.PackageCounter;
   1182                for(temp_j=0;temp_j<5;++temp_j)	
   1183                {		
   1184                  ForwardingTable[temp_i].OutcomingQueue[temp_j]=ForwardingTable[temp_i+1].OutcomingQueue[temp_j];	
   \                     ??CrossCallReturnLabel_15:
   \   000064   12....       LCALL   ?Subroutine44 & 0xFFFF
   1185                }		
   \                     ??CrossCallReturnLabel_80:
   \   000067   12....       LCALL   ??Subroutine139_0 & 0xFFFF
   \                     ??CrossCallReturnLabel_271:
   \   00006A   40F8         JC      ??CrossCallReturnLabel_15
   1186                ForwardingTable[temp_i].OutcomingNumber=ForwardingTable[temp_i+1].OutcomingNumber;
   \   00006C   12....       LCALL   ?Subroutine9 & 0xFFFF
   1187                ForwardingTable[temp_i].time=ForwardingTable[temp_i+1].time;	
   1188                ForwardingTable[temp_i].used=ForwardingTable[temp_i+1].used;	
   1189              }	
   \                     ??CrossCallReturnLabel_7:
   \   00006F   12....       LCALL   ?Subroutine6 & 0xFFFF
   \                     ??CrossCallReturnLabel_3:
   \   000072   40ED         JC      ??DeleteItemFIB_2
   1190              FIBCounter--;
   \                     ??DeleteItemFIB_1:
   \   000074   90....       MOV     DPTR,#FIBCounter
   \   000077   02....       LJMP    ??Subroutine154_0 & 0xFFFF
   1191            }
   1192            else
   1193            {	
   1194              FIBCounter--;
   1195            }
   1196          }

   \                                 In  segment BANKED_CODE, align 1, keep-with-next
   \                     ?Subroutine44:
   \   000000   12....       LCALL   ?Subroutine87 & 0xFFFF
   \                     ??CrossCallReturnLabel_151:
   \   000003   241C         ADD     A,#0x1c
   \   000005   22           RET

   \                                 In  segment BANKED_CODE, align 1, keep-with-next
   \                     ?Subroutine12:
   \   000000   12....       LCALL   ?Subroutine86 & 0xFFFF
   \                     ??CrossCallReturnLabel_148:
   \   000003   F8           MOV     R0,A
   \   000004   74..         MOV     A,#(ForwardingTable >> 8) & 0xff
   \   000006   39           ADDC    A,R1
   \   000007   F9           MOV     R1,A
   \   000008   E8           MOV     A,R0
   \   000009   2416         ADD     A,#0x16
   \   00000B   12....       LCALL   ?Subroutine91 & 0xFFFF
   \                     ??CrossCallReturnLabel_284:
   \   00000E   12....       LCALL   ?Subroutine76 & 0xFFFF
   \                     ??CrossCallReturnLabel_133:
   \   000011   12....       LCALL   ??Subroutine151_0 & 0xFFFF
   \                     ??CrossCallReturnLabel_346:
   \   000014   241A         ADD     A,#0x1a
   \   000016   12....       LCALL   ?Subroutine85 & 0xFFFF
   \                     ??CrossCallReturnLabel_329:
   \   000019   12....       LCALL   ?Subroutine82 & 0xFFFF
   \                     ??CrossCallReturnLabel_141:
   \   00001C   22           RET

   \                                 In  segment BANKED_CODE, align 1, keep-with-next
   \                     ?Subroutine9:
   \   000000   E8           MOV     A,R0
   \   000001   2426         ADD     A,#0x26
   \   000003   12....       LCALL   ?Subroutine77 & 0xFFFF
   \                     ??CrossCallReturnLabel_339:
   \   000006   2428         ADD     A,#0x28
   \   000008   12....       LCALL   ?Subroutine95 & 0xFFFF
   \                     ??CrossCallReturnLabel_159:
   \   00000B   12....       LCALL   ??Subroutine150_0 & 0xFFFF
   \                     ??CrossCallReturnLabel_340:
   \   00000E   242A         ADD     A,#0x2a
   \   000010   F582         MOV     DPL,A
   \   000012   E9           MOV     A,R1
   \   000013   3400         ADDC    A,#0x0
   \   000015   12....       LCALL   ?Subroutine96 & 0xFFFF
   \                     ??CrossCallReturnLabel_266:
   \   000018   E8           MOV     A,R0
   \   000019   2414         ADD     A,#0x14
   \   00001B   12....       LCALL   ?Subroutine79 & 0xFFFF
   \                     ??CrossCallReturnLabel_135:
   \   00001E   22           RET
   1197          
   1198          //FIB表中删除特定的Item

   \                                 In  segment BANKED_CODE, align 1, keep-with-next
   1199          void DeleteItemFIBS(int i)
   \                     DeleteItemFIBS:
   1200          {
   \   000000   74F7         MOV     A,#-0x9
   \   000002   12....       LCALL   ?BANKED_ENTER_XDATA
   \   000005                ; Saved register size: 9
   \   000005                ; Auto size: 0
   1201            if(ForwardingTable[i].used>0)
   \   000005   EA           MOV     A,R2
   \   000006   F8           MOV     R0,A
   \   000007   EB           MOV     A,R3
   \   000008   F9           MOV     R1,A
   \   000009   E8           MOV     A,R0
   \   00000A   75F016       MOV     B,#0x16
   \   00000D   A4           MUL     AB
   \   00000E   F8           MOV     R0,A
   \   00000F   ACF0         MOV     R4,B
   \   000011   75F016       MOV     B,#0x16
   \   000014   E9           MOV     A,R1
   \   000015   A4           MUL     AB
   \   000016   2C           ADD     A,R4
   \   000017   F9           MOV     R1,A
   \   000018   74..         MOV     A,#(ForwardingTable + 20) & 0xff
   \   00001A   28           ADD     A,R0
   \   00001B   F8           MOV     R0,A
   \   00001C   74..         MOV     A,#((ForwardingTable + 20) >> 8) & 0xff
   \   00001E   39           ADDC    A,R1
   \   00001F   F9           MOV     R1,A
   \   000020   8882         MOV     DPL,R0
   \   000022   8983         MOV     DPH,R1
   \   000024   12....       LCALL   ??Subroutine159_0 & 0xFFFF
   \                     ??CrossCallReturnLabel_395:
   \   000027   EC           MOV     A,R4
   \   000028   4D           ORL     A,R5
   \   000029   6006         JZ      ??DeleteItemFIBS_0
   1202            {
   1203              ForwardingTable[i].used--;
   \   00002B   8882         MOV     DPL,R0
   \   00002D   8983         MOV     DPH,R1
   \   00002F   8027         SJMP    ??DeleteItemFIBS_1
   1204            }
   1205            else
   1206            {	
   1207              if(i<FIBCounter-1)
   \                     ??DeleteItemFIBS_0:
   \   000031   90....       MOV     DPTR,#FIBCounter
   \   000034   12....       LCALL   ?Subroutine46 & 0xFFFF
   \                     ??CrossCallReturnLabel_86:
   \   000037   501C         JNC     ??DeleteItemFIBS_2
   1208              {	
   1209                for(temp_i=i;temp_i<FIBCounter;++temp_i)	
   \   000039   90....       MOV     DPTR,#temp_i
   \   00003C   EA           MOV     A,R2
   \   00003D   F0           MOVX    @DPTR,A
   \   00003E   A3           INC     DPTR
   \   00003F   EB           MOV     A,R3
   \   000040   800E         SJMP    ??CrossCallReturnLabel_8
   1210                {			
   1211                  ForwardingTable[temp_i].interestName.DestinationID=ForwardingTable[temp_i+1].interestName.DestinationID;			
   \                     ??DeleteItemFIBS_3:
   \   000042   12....       LCALL   ?Subroutine12 & 0xFFFF
   1212                  ForwardingTable[temp_i].interestName.DataFlag=ForwardingTable[temp_i+1].interestName.DataFlag;			
   1213                  ForwardingTable[temp_i].interestName.PackageCounter=ForwardingTable[temp_i+1].interestName.PackageCounter;	
   1214          	for(temp_j=0;temp_j<5;++temp_j)			
   1215                  {			
   1216                    ForwardingTable[temp_i].OutcomingQueue[temp_j]=ForwardingTable[temp_i+1].OutcomingQueue[temp_j];		
   \                     ??CrossCallReturnLabel_16:
   \   000045   12....       LCALL   ?Subroutine44 & 0xFFFF
   1217                  }				
   \                     ??CrossCallReturnLabel_81:
   \   000048   12....       LCALL   ??Subroutine139_0 & 0xFFFF
   \                     ??CrossCallReturnLabel_272:
   \   00004B   40F8         JC      ??CrossCallReturnLabel_16
   1218                  ForwardingTable[temp_i].OutcomingNumber=ForwardingTable[temp_i+1].OutcomingNumber;			
   \   00004D   12....       LCALL   ?Subroutine9 & 0xFFFF
   1219                  ForwardingTable[temp_i].time=ForwardingTable[temp_i+1].time;			
   1220                  ForwardingTable[temp_i].used=ForwardingTable[temp_i+1].used;
   1221                }		
   \                     ??CrossCallReturnLabel_8:
   \   000050   12....       LCALL   ?Subroutine6 & 0xFFFF
   \                     ??CrossCallReturnLabel_4:
   \   000053   40ED         JC      ??DeleteItemFIBS_3
   1222                FIBCounter--;	
   \                     ??DeleteItemFIBS_2:
   \   000055   90....       MOV     DPTR,#FIBCounter
   1223              }	
   1224              else	
   1225              {		
   1226                FIBCounter--;	
   1227              }
   1228            }
   \                     ??DeleteItemFIBS_1:
   \   000058   02....       LJMP    ??Subroutine154_0 & 0xFFFF
   1229          }
   1230          

   \                                 In  segment BANKED_CODE, align 1, keep-with-next
   1231          uint16 getADC (void)
   \                     getADC:
   1232          {
   \   000000   C0..         PUSH    ?V0 + 0
   \   000002                ; Saved register size: 2
   \   000002                ; Auto size: 0
   1233            uint16 value;
   1234            uint8 tmpADCCON3 = ADCCON3;  // Save ADCCON3 to restore later
   \   000002   E5B6         MOV     A,0xb6
   \   000004   F8           MOV     R0,A
   1235          
   1236            /* Clear ADC interrupt flag */
   1237            ADCIF = 0;
   \   000005   C28D         CLR     0x88.5
   1238          
   1239            /* Setup the new value for conversion */
   1240            ADCCON3 = (0x00 | 0x00 | 0x0f);
   \   000007   75B60F       MOV     0xb6,#0xf
   1241          
   1242            /* Wait for the conversion to finish */
   1243            while ( !ADCIF );
   \                     ??getADC_0:
   \   00000A   A28D         MOV     C,0x88.5
   \   00000C   50FC         JNC     ??getADC_0
   1244          
   1245            /* Get the result */
   1246            value = ADCL;
   \   00000E   E5BA         MOV     A,0xba
   \   000010   F5..         MOV     ?V0 + 0,A
   1247            value |= ((uint16) ADCH) << 8;
   \   000012   E5BB         MOV     A,0xbb
   1248          
   1249            // Restore ADCCON3
   1250            ADCCON3 = tmpADCCON3;
   \   000014   88B6         MOV     0xb6,R0
   1251            
   1252            /* Check the limit and return */
   1253            return value;
   \   000016   AA..         MOV     R2,?V0 + 0
   \   000018   FB           MOV     R3,A
   \   000019   D0..         POP     ?V0 + 0
   \   00001B   02....       LJMP    ?BRET
   \   00001E                REQUIRE ADCCON3
   \   00001E                REQUIRE _A_TCON
   \   00001E                REQUIRE ADCL
   \   00001E                REQUIRE ADCH
   1254          }

   \                                 In  segment XDATA_ID, align 1, keep-with-next
   \                     `?<Initializer for NodeId>`:
   \   000000   0100         DW 1

   \                                 In  segment XDATA_ID, align 1, keep-with-next
   \                     `?<Initializer for layer>`:
   \   000000   0100         DW 1

   \                                 In  segment BANK_RELAYS, align 1
   \                     ??SampleApp_Init?relay:
   \   000000   12....       LCALL   ?BDISPATCH
   \   000003   ......       DC24    SampleApp_Init

   \                                 In  segment BANK_RELAYS, align 1
   \                     ??SampleApp_ProcessEvent?relay:
   \   000000   12....       LCALL   ?BDISPATCH
   \   000003   ......       DC24    SampleApp_ProcessEvent

   \                                 In  segment BANK_RELAYS, align 1
   \                     ??SampleApp_MessageMSGCB?relay:
   \   000000   12....       LCALL   ?BDISPATCH
   \   000003   ......       DC24    SampleApp_MessageMSGCB

   \                                 In  segment BANK_RELAYS, align 1
   \                     ??SampleApp_COOR_Send_Message?relay:
   \   000000   12....       LCALL   ?BDISPATCH
   \   000003   ......       DC24    SampleApp_COOR_Send_Message

   \                                 In  segment BANK_RELAYS, align 1
   \                     ??SampleApp_Interest_Process?relay:
   \   000000   12....       LCALL   ?BDISPATCH
   \   000003   ......       DC24    SampleApp_Interest_Process

   \                                 In  segment BANK_RELAYS, align 1
   \                     ??SampleApp_Ack_Process?relay:
   \   000000   12....       LCALL   ?BDISPATCH
   \   000003   ......       DC24    SampleApp_Ack_Process

   \                                 In  segment BANK_RELAYS, align 1
   \                     ??SampleApp_Data_Process?relay:
   \   000000   12....       LCALL   ?BDISPATCH
   \   000003   ......       DC24    SampleApp_Data_Process

   \                                 In  segment BANK_RELAYS, align 1
   \                     ??SampleApp_ContinueSend?relay:
   \   000000   12....       LCALL   ?BDISPATCH
   \   000003   ......       DC24    SampleApp_ContinueSend

   \                                 In  segment BANK_RELAYS, align 1
   \                     ??ForwardingInterestFromFIB?relay:
   \   000000   12....       LCALL   ?BDISPATCH
   \   000003   ......       DC24    ForwardingInterestFromFIB

   \                                 In  segment BANK_RELAYS, align 1
   \                     ??SendDataFromPIT?relay:
   \   000000   12....       LCALL   ?BDISPATCH
   \   000003   ......       DC24    SendDataFromPIT

   \                                 In  segment BANK_RELAYS, align 1
   \                     ??SampleApp_SendDataFromCS?relay:
   \   000000   12....       LCALL   ?BDISPATCH
   \   000003   ......       DC24    SampleApp_SendDataFromCS

   \                                 In  segment BANK_RELAYS, align 1
   \                     ??SampleApp_AckMessage_Send?relay:
   \   000000   12....       LCALL   ?BDISPATCH
   \   000003   ......       DC24    SampleApp_AckMessage_Send

   \                                 In  segment BANK_RELAYS, align 1
   \                     ??SampleApp_DataMessage_Send?relay:
   \   000000   12....       LCALL   ?BDISPATCH
   \   000003   ......       DC24    SampleApp_DataMessage_Send

   \                                 In  segment BANK_RELAYS, align 1
   \                     ??InsertContentStore?relay:
   \   000000   12....       LCALL   ?BDISPATCH
   \   000003   ......       DC24    InsertContentStore

   \                                 In  segment BANK_RELAYS, align 1
   \                     ??ContentStoreFinder?relay:
   \   000000   12....       LCALL   ?BDISPATCH
   \   000003   ......       DC24    ContentStoreFinder

   \                                 In  segment BANK_RELAYS, align 1
   \                     ??DeleteItemCS?relay:
   \   000000   12....       LCALL   ?BDISPATCH
   \   000003   ......       DC24    DeleteItemCS

   \                                 In  segment BANK_RELAYS, align 1
   \                     ??PendingTableFindInterest?relay:
   \   000000   12....       LCALL   ?BDISPATCH
   \   000003   ......       DC24    PendingTableFindInterest

   \                                 In  segment BANK_RELAYS, align 1
   \                     ??InsertNamePIT?relay:
   \   000000   12....       LCALL   ?BDISPATCH
   \   000003   ......       DC24    InsertNamePIT

   \                                 In  segment BANK_RELAYS, align 1
   \                     ??InsertIncomingPIT?relay:
   \   000000   12....       LCALL   ?BDISPATCH
   \   000003   ......       DC24    InsertIncomingPIT

   \                                 In  segment BANK_RELAYS, align 1
   \                     ??PendingTableFindData?relay:
   \   000000   12....       LCALL   ?BDISPATCH
   \   000003   ......       DC24    PendingTableFindData

   \                                 In  segment BANK_RELAYS, align 1
   \                     ??DeleteItemPIT?relay:
   \   000000   12....       LCALL   ?BDISPATCH
   \   000003   ......       DC24    DeleteItemPIT

   \                                 In  segment BANK_RELAYS, align 1
   \                     ??DeleteItemPITS?relay:
   \   000000   12....       LCALL   ?BDISPATCH
   \   000003   ......       DC24    DeleteItemPITS

   \                                 In  segment BANK_RELAYS, align 1
   \                     ??ForwardingTableFinder?relay:
   \   000000   12....       LCALL   ?BDISPATCH
   \   000003   ......       DC24    ForwardingTableFinder

   \                                 In  segment BANK_RELAYS, align 1
   \                     ??InsertInterestFIB?relay:
   \   000000   12....       LCALL   ?BDISPATCH
   \   000003   ......       DC24    InsertInterestFIB

   \                                 In  segment BANK_RELAYS, align 1
   \                     ??InsertQueueFIB?relay:
   \   000000   12....       LCALL   ?BDISPATCH
   \   000003   ......       DC24    InsertQueueFIB

   \                                 In  segment BANK_RELAYS, align 1
   \                     ??DeleteItemFIB?relay:
   \   000000   12....       LCALL   ?BDISPATCH
   \   000003   ......       DC24    DeleteItemFIB

   \                                 In  segment BANK_RELAYS, align 1
   \                     ??DeleteItemFIBS?relay:
   \   000000   12....       LCALL   ?BDISPATCH
   \   000003   ......       DC24    DeleteItemFIBS

   \                                 In  segment BANK_RELAYS, align 1
   \                     ??getADC?relay:
   \   000000   12....       LCALL   ?BDISPATCH
   \   000003   ......       DC24    getADC

   \                                 In  segment XDATA_ROM_C, align 1
   \                     `?<Constant "Group 1">`:
   \   000000   47726F75     DB "Group 1"
   \            70203100

   \                                 In  segment XDATA_ROM_C, align 1
   \                     `?<Constant "SampleApp">`:
   \   000000   53616D70     DB "SampleApp"
   \            6C654170
   \            7000    

   Maximum stack usage in bytes:

     Function                       ISTACK PSTACK XSTACK
     --------                       ------ ------ ------
     ContentStoreFinder                 2      0     31
     DeleteItemCS                       2      0     19
     DeleteItemFIB                      2      0      9
     DeleteItemFIBS                     2      0      9
     DeleteItemPIT                      2      0      9
     DeleteItemPITS                     2      0     19
     ForwardingInterestFromFIB          1      0     53
       -> AF_DataRequest                0      0     86
     ForwardingTableFinder              4      0     22
     InsertContentStore                 4      0     22
     InsertIncomingPIT                  0      0     20
     InsertInterestFIB                  2      0     31
     InsertNamePIT                      2      0     31
     InsertQueueFIB                     2      0     19
     PendingTableFindData               2      0     31
     PendingTableFindInterest           2      0     31
     SampleApp_AckMessage_Send          1      0     49
       -> AF_DataRequest                0      0     78
     SampleApp_Ack_Process              0      0     32
       -> ForwardingTableFinder         0      0     44
       -> InsertQueueFIB                0      0     20
     SampleApp_COOR_Send_Message        1      0     51
       -> rand                          0      0     60
       -> rand                          0      0     60
       -> HalUARTWrite                  0      0     60
       -> AF_DataRequest                0      0     78
     SampleApp_ContinueSend             1      0     49
       -> AF_DataRequest                0      0     78
     SampleApp_DataMessage_Send         1      0     49
       -> getADC                        0      0     60
       -> AF_DataRequest                0      0     78
     SampleApp_Data_Process             0      0     32
       -> PendingTableFindData          0      0     44
       -> PendingTableFindData          0      0     44
       -> SendDataFromPIT               0      0     44
       -> DeleteItemPITS                0      0     20
       -> InsertContentStore            0      0     44
       -> DeleteItemCS                  0      0     20
       -> InsertContentStore            0      0     44
     SampleApp_Init                     0      0     14
       -> MT_UartInit                   0      0     22
       -> MT_UartRegisterTaskID         0      0     22
       -> afRegister                    0      0     22
       -> RegisterForKeys               0      0     22
       -> osal_memcpy                   0      0     28
       -> aps_AddGroup                  0      0     22
       -> HalLcdWriteString             0      0     22
     SampleApp_Interest_Process         0      0     32
       -> SampleApp_AckMessage_Send     0      0     20
       -> SampleApp_DataMessage_Send
                                        0      0     20
       -> ContentStoreFinder            0      0     44
       -> PendingTableFindInterest      0      0     44
       -> InsertNamePIT                 0      0     44
       -> ForwardingTableFinder         0      0     44
       -> InsertInterestFIB             0      0     44
       -> SampleApp_ContinueSend        0      0     20
       -> ForwardingTableFinder         0      0     44
       -> ForwardingInterestFromFIB     0      0     20
       -> SampleApp_ContinueSend        0      0     20
       -> PendingTableFindInterest      0      0     44
       -> InsertIncomingPIT             0      0     20
       -> ContentStoreFinder            0      0     44
       -> SampleApp_SendDataFromCS      0      0     20
     SampleApp_MessageMSGCB             0      0     22
       -> SampleApp_Interest_Process
                                        0      0     20
       -> SampleApp_Ack_Process         0      0     20
       -> HalUARTWrite                  0      0     20
       -> SampleApp_Data_Process        0      0     20
     SampleApp_ProcessEvent             0      0     12
       -> osal_msg_receive              0      0     24
       -> osal_start_timerEx            0      0     24
       -> osal_start_timerEx            0      0     24
       -> osal_msg_deallocate           0      0     24
       -> osal_msg_receive              0      0     24
       -> SampleApp_MessageMSGCB        0      0     24
       -> osal_start_timerEx            0      0     24
       -> osal_start_timerEx            0      0     24
       -> SampleApp_COOR_Send_Message
                                        0      0     24
       -> osal_rand                     0      0     24
       -> osal_start_timerEx            0      0     24
       -> osal_start_timerEx            0      0     24
       -> osal_start_timerEx            0      0     24
     SampleApp_SendDataFromCS           1      0     49
       -> AF_DataRequest                0      0     78
     SendDataFromPIT                    1      0     65
       -> AF_DataRequest                0      0     86
     getADC                             2      0     30


   Segment part sizes:

     Function/Label                      Bytes
     --------------                      -----
     _A_TCON                                1
     ADCCON3                                1
     ADCL                                   1
     ADCH                                   1
     NodeId                                 2
     layer                                  2
     flag                                   2
     packagecount                           2
     countflag                              2
     removeflag                             2
     num                                    2
     temp_i                                 2
     temp_j                                 2
     counter                                2
     tempInterName                          6
     AcceptInterest                        12
     InterestLastID                         2
     AcceptData                            12
     ContentStore                         140
     CScounter                              2
     PendingTable                         200
     PITCounter                             2
     ForwardingTable                      220
     FIBCounter                             2
     InsertNewName                          2
     SampleApp_ClusterList                  4
     SampleApp_SimpleDesc                  12
     SampleApp_epDesc                       6
     SampleApp_TaskID                       1
     SampleApp_NwkState                     1
     SampleApp_TransID                      1
     SampleApp_Periodic_DstAddr            12
     SampleApp_Flash_DstAddr               12
     SampleApp_P2P_DstAddr                 12
     SampleApp_Group                       18
     SampleAppPeriodicCounter               1
     SampleAppFlashCounter                  1
     SampleApp_Init                       178
     ??Subroutine145_0                      2
     ??Subroutine146_0                      5
     SampleApp_ProcessEvent               315
     ?Subroutine93                          2
     ??Subroutine116_0                      9
     ?Subroutine60                          5
     ?Subroutine31                          8
     ??Subroutine136_0                      1
     ??Subroutine137_0                      8
     ?Subroutine78                          5
     ?Subroutine112                         9
     SampleApp_MessageMSGCB                99
     ??Subroutine118_0                      5
     ??Subroutine119_0                      3
     ??Subroutine120_0                      5
     ?Subroutine89                          8
     ??Subroutine129_0                      4
     ?Subroutine47                          4
     ?Subroutine88                          4
     ??Subroutine141_0                      7
     ??Subroutine149_0                      5
     ??Subroutine158_0                      4
     ??Subroutine159_0                      6
     ??Subroutine117_0                     28
     SampleApp_COOR_Send_Message          233
     ?Subroutine4                          52
     ?Subroutine39                          9
     ?Subroutine37                          8
     ?Subroutine15                         12
     SampleApp_Interest_Process           426
     ?Subroutine58                         11
     ?Subroutine21                          7
     ?Subroutine67                          2
     ?Subroutine29                          5
     ?Subroutine80                          6
     ?Subroutine105                        12
     ??Subroutine124_0                      4
     ??Subroutine125_0                      4
     ??Subroutine138_0                      4
     ??Subroutine144_0                      5
     ??Subroutine152_0                      6
     ??Subroutine153_0                      5
     ??Subroutine157_0                      4
     ?Subroutine111                         6
     SampleApp_Ack_Process                 74
     SampleApp_Data_Process               352
     ?Subroutine57                         14
     ?Subroutine24                         14
     ??Subroutine121_0                      5
     ?Subroutine38                          6
     ?Subroutine72                          4
     ?Subroutine104                        21
     ?Subroutine55                          5
     ?Subroutine100                         7
     SampleApp_ContinueSend               222
     ForwardingInterestFromFIB            363
     ?Subroutine1                          10
     ?Subroutine66                         13
     ?Subroutine65                          3
     ?Subroutine50                         14
     ?Subroutine99                         10
     SendDataFromPIT                      348
     ?Subroutine0                          50
     SampleApp_SendDataFromCS             241
     ?Subroutine25                          5
     ?Subroutine68                          3
     ??Subroutine128_0                      3
     ??Subroutine142_0                      5
     SampleApp_AckMessage_Send            228
     SampleApp_DataMessage_Send           223
     ??Subroutine135_0                      4
     InsertContentStore                   225
     ?Subroutine2                           7
     ?Subroutine56                          4
     ?Subroutine92                         12
     ?Subroutine49                          6
     ?Subroutine34                          3
     ??Subroutine122_0                      2
     ??Subroutine123_0                      1
     ?Subroutine18                         18
     ?Subroutine69                         18
     ??Subroutine126_0                      1
     ??Subroutine127_0                     11
     ??Subroutine130_0                      4
     ?Subroutine42                          9
     ?Subroutine61                          7
     ?Subroutine45                          8
     ?Subroutine84                          6
     ?Subroutine94                         10
     ??Subroutine140_0                      4
     ?Subroutine108                         4
     ?Subroutine115                        10
     ??Subroutine147_0                      4
     ??Subroutine148_0                      7
     ?Subroutine113                         3
     ??Subroutine151_0                      5
     ?Subroutine106                         1
     ?Subroutine107                         6
     ContentStoreFinder                   102
     ?Subroutine5                           6
     ?Subroutine16                          8
     ?Subroutine62                         10
     ?Subroutine36                         16
     ?Subroutine35                         14
     ?Subroutine32                          3
     ?Subroutine20                         20
     ?Subroutine83                         21
     ?Subroutine52                          4
     ?Subroutine90                         11
     ?Subroutine26                          4
     ?Subroutine81                         11
     ?Subroutine110                         3
     ?Subroutine30                          3
     ??Subroutine156_0                      5
     DeleteItemCS                         221
     ?Subroutine54                          3
     ?Subroutine23                          2
     ??Subroutine131_0                      2
     ??Subroutine132_0                      2
     ??Subroutine133_0                      2
     ??Subroutine134_0                      4
     ?Subroutine33                          3
     ?Subroutine75                         10
     ?Subroutine59                         11
     ?Subroutine53                          4
     ?Subroutine64                          9
     ?Subroutine51                          3
     ?Subroutine98                          3
     PendingTableFindInterest              99
     ?Subroutine13                         10
     ?Subroutine10                          8
     ?Subroutine114                        21
     InsertNamePIT                        114
     ?Subroutine71                          6
     ?Subroutine8                          64
     ?Subroutine103                        10
     ?Subroutine74                         10
     ?Subroutine41                         13
     ?Subroutine102                        24
     ?Subroutine96                          2
     ?Subroutine17                         25
     ?Subroutine101                         6
     ?Subroutine28                          9
     ?Subroutine27                          9
     ?Subroutine97                          2
     ??Subroutine155_0                      1
     InsertIncomingPIT                     82
     ?Subroutine22                          9
     PendingTableFindData                  99
     DeleteItemPIT                         86
     ?Subroutine7                           5
     ??Subroutine139_0                     43
     ?Subroutine14                         15
     ?Subroutine11                         30
     ?Subroutine91                          3
     ?Subroutine85                          3
     ?Subroutine77                          6
     ??Subroutine150_0                      3
     ?Subroutine109                         7
     ?Subroutine3                           3
     ??Subroutine154_0                      3
     ?Subroutine87                         21
     ?Subroutine82                         13
     ?Subroutine76                         13
     ?Subroutine95                          7
     ?Subroutine79                         13
     DeleteItemPITS                        41
     ?Subroutine46                         17
     ForwardingTableFinder                127
     ?Subroutine73                         21
     ?Subroutine6                           8
     InsertInterestFIB                    159
     ?Subroutine63                          9
     ?Subroutine43                          6
     ??Subroutine143_0                      3
     ?Subroutine19                         10
     ?Subroutine40                         42
     ?Subroutine48                          3
     ?Subroutine86                         21
     InsertQueueFIB                       124
     ?Subroutine70                         15
     DeleteItemFIB                        122
     ?Subroutine44                          6
     ?Subroutine12                         29
     ?Subroutine9                          31
     DeleteItemFIBS                        91
     getADC                                30
     ?<Initializer for NodeId>              2
     ?<Initializer for layer>               2
     ??SampleApp_Init?relay                 6
     ??SampleApp_ProcessEvent?relay         6
     ??SampleApp_MessageMSGCB?relay         6
     ??SampleApp_COOR_Send_Message?relay    6
     ??SampleApp_Interest_Process?relay     6
     ??SampleApp_Ack_Process?relay          6
     ??SampleApp_Data_Process?relay         6
     ??SampleApp_ContinueSend?relay         6
     ??ForwardingInterestFromFIB?relay      6
     ??SendDataFromPIT?relay                6
     ??SampleApp_SendDataFromCS?relay       6
     ??SampleApp_AckMessage_Send?relay      6
     ??SampleApp_DataMessage_Send?relay     6
     ??InsertContentStore?relay             6
     ??ContentStoreFinder?relay             6
     ??DeleteItemCS?relay                   6
     ??PendingTableFindInterest?relay       6
     ??InsertNamePIT?relay                  6
     ??InsertIncomingPIT?relay              6
     ??PendingTableFindData?relay           6
     ??DeleteItemPIT?relay                  6
     ??DeleteItemPITS?relay                 6
     ??ForwardingTableFinder?relay          6
     ??InsertInterestFIB?relay              6
     ??InsertQueueFIB?relay                 6
     ??DeleteItemFIB?relay                  6
     ??DeleteItemFIBS?relay                 6
     ??getADC?relay                         6
     ?<Constant "Group 1">                  8
     ?<Constant "SampleApp">               10

 
 6 525 bytes in segment BANKED_CODE
   168 bytes in segment BANK_RELAYS
     4 bytes in segment SFR_AN
     4 bytes in segment XDATA_I
     4 bytes in segment XDATA_ID
    34 bytes in segment XDATA_ROM_C
   681 bytes in segment XDATA_Z
 
 6 697 bytes of CODE  memory
    34 bytes of CONST memory
     0 bytes of DATA  memory (+ 4 bytes shared)
   685 bytes of XDATA memory

Errors: none
Warnings: none
