###############################################################################
#                                                                             #
# IAR C/C++ Compiler V8.10.3.10338/W32 for 8051         01/Dec/2015  21:22:20 #
# Copyright 2004-2011 IAR Systems AB.                                         #
#                                                                             #
#    Core               =  plain                                              #
#    Code model         =  banked                                             #
#    Data model         =  large                                              #
#    Calling convention =  xdata reentrant                                    #
#    Constant location  =  data_rom                                           #
#    Dptr setup         =  1,16                                               #
#    Source file        =  C:\Users\Administrator\Desktop\NDN-down\Projects\z #
#                          stack\Samples\SampleApp\Source\SampleApp.c         #
#    Command line       =  -f C:\Users\Administrator\Desktop\NDN-down\Project #
#                          s\zstack\Samples\SampleApp\CC2530DB\..\..\..\Tools #
#                          \CC2530DB\f8wEndev.cfg (-DCPU32MHZ                 #
#                          -DROOT=__near_func -DBLINK_LEDS) -f                #
#                          C:\Users\Administrator\Desktop\NDN-down\Projects\z #
#                          stack\Samples\SampleApp\CC2530DB\..\..\..\Tools\CC #
#                          2530DB\f8wConfig.cfg (-DSECURE=0                   #
#                          -DZG_SECURE_DYNAMIC=0 -DREFLECTOR                  #
#                          -DDEFAULT_CHANLIST=0x00100000                      #
#                          -DZDAPP_CONFIG_PAN_ID=0xFFF1                       #
#                          -DNWK_START_DELAY=100 -DEXTENDED_JOINING_RANDOM_MA #
#                          SK=0x007F -DBEACON_REQUEST_DELAY=100               #
#                          -DBEACON_REQ_DELAY_MASK=0x00FF                     #
#                          -DROUTE_EXPIRY_TIME=30 -DAPSC_ACK_WAIT_DURATION_PO #
#                          LLED=3000 -DNWK_INDIRECT_MSG_TIMEOUT=7             #
#                          -DMAX_RREQ_ENTRIES=8 -DAPSC_MAX_FRAME_RETRIES=3    #
#                          -DNWK_MAX_DATA_RETRIES=2                           #
#                          -DMAX_POLL_FAILURE_RETRIES=2 -DMAX_BCAST=9         #
#                          -DAPS_MAX_GROUPS=16 -DMAX_RTG_ENTRIES=40           #
#                          -DNWK_MAX_BINDING_ENTRIES=4                        #
#                          -DMAX_BINDING_CLUSTER_IDS=4 "-DDEFAULT_KEY={0x01,  #
#                          0x03, 0x05, 0x07, 0x09, 0x0B, 0x0D, 0x0F, 0x00,    #
#                          0x02, 0x04, 0x06, 0x08, 0x0A, 0x0C, 0x0D}"         #
#                          -DMAC_MAX_FRAME_SIZE=116 "-DCONST=const __code"    #
#                          -DGENERIC=__generic -DRFD_RCVC_ALWAYS_ON=FALSE     #
#                          -DPOLL_RATE=1000 -DQUEUED_POLL_RATE=100            #
#                          -DRESPONSE_POLL_RATE=100) -DREJOIN_POLL_RATE=440   #
#                          C:\Users\Administrator\Desktop\NDN-down\Projects\z #
#                          stack\Samples\SampleApp\Source\SampleApp.c -D      #
#                          ZIGBEEPRO -D NWK_AUTO_POLL -D ZTOOL_P1 -D          #
#                          xMT_TASK -D xMT_SYS_FUNC -D xMT_ZDO_FUNC -D        #
#                          LCD_SUPPORTED=DEBUG -lC C:\Users\Administrator\Des #
#                          ktop\NDN-down\Projects\zstack\Samples\SampleApp\CC #
#                          2530DB\EndDeviceEB-Pro\List\ -lA                   #
#                          C:\Users\Administrator\Desktop\NDN-down\Projects\z #
#                          stack\Samples\SampleApp\CC2530DB\EndDeviceEB-Pro\L #
#                          ist\ --diag_suppress Pe001,Pa010 -o                #
#                          C:\Users\Administrator\Desktop\NDN-down\Projects\z #
#                          stack\Samples\SampleApp\CC2530DB\EndDeviceEB-Pro\O #
#                          bj\ -e --debug --core=plain --dptr=16,1            #
#                          --data_model=large --code_model=banked             #
#                          --calling_convention=xdata_reentrant               #
#                          --place_constants=data_rom --nr_virtual_regs 16    #
#                          -I C:\Users\Administrator\Desktop\NDN-down\Project #
#                          s\zstack\Samples\SampleApp\CC2530DB\ -I            #
#                          C:\Users\Administrator\Desktop\NDN-down\Projects\z #
#                          stack\Samples\SampleApp\CC2530DB\..\SOURCE\ -I     #
#                          C:\Users\Administrator\Desktop\NDN-down\Projects\z #
#                          stack\Samples\SampleApp\CC2530DB\..\..\..\ZMAIN\TI #
#                          2530DB\ -I C:\Users\Administrator\Desktop\NDN-down #
#                          \Projects\zstack\Samples\SampleApp\CC2530DB\..\..\ #
#                          ..\..\..\COMPONENTS\MT\ -I                         #
#                          C:\Users\Administrator\Desktop\NDN-down\Projects\z #
#                          stack\Samples\SampleApp\CC2530DB\..\..\..\..\..\CO #
#                          MPONENTS\HAL\INCLUDE\ -I                           #
#                          C:\Users\Administrator\Desktop\NDN-down\Projects\z #
#                          stack\Samples\SampleApp\CC2530DB\..\..\..\..\..\CO #
#                          MPONENTS\HAL\TARGET\CC2530EB\ -I                   #
#                          C:\Users\Administrator\Desktop\NDN-down\Projects\z #
#                          stack\Samples\SampleApp\CC2530DB\..\..\..\..\..\CO #
#                          MPONENTS\OSAL\MCU\CCSOC\ -I                        #
#                          C:\Users\Administrator\Desktop\NDN-down\Projects\z #
#                          stack\Samples\SampleApp\CC2530DB\..\..\..\..\..\CO #
#                          MPONENTS\OSAL\INCLUDE\ -I                          #
#                          C:\Users\Administrator\Desktop\NDN-down\Projects\z #
#                          stack\Samples\SampleApp\CC2530DB\..\..\..\..\..\CO #
#                          MPONENTS\STACK\AF\ -I C:\Users\Administrator\Deskt #
#                          op\NDN-down\Projects\zstack\Samples\SampleApp\CC25 #
#                          30DB\..\..\..\..\..\COMPONENTS\STACK\NWK\ -I       #
#                          C:\Users\Administrator\Desktop\NDN-down\Projects\z #
#                          stack\Samples\SampleApp\CC2530DB\..\..\..\..\..\CO #
#                          MPONENTS\STACK\SEC\ -I C:\Users\Administrator\Desk #
#                          top\NDN-down\Projects\zstack\Samples\SampleApp\CC2 #
#                          530DB\..\..\..\..\..\COMPONENTS\STACK\SAPI\ -I     #
#                          C:\Users\Administrator\Desktop\NDN-down\Projects\z #
#                          stack\Samples\SampleApp\CC2530DB\..\..\..\..\..\CO #
#                          MPONENTS\STACK\SYS\ -I C:\Users\Administrator\Desk #
#                          top\NDN-down\Projects\zstack\Samples\SampleApp\CC2 #
#                          530DB\..\..\..\..\..\COMPONENTS\STACK\ZDO\ -I      #
#                          C:\Users\Administrator\Desktop\NDN-down\Projects\z #
#                          stack\Samples\SampleApp\CC2530DB\..\..\..\..\..\CO #
#                          MPONENTS\ZMAC\F8W\ -I C:\Users\Administrator\Deskt #
#                          op\NDN-down\Projects\zstack\Samples\SampleApp\CC25 #
#                          30DB\..\..\..\..\..\COMPONENTS\ZMAC\ -I            #
#                          C:\Users\Administrator\Desktop\NDN-down\Projects\z #
#                          stack\Samples\SampleApp\CC2530DB\..\..\..\..\..\CO #
#                          MPONENTS\SERVICES\SADDR\ -I                        #
#                          C:\Users\Administrator\Desktop\NDN-down\Projects\z #
#                          stack\Samples\SampleApp\CC2530DB\..\..\..\..\..\CO #
#                          MPONENTS\SERVICES\SDATA\ -I                        #
#                          C:\Users\Administrator\Desktop\NDN-down\Projects\z #
#                          stack\Samples\SampleApp\CC2530DB\..\..\..\..\..\CO #
#                          MPONENTS\MAC\INCLUDE\ -I                           #
#                          C:\Users\Administrator\Desktop\NDN-down\Projects\z #
#                          stack\Samples\SampleApp\CC2530DB\..\..\..\..\..\CO #
#                          MPONENTS\MAC\HIGH_LEVEL\ -I                        #
#                          C:\Users\Administrator\Desktop\NDN-down\Projects\z #
#                          stack\Samples\SampleApp\CC2530DB\..\..\..\..\..\CO #
#                          MPONENTS\MAC\LOW_LEVEL\srf04\ -I                   #
#                          C:\Users\Administrator\Desktop\NDN-down\Projects\z #
#                          stack\Samples\SampleApp\CC2530DB\..\..\..\..\..\CO #
#                          MPONENTS\MAC\LOW_LEVEL\srf04\SINGLE_CHIP\ -Ohz     #
#                          --require_prototypes                               #
#    List file          =  C:\Users\Administrator\Desktop\NDN-down\Projects\z #
#                          stack\Samples\SampleApp\CC2530DB\EndDeviceEB-Pro\L #
#                          ist\SampleApp.lst                                  #
#    Object file        =  C:\Users\Administrator\Desktop\NDN-down\Projects\z #
#                          stack\Samples\SampleApp\CC2530DB\EndDeviceEB-Pro\O #
#                          bj\SampleApp.r51                                   #
#                                                                             #
#                                                                             #
###############################################################################

C:\Users\Administrator\Desktop\NDN-down\Projects\zstack\Samples\SampleApp\Source\SampleApp.c
      1          /*********************************************************************
      2           * INCLUDES
      3           */
      4          #include "OSAL.h"
      5          #include "ZGlobals.h"
      6          #include "AF.h"
      7          #include "aps_groups.h"
      8          #include "ZDApp.h"
      9          
     10          #include "SampleApp.h"
     11          #include "SampleAppHw.h"
     12          
     13          #include "OnBoard.h"

   \                                 In  segment SFR_AN, at 0x88
   \   union <unnamed> volatile __sfr _A_TCON
   \                     _A_TCON:
   \   000000                DS 1

   \                                 In  segment SFR_AN, at 0xb6
   \   unsigned char volatile __sfr ADCCON3
   \                     ADCCON3:
   \   000000                DS 1

   \                                 In  segment SFR_AN, at 0xba
   \   unsigned char volatile __sfr ADCL
   \                     ADCL:
   \   000000                DS 1

   \                                 In  segment SFR_AN, at 0xbb
   \   unsigned char volatile __sfr ADCH
   \                     ADCH:
   \   000000                DS 1
     14          
     15          /* HAL */
     16          #include "hal_lcd.h"
     17          #include "hal_led.h"
     18          #include "hal_key.h"
     19          #include "MT_UART.h"
     20          #include "MT_APP.h"
     21          #include "MT.h"
     22          

   \                                 In  segment XDATA_I, align 1, keep-with-next
     23          int NodeId = 3;
   \                     NodeId:
   \   000000                DS 2
   \   000002                REQUIRE `?<Initializer for NodeId>`
   \   000002                REQUIRE __INIT_XDATA_I

   \                                 In  segment XDATA_I, align 1, keep-with-next
     24          int layer = 2;
   \                     layer:
   \   000000                DS 2
   \   000002                REQUIRE `?<Initializer for layer>`
   \   000002                REQUIRE __INIT_XDATA_I
     25          

   \                                 In  segment XDATA_Z, align 1, keep-with-next
     26          uint16 flag;
   \                     flag:
   \   000000                DS 2
   \   000002                REQUIRE __INIT_XDATA_Z
     27          
     28          //三大表的变量声明定义
     29          /////////////////////////////////////////////////////////////////////////////////

   \                                 In  segment XDATA_Z, align 1, keep-with-next
     30          int temp_i;	
   \                     temp_i:
   \   000000                DS 2
   \   000002                REQUIRE __INIT_XDATA_Z

   \                                 In  segment XDATA_Z, align 1, keep-with-next
     31          int temp_j;
   \                     temp_j:
   \   000000                DS 2
   \   000002                REQUIRE __INIT_XDATA_Z
     32          //counter记录本节点已经发送过得批次的最大值，用于过滤返回数据的个数，即聚合作用

   \                                 In  segment XDATA_Z, align 1, keep-with-next
     33          int counter;
   \                     counter:
   \   000000                DS 2
   \   000002                REQUIRE __INIT_XDATA_Z
     34          
     35          //Interesting相关变量定义	

   \                                 In  segment XDATA_Z, align 1, keep-with-next
     36          InterestName	tempInterName;
   \                     tempInterName:
   \   000000                DS 6
   \   000006                REQUIRE __INIT_XDATA_Z

   \                                 In  segment XDATA_Z, align 1, keep-with-next
     37          Interest	AcceptInterest;
   \                     AcceptInterest:
   \   000000                DS 12
   \   00000C                REQUIRE __INIT_XDATA_Z

   \                                 In  segment XDATA_Z, align 1, keep-with-next
     38          uint16 InterestLastID;
   \                     InterestLastID:
   \   000000                DS 2
   \   000002                REQUIRE __INIT_XDATA_Z
     39          	
     40          //Data相关变量定义

   \                                 In  segment XDATA_Z, align 1, keep-with-next
     41          Data	AcceptData;
   \                     AcceptData:
   \   000000                DS 12
   \   00000C                REQUIRE __INIT_XDATA_Z
     42          
     43          //CS表需要的相关定义
     44          //CS表

   \                                 In  segment XDATA_Z, align 1, keep-with-next
     45          CSItem	ContentStore[ContentStoreNumber];
   \                     ContentStore:
   \   000000                DS 140
   \   00008C                REQUIRE __INIT_XDATA_Z
     46          //CS目前的条目计数

   \                                 In  segment XDATA_Z, align 1, keep-with-next
     47          int CScounter=0;
   \                     CScounter:
   \   000000                DS 2
   \   000002                REQUIRE __INIT_XDATA_Z
     48          
     49          //PIT表相关变量定义	
     50          //PIT表	

   \                                 In  segment XDATA_Z, align 1, keep-with-next
     51          PITItem	PendingTable[PendingNumber];
   \                     PendingTable:
   \   000000                DS 200
   \   0000C8                REQUIRE __INIT_XDATA_Z
     52          //PIT表目前的条目计数

   \                                 In  segment XDATA_Z, align 1, keep-with-next
     53          int	PITCounter = 0;
   \                     PITCounter:
   \   000000                DS 2
   \   000002                REQUIRE __INIT_XDATA_Z
     54          
     55          //FIB表相关变量定义
     56          //FIB表

   \                                 In  segment XDATA_Z, align 1, keep-with-next
     57          FIBItem	ForwardingTable[ForwardingNumber];
   \                     ForwardingTable:
   \   000000                DS 220
   \   0000DC                REQUIRE __INIT_XDATA_Z

   \                                 In  segment XDATA_Z, align 1, keep-with-next
     58          int	FIBCounter = 0;//FIB表目前的条目计数
   \                     FIBCounter:
   \   000000                DS 2
   \   000002                REQUIRE __INIT_XDATA_Z

   \                                 In  segment XDATA_Z, align 1, keep-with-next
     59          int	InsertNewName;//0为未初始化，1为插入了一个新的interestname
   \                     InsertNewName:
   \   000000                DS 2
   \   000002                REQUIRE __INIT_XDATA_Z
     60          //////////////////////////////////////////////////////////////////////
     61          

   \                                 In  segment XDATA_ROM_C, align 1
     62          const cId_t SampleApp_ClusterList[SAMPLEAPP_MAX_CLUSTERS] =
   \                     SampleApp_ClusterList:
   \   000000   0100         DW 1
   \   000002   0200         DW 2
     63          {
     64            SAMPLEAPP_PERIODIC_CLUSTERID,
     65            SAMPLEAPP_FLASH_CLUSTERID
     66          };
     67          

   \                                 In  segment XDATA_ROM_C, align 1
     68          const SimpleDescriptionFormat_t SampleApp_SimpleDesc =
   \                     SampleApp_SimpleDesc:
   \   000000   14           DB 20
   \   000001   080F         DW 3848
   \   000003   0100         DW 1
   \   000005   00           DB 0
   \   000006   02           DB 2
   \   000007   ....         DW SampleApp_ClusterList
   \   000009   02           DB 2
   \   00000A   ....         DW SampleApp_ClusterList
     69          {
     70            SAMPLEAPP_ENDPOINT,              //  int Endpoint;
     71            SAMPLEAPP_PROFID,                //  uint16 AppProfId[2];
     72            SAMPLEAPP_DEVICEID,              //  uint16 AppDeviceId[2];
     73            SAMPLEAPP_DEVICE_VERSION,        //  int   AppDevVer:4;
     74            SAMPLEAPP_FLAGS,                 //  int   AppFlags:4;
     75            SAMPLEAPP_MAX_CLUSTERS,          //  uint8  AppNumInClusters;
     76            (cId_t *)SampleApp_ClusterList,  //  uint8 *pAppInClusterList;
     77            SAMPLEAPP_MAX_CLUSTERS,          //  uint8  AppNumInClusters;
     78            (cId_t *)SampleApp_ClusterList   //  uint8 *pAppInClusterList;
     79          };
     80          

   \                                 In  segment XDATA_Z, align 1, keep-with-next
     81          endPointDesc_t SampleApp_epDesc;
   \                     SampleApp_epDesc:
   \   000000                DS 6
   \   000006                REQUIRE __INIT_XDATA_Z
     82          
     83          

   \                                 In  segment XDATA_Z, align 1, keep-with-next
     84          uint8 SampleApp_TaskID;   // Task ID for internal task/event processing
   \                     SampleApp_TaskID:
   \   000000                DS 1
   \   000001                REQUIRE __INIT_XDATA_Z
     85                                    // This variable will be received when
     86                                    // SampleApp_Init() is called.

   \                                 In  segment XDATA_Z, align 1, keep-with-next
     87          devStates_t SampleApp_NwkState;
   \                     SampleApp_NwkState:
   \   000000                DS 1
   \   000001                REQUIRE __INIT_XDATA_Z
     88          

   \                                 In  segment XDATA_Z, align 1, keep-with-next
     89          uint8 SampleApp_TransID;  // This is the unique message ID (counter)
   \                     SampleApp_TransID:
   \   000000                DS 1
   \   000001                REQUIRE __INIT_XDATA_Z
     90          

   \                                 In  segment XDATA_Z, align 1, keep-with-next
     91          afAddrType_t SampleApp_Periodic_DstAddr; //广播
   \                     SampleApp_Periodic_DstAddr:
   \   000000                DS 12
   \   00000C                REQUIRE __INIT_XDATA_Z

   \                                 In  segment XDATA_Z, align 1, keep-with-next
     92          afAddrType_t SampleApp_Flash_DstAddr;    //组播
   \                     SampleApp_Flash_DstAddr:
   \   000000                DS 12
   \   00000C                REQUIRE __INIT_XDATA_Z

   \                                 In  segment XDATA_Z, align 1, keep-with-next
     93          afAddrType_t SampleApp_P2P_DstAddr;      //点播
   \                     SampleApp_P2P_DstAddr:
   \   000000                DS 12
   \   00000C                REQUIRE __INIT_XDATA_Z
     94          

   \                                 In  segment XDATA_Z, align 1, keep-with-next
     95          aps_Group_t SampleApp_Group;
   \                     SampleApp_Group:
   \   000000                DS 18
   \   000012                REQUIRE __INIT_XDATA_Z
     96          

   \                                 In  segment XDATA_Z, align 1, keep-with-next
     97          uint8 SampleAppPeriodicCounter = 0;
   \                     SampleAppPeriodicCounter:
   \   000000                DS 1
   \   000001                REQUIRE __INIT_XDATA_Z

   \                                 In  segment XDATA_Z, align 1, keep-with-next
     98          uint8 SampleAppFlashCounter = 0;
   \                     SampleAppFlashCounter:
   \   000000                DS 1
   \   000001                REQUIRE __INIT_XDATA_Z
     99          
    100          /*********************************************************************
    101           * LOCAL FUNCTIONS
    102           */
    103          void SampleApp_MessageMSGCB( afIncomingMSGPacket_t *pckt );
    104          void SampleApp_SendPeriodicMessage( void );
    105          void SampleApp_Send_P2P_Message(void);
    106          
    107          
    108          //NDN函数声明
    109          /////////////////////////////////////////////////////////
    110          void SampleApp_COOR_Send_Message(void);//协调器下发兴趣包
    111          void SampleApp_Interest_Process(afIncomingMSGPacket_t *pkt);//兴趣包处理
    112          void SampleApp_ContinueSend(void);
    113          void ForwardingInterestFromFIB(int id);//FIB转发兴趣包
    114          void SampleApp_AckMessage_Send(int lastid);
    115          void SampleApp_Ack_Process( afIncomingMSGPacket_t *pkt );//ACK包处理
    116          void SampleApp_DataMessage_Send(int id);//回数据包
    117          uint16 getADC (void);//采集电压
    118          void SampleApp_Data_Process( afIncomingMSGPacket_t *pkt );
    119          void SendDataFromPIT( uint8 num, Data data);//PIT表发数据
    120          void SampleApp_SendDataFromCS( uint8 num,uint8 Addr);
    121          
    122          //NDN CS表相关声明
    123          void InsertContentStore(Data data);
    124          int ContentStoreFinder(Interest interest);
    125          void DeleteItemCS(void);
    126          
    127          //NDN PIT表相关操作函数
    128          int PendingTableFindInterest(Interest interest);//PIT表中interest查找
    129          void InsertNamePIT(Interest interest);//PIT表中未找到interestname则插入interestname和incommingQueue
    130          void InsertIncomingPIT(uint8 i);//PIT表中找到了interestName则插入incommingQuere
    131          int PendingTableFindData(Data data);//PIT表中查找Data知否为等待的data
    132          void DeleteItemPITS(int i);//PIT表中删除特定的Item
    133          void DeleteItemPIT(void);//PIT表中删除操作，根据已经存在的time，删除长时间的
    134          
    135          //FIB表相关操作
    136          //FIB表查找interest，使用模糊查询，即只是比较DestinationID和DataFlag即可，不需要需要批次一样。
    137          int ForwardingTableFinder(Interest interest);
    138          //FIB表未找到interest，插入新的interestnName，其他等待回复ACK后再添加。后进行广播转发
    139          void InsertInterestFIB(Interest interest);
    140          //FIB发送完新的interest后收到了ACK来进行outcomingQueue添加,
    141          //若没有接受到下一跳的回复，则新的interest丢弃，根据OutcomingNumber来判断
    142          void InsertQueueFIB(uint8 interestID,uint16 nodeid);
    143          //FIB表进行删除，删除当前没有被重复使用且时间最长的条目
    144          void DeleteItemFIB(void);
    145          //FIB表中删除特定的Item
    146          void DeleteItemFIBS(int i);
    147          
    148          /////////////////////////////////////////////////////////////////////////////////////
    149          
    150          
    151          

   \                                 In  segment BANKED_CODE, align 1, keep-with-next
    152          void SampleApp_Init( uint8 task_id )
   \                     SampleApp_Init:
    153          { 
   \   000000   74F5         MOV     A,#-0xb
   \   000002   12....       LCALL   ?BANKED_ENTER_XDATA
   \   000005                ; Saved register size: 11
   \   000005                ; Auto size: 0
   \   000005   E9           MOV     A,R1
   \   000006   FE           MOV     R6,A
    154            SampleApp_TaskID = task_id;
   \   000007   90....       MOV     DPTR,#SampleApp_TaskID
   \   00000A   F0           MOVX    @DPTR,A
    155            SampleApp_NwkState = DEV_INIT;
   \   00000B   90....       MOV     DPTR,#SampleApp_NwkState
   \   00000E   7401         MOV     A,#0x1
   \   000010   F0           MOVX    @DPTR,A
    156            SampleApp_TransID = 0;
   \   000011   90....       MOV     DPTR,#SampleApp_TransID
   \   000014   E4           CLR     A
   \   000015   F0           MOVX    @DPTR,A
    157            
    158            MT_UartInit();                  //串口初始化
   \   000016                ; Setup parameters for call to function MT_UartInit
   \   000016   12....       LCALL   ??MT_UartInit?relay
    159            MT_UartRegisterTaskID(task_id); //注册串口任务
   \   000019                ; Setup parameters for call to function MT_UartRegisterTaskID
   \   000019   EE           MOV     A,R6
   \   00001A   F9           MOV     R1,A
   \   00001B   12....       LCALL   ??MT_UartRegisterTaskID?relay
    160            
    161           #if defined ( BUILD_ALL_DEVICES )
    162            if ( readCoordinatorJumper() )
    163              zgDeviceLogicalType = ZG_DEVICETYPE_COORDINATOR;
    164            else
    165              zgDeviceLogicalType = ZG_DEVICETYPE_ROUTER;
    166          #endif // BUILD_ALL_DEVICES
    167          
    168          #if defined ( HOLD_AUTO_START )
    169            // HOLD_AUTO_START is a compile option that will surpress ZDApp
    170            //  from starting the device and wait for the application to
    171            //  start the device.
    172            ZDOInitDevice(0);
    173          #endif
    174          
    175            // Setup for the periodic message's destination address
    176            // Broadcast to everyone
    177            SampleApp_Periodic_DstAddr.addrMode = (afAddrMode_t)AddrBroadcast;//广播
   \   00001E   90....       MOV     DPTR,#SampleApp_Periodic_DstAddr + 8
   \   000021   740F         MOV     A,#0xf
   \   000023   F0           MOVX    @DPTR,A
    178            SampleApp_Periodic_DstAddr.endPoint = SAMPLEAPP_ENDPOINT;
   \   000024   A3           INC     DPTR
   \   000025   7414         MOV     A,#0x14
   \   000027   F0           MOVX    @DPTR,A
    179            SampleApp_Periodic_DstAddr.addr.shortAddr = 0xFFFF;
   \   000028   90....       MOV     DPTR,#SampleApp_Periodic_DstAddr
   \   00002B   74FF         MOV     A,#-0x1
   \   00002D   F0           MOVX    @DPTR,A
   \   00002E   A3           INC     DPTR
   \   00002F   F0           MOVX    @DPTR,A
    180          
    181            // Setup for the flash command's destination address - Group 1
    182            SampleApp_Flash_DstAddr.addrMode = (afAddrMode_t)afAddrGroup;//组播
   \   000030   90....       MOV     DPTR,#SampleApp_Flash_DstAddr + 8
   \   000033   7401         MOV     A,#0x1
   \   000035   F0           MOVX    @DPTR,A
    183            SampleApp_Flash_DstAddr.endPoint = SAMPLEAPP_ENDPOINT;
   \   000036   A3           INC     DPTR
   \   000037   7414         MOV     A,#0x14
   \   000039   F0           MOVX    @DPTR,A
    184            SampleApp_Flash_DstAddr.addr.shortAddr = SAMPLEAPP_FLASH_GROUP;
   \   00003A   90....       MOV     DPTR,#SampleApp_Flash_DstAddr
   \   00003D   12....       LCALL   ??Subroutine137_0 & 0xFFFF
    185            
    186            SampleApp_P2P_DstAddr.addrMode = (afAddrMode_t)Addr16Bit; //点播 
   \                     ??CrossCallReturnLabel_297:
   \   000040   90....       MOV     DPTR,#SampleApp_P2P_DstAddr + 8
   \   000043   7402         MOV     A,#0x2
   \   000045   F0           MOVX    @DPTR,A
    187            SampleApp_P2P_DstAddr.endPoint = SAMPLEAPP_ENDPOINT; 
   \   000046   A3           INC     DPTR
   \   000047   7414         MOV     A,#0x14
   \   000049   F0           MOVX    @DPTR,A
    188            SampleApp_P2P_DstAddr.addr.shortAddr = 0x0000;            //发给协调器
   \   00004A   90....       MOV     DPTR,#SampleApp_P2P_DstAddr
   \   00004D   E4           CLR     A
   \   00004E   F0           MOVX    @DPTR,A
   \   00004F   A3           INC     DPTR
   \   000050   F0           MOVX    @DPTR,A
    189          
    190            // Fill out the endpoint description.
    191            SampleApp_epDesc.endPoint = SAMPLEAPP_ENDPOINT;
   \   000051   90....       MOV     DPTR,#SampleApp_epDesc
   \   000054   7414         MOV     A,#0x14
   \   000056   F0           MOVX    @DPTR,A
    192            SampleApp_epDesc.task_id = &SampleApp_TaskID;
   \   000057   A3           INC     DPTR
   \   000058   74..         MOV     A,#SampleApp_TaskID & 0xff
   \   00005A   F0           MOVX    @DPTR,A
   \   00005B   A3           INC     DPTR
   \   00005C   74..         MOV     A,#(SampleApp_TaskID >> 8) & 0xff
   \   00005E   F0           MOVX    @DPTR,A
    193            SampleApp_epDesc.simpleDesc
    194                      = (SimpleDescriptionFormat_t *)&SampleApp_SimpleDesc;
   \   00005F   A3           INC     DPTR
   \   000060   74..         MOV     A,#SampleApp_SimpleDesc & 0xff
   \   000062   F0           MOVX    @DPTR,A
   \   000063   A3           INC     DPTR
   \   000064   74..         MOV     A,#(SampleApp_SimpleDesc >> 8) & 0xff
   \   000066   12....       LCALL   ??Subroutine138_0 & 0xFFFF
    195            SampleApp_epDesc.latencyReq = noLatencyReqs;
    196          
    197            // Register the endpoint description with the AF
    198            afRegister( &SampleApp_epDesc );
   \                     ??CrossCallReturnLabel_289:
   \   000069                ; Setup parameters for call to function afRegister
   \   000069   7A..         MOV     R2,#SampleApp_epDesc & 0xff
   \   00006B   7B..         MOV     R3,#(SampleApp_epDesc >> 8) & 0xff
   \   00006D   12....       LCALL   ??afRegister?relay
    199          
    200            // Register for all key events - This app will handle all key events
    201            RegisterForKeys( SampleApp_TaskID );
   \   000070                ; Setup parameters for call to function RegisterForKeys
   \   000070   90....       MOV     DPTR,#SampleApp_TaskID
   \   000073   E0           MOVX    A,@DPTR
   \   000074   F9           MOV     R1,A
   \   000075   12....       LCALL   ??RegisterForKeys?relay
    202          
    203            // By default, all devices start out in Group 1
    204            SampleApp_Group.ID = 0x0001;
   \   000078   90....       MOV     DPTR,#SampleApp_Group
   \   00007B   12....       LCALL   ??Subroutine137_0 & 0xFFFF
    205            osal_memcpy( SampleApp_Group.name, "Group 1", 7  );
   \                     ??CrossCallReturnLabel_298:
   \   00007E                ; Setup parameters for call to function osal_memcpy
   \   00007E   75....       MOV     ?V0 + 0,#`?<Constant "Group 1">` & 0xff
   \   000081   75....       MOV     ?V0 + 1,#(`?<Constant "Group 1">` >> 8) & 0xff
   \   000084   F5..         MOV     ?V0 + 2,A
   \   000086   78..         MOV     R0,#?V0 + 0
   \   000088   12....       LCALL   ?PUSH_XSTACK_I_THREE
   \   00008B   7C07         MOV     R4,#0x7
   \   00008D   7D00         MOV     R5,#0x0
   \   00008F   7A..         MOV     R2,#(SampleApp_Group + 2) & 0xff
   \   000091   7B..         MOV     R3,#((SampleApp_Group + 2) >> 8) & 0xff
   \   000093   12....       LCALL   ??osal_memcpy?relay
   \   000096   7403         MOV     A,#0x3
   \   000098   12....       LCALL   ?DEALLOC_XSTACK8
    206            aps_AddGroup( SAMPLEAPP_ENDPOINT, &SampleApp_Group );
   \   00009B                ; Setup parameters for call to function aps_AddGroup
   \   00009B   7A..         MOV     R2,#SampleApp_Group & 0xff
   \   00009D   7B..         MOV     R3,#(SampleApp_Group >> 8) & 0xff
   \   00009F   7914         MOV     R1,#0x14
   \   0000A1   12....       LCALL   ??aps_AddGroup?relay
    207          
    208          #if defined ( LCD_SUPPORTED )
    209            HalLcdWriteString( "SampleApp", HAL_LCD_LINE_1 );
   \   0000A4                ; Setup parameters for call to function HalLcdWriteString
   \   0000A4   7901         MOV     R1,#0x1
   \   0000A6   7A..         MOV     R2,#`?<Constant "SampleApp">` & 0xff
   \   0000A8   7B..         MOV     R3,#(`?<Constant "SampleApp">` >> 8) & 0xff
   \   0000AA   12....       LCALL   ??HalLcdWriteString?relay
    210          #endif
    211          }
   \   0000AD   7F03         MOV     R7,#0x3
   \   0000AF   02....       LJMP    ?BANKED_LEAVE_XDATA

   \                                 In  segment BANKED_CODE, align 1, keep-with-next
   \                     ??Subroutine137_0:
   \   000000   7401         MOV     A,#0x1
   \   000002                REQUIRE ??Subroutine138_0
   \   000002                ; // Fall through to label ??Subroutine138_0

   \                                 In  segment BANKED_CODE, align 1, keep-with-next
   \                     ??Subroutine138_0:
   \   000000   F0           MOVX    @DPTR,A
   \   000001   A3           INC     DPTR
   \   000002   E4           CLR     A
   \   000003   F0           MOVX    @DPTR,A
   \   000004   22           RET
    212          
    213          //事件总和

   \                                 In  segment BANKED_CODE, align 1, keep-with-next
    214          uint16 SampleApp_ProcessEvent( uint8 task_id, uint16 events )
   \                     SampleApp_ProcessEvent:
    215          {
   \   000000   74F4         MOV     A,#-0xc
   \   000002   12....       LCALL   ?BANKED_ENTER_XDATA
   \   000005                ; Saved register size: 12
   \   000005                ; Auto size: 0
   \   000005   EA           MOV     A,R2
   \   000006   FE           MOV     R6,A
   \   000007   EB           MOV     A,R3
   \   000008   FF           MOV     R7,A
    216            afIncomingMSGPacket_t *MSGpkt;
    217            (void)task_id;  // Intentionally unreferenced parameter
    218          
    219            if ( events & SYS_EVENT_MSG )
   \   000009   5480         ANL     A,#0x80
   \   00000B   604E         JZ      ??SampleApp_ProcessEvent_0
    220            {
    221              MSGpkt = (afIncomingMSGPacket_t *)osal_msg_receive( SampleApp_TaskID );
   \   00000D                ; Setup parameters for call to function osal_msg_receive
   \   00000D   8018         SJMP    ??SampleApp_ProcessEvent_1
    222              while ( MSGpkt )
    223              {
    224                switch ( MSGpkt->hdr.event )
    225                {
    226                  // Received when a key is pressed
    227                  case KEY_CHANGE:
    228                    break;
    229                    // Received when a messages is received (OTA) for this endpoint
    230                  case AF_INCOMING_MSG_CMD:
    231                    SampleApp_MessageMSGCB( MSGpkt );
    232                    break;
    233          
    234                  // Received whenever the device changes state in the network
    235                  case ZDO_STATE_CHANGE:
    236                    SampleApp_NwkState = (devStates_t)(MSGpkt->hdr.status);
   \                     ??SampleApp_ProcessEvent_2:
   \   00000F   A3           INC     DPTR
   \   000010   E0           MOVX    A,@DPTR
   \   000011   90....       MOV     DPTR,#SampleApp_NwkState
   \   000014   F0           MOVX    @DPTR,A
    237                    if ( SampleApp_NwkState == DEV_ZB_COORD )
   \   000015   6409         XRL     A,#0x9
   \   000017   7007         JNZ     ??CrossCallReturnLabel_159
    238                    {
    239                      // Start sending the periodic message in a regular interval.
    240                      osal_start_timerEx( SampleApp_TaskID,
    241                                        SAMPLEAPP_SEND_COOR_COUNT_MSG_EVT,
    242                                        SAMPLEAPP_SEND_COOR_PERIODIC_MSG_TIMEOUT );
   \   000019                ; Setup parameters for call to function osal_start_timerEx
   \   000019   7CE8         MOV     R4,#-0x18
   \   00001B   7D03         MOV     R5,#0x3
   \   00001D   12....       LCALL   ?Subroutine56 & 0xFFFF
    243                    }
    244                    else
    245                    {
    246                      // Device is no longer in the network
    247                    }
    248                    break;
    249          
    250                  default:
    251                    break;
    252                }
    253          
    254                // Release the memory
    255                osal_msg_deallocate( (uint8 *)MSGpkt );
   \                     ??CrossCallReturnLabel_159:
   \   000020                ; Setup parameters for call to function osal_msg_deallocate
   \   000020   AA..         MOV     R2,?V0 + 0
   \   000022   AB..         MOV     R3,?V0 + 1
   \   000024   12....       LCALL   ??osal_msg_deallocate?relay
    256          
    257                // Next - if one is available
    258                MSGpkt = (afIncomingMSGPacket_t *)osal_msg_receive( SampleApp_TaskID );
   \   000027                ; Setup parameters for call to function osal_msg_receive
   \                     ??SampleApp_ProcessEvent_1:
   \   000027   90....       MOV     DPTR,#SampleApp_TaskID
   \   00002A   E0           MOVX    A,@DPTR
   \   00002B   F9           MOV     R1,A
   \   00002C   12....       LCALL   ??osal_msg_receive?relay
   \   00002F   8A..         MOV     ?V0 + 0,R2
   \   000031   8B..         MOV     ?V0 + 1,R3
   \   000033   E5..         MOV     A,?V0 + 0
   \   000035   45..         ORL     A,?V0 + 1
   \   000037   601A         JZ      ??SampleApp_ProcessEvent_3
   \   000039   85..82       MOV     DPL,?V0 + 0
   \   00003C   85..83       MOV     DPH,?V0 + 1
   \   00003F   E0           MOVX    A,@DPTR
   \   000040   24E6         ADD     A,#-0x1a
   \   000042   6006         JZ      ??SampleApp_ProcessEvent_4
   \   000044   2449         ADD     A,#0x49
   \   000046   60C7         JZ      ??SampleApp_ProcessEvent_2
   \   000048   80D6         SJMP    ??CrossCallReturnLabel_159
   \                     ??SampleApp_ProcessEvent_4:
   \   00004A                ; Setup parameters for call to function SampleApp_MessageMSGCB
   \   00004A   AA..         MOV     R2,?V0 + 0
   \   00004C   AB..         MOV     R3,?V0 + 1
   \   00004E   12....       LCALL   ??SampleApp_MessageMSGCB?relay
   \   000051   80CD         SJMP    ??CrossCallReturnLabel_159
    259              }
    260          
    261              // return unprocessed events
    262              return (events ^ SYS_EVENT_MSG);
   \                     ??SampleApp_ProcessEvent_3:
   \   000053   EE           MOV     A,R6
   \   000054   FA           MOV     R2,A
   \   000055   EF           MOV     A,R7
   \   000056   6480         XRL     A,#0x80
   \                     ??SampleApp_ProcessEvent_5:
   \   000058   FB           MOV     R3,A
   \   000059   8056         SJMP    ??SampleApp_ProcessEvent_6
    263            }
    264            //计数事件
    265            if( events & SAMPLEAPP_SEND_COOR_COUNT_MSG_EVT )
   \                     ??SampleApp_ProcessEvent_0:
   \   00005B   EE           MOV     A,R6
   \   00005C   5410         ANL     A,#0x10
   \   00005E   6032         JZ      ??SampleApp_ProcessEvent_7
    266            {
    267               if(flag<5)
   \   000060   90....       MOV     DPTR,#flag
   \   000063   C3           CLR     C
   \   000064   E0           MOVX    A,@DPTR
   \   000065   9405         SUBB    A,#0x5
   \   000067   A3           INC     DPTR
   \   000068   E0           MOVX    A,@DPTR
   \   000069   9400         SUBB    A,#0x0
   \   00006B   90....       MOV     DPTR,#flag
   \   00006E   500D         JNC     ??SampleApp_ProcessEvent_8
    268               { 
    269                   flag++;
   \   000070   12....       LCALL   ??Subroutine118_0 & 0xFFFF
    270                   osal_start_timerEx( SampleApp_TaskID,
    271                              SAMPLEAPP_SEND_COOR_COUNT_MSG_EVT,
    272                              SAMPLEAPP_SEND_COOR_PERIODIC_MSG_TIMEOUT );
   \                     ??CrossCallReturnLabel_184:
   \   000073                ; Setup parameters for call to function osal_start_timerEx
   \   000073   7CE8         MOV     R4,#-0x18
   \   000075   7D03         MOV     R5,#0x3
   \   000077   7A10         MOV     R2,#0x10
   \   000079   7B00         MOV     R3,#0x0
   \   00007B   800B         SJMP    ??SampleApp_ProcessEvent_9
    273               }
    274               else
    275               {
    276                  flag=0;
   \                     ??SampleApp_ProcessEvent_8:
   \   00007D   E4           CLR     A
   \   00007E   F0           MOVX    @DPTR,A
   \   00007F   A3           INC     DPTR
   \   000080   F0           MOVX    @DPTR,A
    277                  osal_start_timerEx( SampleApp_TaskID,
    278                              SAMPLEAPP_SEND_COOR_PERIODIC_MSG_EVT,
    279                              SAMPLEAPP_SEND_COOR_PERIODIC_MSG_TIMEOUT );
   \   000081                ; Setup parameters for call to function osal_start_timerEx
   \   000081   7CE8         MOV     R4,#-0x18
   \   000083   7D03         MOV     R5,#0x3
   \   000085   7A01         MOV     R2,#0x1
   \   000087   FB           MOV     R3,A
    280               }
   \                     ??SampleApp_ProcessEvent_9:
   \   000088   12....       LCALL   ??Subroutine110_0 & 0xFFFF
    281               return(events^SAMPLEAPP_SEND_COOR_COUNT_MSG_EVT);
   \                     ??CrossCallReturnLabel_161:
   \   00008B   EE           MOV     A,R6
   \   00008C   6410         XRL     A,#0x10
   \                     ??SampleApp_ProcessEvent_10:
   \   00008E   FA           MOV     R2,A
   \   00008F   EF           MOV     A,R7
   \   000090   80C6         SJMP    ??SampleApp_ProcessEvent_5
    282            }
    283            
    284            //协调器发送兴趣包事件
    285            if ( events & SAMPLEAPP_SEND_COOR_PERIODIC_MSG_EVT )
   \                     ??SampleApp_ProcessEvent_7:
   \   000092   EE           MOV     A,R6
   \   000093   A2E0         MOV     C,0xE0 /* A   */.0
   \   000095   5016         JNC     ??SampleApp_ProcessEvent_11
    286            {
    287              SampleApp_COOR_Send_Message();
   \   000097                ; Setup parameters for call to function SampleApp_COOR_Send_Message
   \   000097   12....       LCALL   ??SampleApp_COOR_Send_Message?relay
    288          
    289              osal_start_timerEx( SampleApp_TaskID, SAMPLEAPP_SEND_COOR_COUNT_MSG_EVT,
    290                  (SAMPLEAPP_SEND_COOR_PERIODIC_MSG_TIMEOUT + (osal_rand() & 0x00FF)) );
   \   00009A                ; Setup parameters for call to function osal_rand
   \   00009A   12....       LCALL   ??osal_rand?relay
   \   00009D                ; Setup parameters for call to function osal_start_timerEx
   \   00009D   EA           MOV     A,R2
   \   00009E   24E8         ADD     A,#-0x18
   \   0000A0   FC           MOV     R4,A
   \   0000A1   E4           CLR     A
   \   0000A2   3403         ADDC    A,#0x3
   \   0000A4   FD           MOV     R5,A
   \   0000A5   12....       LCALL   ?Subroutine56 & 0xFFFF
    291          
    292              return (events ^ SAMPLEAPP_SEND_COOR_PERIODIC_MSG_EVT);
   \                     ??CrossCallReturnLabel_160:
   \   0000A8   EE           MOV     A,R6
   \   0000A9   6401         XRL     A,#0x1
   \   0000AB   80E1         SJMP    ??SampleApp_ProcessEvent_10
    293            }
    294          
    295            // Discard unknown events
    296            return 0;
   \                     ??SampleApp_ProcessEvent_11:
   \   0000AD   7A00         MOV     R2,#0x0
   \   0000AF   7B00         MOV     R3,#0x0
   \                     ??SampleApp_ProcessEvent_6:
   \   0000B1   7F04         MOV     R7,#0x4
   \   0000B3   02....       LJMP    ?BANKED_LEAVE_XDATA
    297          }

   \                                 In  segment BANKED_CODE, align 1, keep-with-next
   \                     ?Subroutine56:
   \   000000   7A10         MOV     R2,#0x10
   \   000002   7B00         MOV     R3,#0x0
   \   000004                REQUIRE ??Subroutine110_0
   \   000004                ; // Fall through to label ??Subroutine110_0

   \                                 In  segment BANKED_CODE, align 1, keep-with-next
   \                     ??Subroutine110_0:
   \   000000   90....       MOV     DPTR,#SampleApp_TaskID
   \   000003   E0           MOVX    A,@DPTR
   \   000004   F9           MOV     R1,A
   \   000005   12....       LCALL   ??osal_start_timerEx?relay
   \   000008   22           RET

   \                                 In  segment BANKED_CODE, align 1, keep-with-next
   \                     ??Subroutine118_0:
   \   000000   12....       LCALL   ?Subroutine75 & 0xFFFF
   \                     ??CrossCallReturnLabel_253:
   \   000003   22           RET

   \                                 In  segment BANKED_CODE, align 1, keep-with-next
   \                     ?Subroutine75:
   \   000000   12....       LCALL   ?Subroutine102 & 0xFFFF
   \                     ??CrossCallReturnLabel_259:
   \   000003   F0           MOVX    @DPTR,A
   \   000004   22           RET

   \                                 In  segment BANKED_CODE, align 1, keep-with-next
   \                     ?Subroutine102:
   \   000000   E0           MOVX    A,@DPTR
   \   000001   2401         ADD     A,#0x1
   \   000003   F0           MOVX    @DPTR,A
   \   000004   A3           INC     DPTR
   \   000005   E0           MOVX    A,@DPTR
   \   000006   3400         ADDC    A,#0x0
   \   000008   22           RET
    298          
    299          //消息处理函数

   \                                 In  segment BANKED_CODE, align 1, keep-with-next
    300          void SampleApp_MessageMSGCB( afIncomingMSGPacket_t *pkt )
   \                     SampleApp_MessageMSGCB:
    301          {
   \   000000   74F6         MOV     A,#-0xa
   \   000002   12....       LCALL   ?BANKED_ENTER_XDATA
   \   000005                ; Saved register size: 10
   \   000005                ; Auto size: 0
    302            switch ( pkt->clusterId )
   \   000005   8A82         MOV     DPL,R2
   \   000007   8B83         MOV     DPH,R3
   \   000009   A3           INC     DPTR
   \   00000A   A3           INC     DPTR
   \   00000B   A3           INC     DPTR
   \   00000C   A3           INC     DPTR
   \   00000D   E0           MOVX    A,@DPTR
   \   00000E   F5..         MOV     ?V0 + 0,A
   \   000010   A3           INC     DPTR
   \   000011   E0           MOVX    A,@DPTR
   \   000012   F5..         MOV     ?V0 + 1,A
   \   000014   78..         MOV     R0,#?V0 + 0
   \   000016   12....       LCALL   ?US_SWITCH_DENSE
   \                     `?<Jumptable for SampleApp_MessageMSGCB>_0`:
   \   000019   0900         DW        9
   \   00001B   02           DB        2
   \   00001C   ....         DW        ??SampleApp_MessageMSGCB_0
   \   00001E   ....         DW        ??SampleApp_MessageMSGCB_1
   \   000020   ....         DW        ??SampleApp_MessageMSGCB_2
   \   000022   ....         DW        ??SampleApp_MessageMSGCB_3
    303            {
    304              case SAMPLEAPP_P2P_CLUSTERID:
    305                break;    
    306              case SAMPLEAPP_PERIODIC_CLUSTERID:
    307                break;
    308              case SAMPLEAPP_FLASH_CLUSTERID:
    309                break;
    310              case SAMPLEAPP_INTEREST_CLUSTERID:
    311                SampleApp_Interest_Process(pkt);
   \                     ??SampleApp_MessageMSGCB_1:
   \   000024                ; Setup parameters for call to function SampleApp_Interest_Process
   \   000024   12....       LCALL   ??SampleApp_Interest_Process?relay
    312                break;
   \   000027   8026         SJMP    ??SampleApp_MessageMSGCB_0
    313              case SAMPLEAPP_ACK_CLUSTERID:
    314                SampleApp_Ack_Process(pkt);
   \                     ??SampleApp_MessageMSGCB_2:
   \   000029                ; Setup parameters for call to function SampleApp_Ack_Process
   \   000029   12....       LCALL   ??SampleApp_Ack_Process?relay
    315                break;
   \   00002C   8021         SJMP    ??SampleApp_MessageMSGCB_0
    316              case SAMPLEAPP_DATA_CLUSTERID:
    317                if( pkt->cmd.Data[10] == 0 )
   \                     ??SampleApp_MessageMSGCB_3:
   \   00002E   12....       LCALL   ?Subroutine60 & 0xFFFF
   \                     ??CrossCallReturnLabel_167:
   \   000031   12....       LCALL   ?Subroutine43 & 0xFFFF
   \                     ??CrossCallReturnLabel_73:
   \   000034   A3           INC     DPTR
   \   000035   E0           MOVX    A,@DPTR
   \   000036   7014         JNZ     ??SampleApp_MessageMSGCB_4
    318                {
    319                  HalUARTWrite(0, pkt->cmd.Data, pkt->cmd.DataLength);
   \   000038                ; Setup parameters for call to function HalUARTWrite
   \   000038   EA           MOV     A,R2
   \   000039   241F         ADD     A,#0x1f
   \   00003B   12....       LCALL   ??Subroutine111_0 & 0xFFFF
    320                }
   \                     ??CrossCallReturnLabel_166:
   \   00003E   12....       LCALL   ??Subroutine149_0 & 0xFFFF
   \                     ??CrossCallReturnLabel_362:
   \   000041   E8           MOV     A,R0
   \   000042   FA           MOV     R2,A
   \   000043   E9           MOV     A,R1
   \   000044   FB           MOV     R3,A
   \   000045   7900         MOV     R1,#0x0
   \   000047   12....       LCALL   ??HalUARTWrite?relay
   \   00004A   8003         SJMP    ??SampleApp_MessageMSGCB_0
    321                else
    322                {
    323                  SampleApp_Data_Process(pkt);
   \                     ??SampleApp_MessageMSGCB_4:
   \   00004C                ; Setup parameters for call to function SampleApp_Data_Process
   \   00004C   12....       LCALL   ??SampleApp_Data_Process?relay
    324                }
    325                 break;
    326            }
    327          }
   \                     ??SampleApp_MessageMSGCB_0:
   \   00004F   02....       LJMP    ??Subroutine116_0 & 0xFFFF

   \                                 In  segment BANKED_CODE, align 1, keep-with-next
   \                     ?Subroutine60:
   \   000000   EA           MOV     A,R2
   \   000001   2421         ADD     A,#0x21
   \   000003                REQUIRE ??Subroutine111_0
   \   000003                ; // Fall through to label ??Subroutine111_0

   \                                 In  segment BANKED_CODE, align 1, keep-with-next
   \                     ??Subroutine111_0:
   \   000000   F582         MOV     DPL,A
   \   000002   EB           MOV     A,R3
   \   000003                REQUIRE ??Subroutine112_0
   \   000003                ; // Fall through to label ??Subroutine112_0

   \                                 In  segment BANKED_CODE, align 1, keep-with-next
   \                     ??Subroutine112_0:
   \   000000   12....       LCALL   ??Subroutine148_0 & 0xFFFF
   \                     ??CrossCallReturnLabel_352:
   \   000003   22           RET

   \                                 In  segment BANKED_CODE, align 1, keep-with-next
   \                     ?Subroutine43:
   \   000000   12....       LCALL   ?Subroutine86 & 0xFFFF
   \                     ??CrossCallReturnLabel_345:
   \   000003   8882         MOV     DPL,R0
   \   000005   8983         MOV     DPH,R1
   \   000007   A3           INC     DPTR
   \   000008   A3           INC     DPTR
   \   000009   A3           INC     DPTR
   \   00000A   A3           INC     DPTR
   \   00000B   A3           INC     DPTR
   \   00000C   A3           INC     DPTR
   \   00000D   A3           INC     DPTR
   \   00000E   A3           INC     DPTR
   \   00000F   A3           INC     DPTR
   \   000010   22           RET

   \                                 In  segment BANKED_CODE, align 1, keep-with-next
   \                     ??Subroutine116_0:
   \   000000   7F02         MOV     R7,#0x2
   \   000002   02....       LJMP    ?BANKED_LEAVE_XDATA

   \                                 In  segment BANKED_CODE, align 1, keep-with-next
   \                     ??Subroutine140_0:
   \   000000   3400         ADDC    A,#0x0
   \   000002   F583         MOV     DPH,A
   \   000004   22           RET

   \                                 In  segment BANKED_CODE, align 1, keep-with-next
   \                     ?Subroutine86:
   \   000000   E0           MOVX    A,@DPTR
   \   000001   F8           MOV     R0,A
   \   000002   A3           INC     DPTR
   \   000003   E0           MOVX    A,@DPTR
   \   000004   F9           MOV     R1,A
   \   000005   22           RET

   \                                 In  segment BANKED_CODE, align 1, keep-with-next
   \                     ??Subroutine148_0:
   \   000000   12....       LCALL   ??Subroutine140_0 & 0xFFFF
   \                     ??CrossCallReturnLabel_361:
   \   000003   22           RET

   \                                 In  segment BANKED_CODE, align 1, keep-with-next
   \                     ??Subroutine149_0:
   \   000000   E0           MOVX    A,@DPTR
   \   000001   FC           MOV     R4,A
   \   000002   A3           INC     DPTR
   \   000003   E0           MOVX    A,@DPTR
   \   000004   FD           MOV     R5,A
   \   000005   22           RET
    328          
    329          //协调器下发兴趣包

   \                                 In  segment BANKED_CODE, align 1, keep-with-next
    330          void SampleApp_COOR_Send_Message(void)
   \                     SampleApp_COOR_Send_Message:
    331          {
   \   000000   74F6         MOV     A,#-0xa
   \   000002   12....       LCALL   ?BANKED_ENTER_XDATA
   \   000005                ; Saved register size: 10
   \   000005                ; Auto size: 12
   \   000005   74F4         MOV     A,#-0xc
   \   000007   12....       LCALL   ?ALLOC_XSTACK8
    332            uint8 interestData[12];
    333            interestData[0] = 0x7E;
   \   00000A   85..82       MOV     DPL,?XSP + 0
   \   00000D   85..83       MOV     DPH,?XSP + 1
   \   000010   747E         MOV     A,#0x7e
   \   000012   F0           MOVX    @DPTR,A
    334            interestData[1] = 0x45;
   \   000013   7401         MOV     A,#0x1
   \   000015   12....       LCALL   ?XSTACK_DISP0_8
   \   000018   7445         MOV     A,#0x45
   \   00001A   F0           MOVX    @DPTR,A
    335            interestData[2] = 1;//packageflag,interest为1，data为2，其他为3
   \   00001B   7402         MOV     A,#0x2
   \   00001D   12....       LCALL   ?XSTACK_DISP0_8
   \   000020   7401         MOV     A,#0x1
   \   000022   F0           MOVX    @DPTR,A
    336            interestData[3] = 3;//interestName,DestinationID
   \   000023   7403         MOV     A,#0x3
   \   000025   12....       LCALL   ?XSTACK_DISP0_8
   \   000028   7403         MOV     A,#0x3
   \   00002A   F0           MOVX    @DPTR,A
    337            interestData[4] = 4;//interestName,DataFlag，温度=1，湿度=2，光照=3，电压=4
   \   00002B   04           INC     A
   \   00002C   12....       LCALL   ?XSTACK_DISP0_8
   \   00002F   7404         MOV     A,#0x4
   \   000031   F0           MOVX    @DPTR,A
    338            interestData[5] = 1;//interestName,PackageCounter,包的批次号
   \   000032   04           INC     A
   \   000033   12....       LCALL   ?XSTACK_DISP0_8
   \   000036   7401         MOV     A,#0x1
   \   000038   12....       LCALL   ?Subroutine33 & 0xFFFF
    339            interestData[6] = NodeId;//lastID;
   \                     ??CrossCallReturnLabel_54:
   \   00003B   C0E0         PUSH    A
   \   00003D   7406         MOV     A,#0x6
   \   00003F   12....       LCALL   ?XSTACK_DISP0_8
   \   000042   D0E0         POP     A
   \   000044   F0           MOVX    @DPTR,A
    340            interestData[7] = 1;//Noce,随机值
   \   000045   7407         MOV     A,#0x7
   \   000047   12....       LCALL   ?XSTACK_DISP0_8
   \   00004A   7401         MOV     A,#0x1
   \   00004C   F0           MOVX    @DPTR,A
    341            interestData[8] = 0;//保留位
   \   00004D   7408         MOV     A,#0x8
   \   00004F   12....       LCALL   ?XSTACK_DISP0_8
   \   000052   E4           CLR     A
   \   000053   F0           MOVX    @DPTR,A
    342            interestData[9] = 0;
   \   000054   7409         MOV     A,#0x9
   \   000056   12....       LCALL   ?XSTACK_DISP0_8
   \   000059   E4           CLR     A
   \   00005A   F0           MOVX    @DPTR,A
    343            interestData[10] = layer;//层数 
   \   00005B   90....       MOV     DPTR,#layer
   \   00005E   E0           MOVX    A,@DPTR
   \   00005F   C0E0         PUSH    A
   \   000061   740A         MOV     A,#0xa
   \   000063   12....       LCALL   ?XSTACK_DISP0_8
   \   000066   D0E0         POP     A
   \   000068   F0           MOVX    @DPTR,A
    344            interestData[11] = 0x7E;
   \   000069   740B         MOV     A,#0xb
   \   00006B   12....       LCALL   ?XSTACK_DISP0_8
   \   00006E   747E         MOV     A,#0x7e
   \   000070   F0           MOVX    @DPTR,A
    345            
    346            HalUARTWrite(0, interestData, 12);
   \   000071                ; Setup parameters for call to function HalUARTWrite
   \   000071   7C0C         MOV     R4,#0xc
   \   000073   7D00         MOV     R5,#0x0
   \   000075   85..82       MOV     DPL,?XSP + 0
   \   000078   85..83       MOV     DPH,?XSP + 1
   \   00007B   AA82         MOV     R2,DPL
   \   00007D   AB83         MOV     R3,DPH
   \   00007F   7900         MOV     R1,#0x0
   \   000081   12....       LCALL   ??HalUARTWrite?relay
    347            
    348            if ( AF_DataRequest( &SampleApp_Periodic_DstAddr, &SampleApp_epDesc,
    349                                 SAMPLEAPP_INTEREST_CLUSTERID,
    350                                 12,
    351                                 interestData,
    352                                 &SampleApp_TransID,
    353                                 AF_DISCV_ROUTE,
    354                                 AF_DEFAULT_RADIUS ) == afStatus_SUCCESS )
   \   000084                ; Setup parameters for call to function AF_DataRequest
   \   000084                REQUIRE ?Subroutine4
   \   000084                ; // Fall through to label ?Subroutine4
    355            {
    356            }
    357            else
    358            { }
    359          }

   \                                 In  segment BANKED_CODE, align 1, keep-with-next
   \                     ?Subroutine4:
   \   000000   75..1E       MOV     ?V0 + 0,#0x1e
   \   000003   78..         MOV     R0,#?V0 + 0
   \   000005   12....       LCALL   ?PUSH_XSTACK_I_ONE
   \   000008   75....       MOV     ?V0 + 0,#SampleApp_TransID & 0xff
   \   00000B   75....       MOV     ?V0 + 1,#(SampleApp_TransID >> 8) & 0xff
   \   00000E   78..         MOV     R0,#?V0 + 0
   \   000010   12....       LCALL   ?PUSH_XSTACK_I_TWO
   \   000013   7403         MOV     A,#0x3
   \   000015   12....       LCALL   ?XSTACK_DISP0_8
   \   000018   8582..       MOV     ?V0 + 0,DPL
   \   00001B   8583..       MOV     ?V0 + 1,DPH
   \   00001E   78..         MOV     R0,#?V0 + 0
   \   000020   12....       LCALL   ?PUSH_XSTACK_I_TWO
   \   000023   75..0C       MOV     ?V0 + 0,#0xc
   \   000026   75..00       MOV     ?V0 + 1,#0x0
   \   000029   78..         MOV     R0,#?V0 + 0
   \   00002B   12....       LCALL   ?PUSH_XSTACK_I_TWO
   \   00002E   75..09       MOV     ?V0 + 0,#0x9
   \   000031   02....       LJMP    ??Subroutine114_0 & 0xFFFF

   \                                 In  segment BANKED_CODE, align 1, keep-with-next
   \                     ?Subroutine67:
   \   000000   7920         MOV     R1,#0x20
   \   000002   7C..         MOV     R4,#SampleApp_epDesc & 0xff
   \   000004   7D..         MOV     R5,#(SampleApp_epDesc >> 8) & 0xff
   \   000006   7A..         MOV     R2,#SampleApp_Periodic_DstAddr & 0xff
   \   000008   7B..         MOV     R3,#(SampleApp_Periodic_DstAddr >> 8) & 0xff
   \   00000A                REQUIRE ??Subroutine113_0
   \   00000A                ; // Fall through to label ??Subroutine113_0

   \                                 In  segment BANKED_CODE, align 1, keep-with-next
   \                     ??Subroutine113_0:
   \   000000   12....       LCALL   ??AF_DataRequest?relay
   \   000003   7409         MOV     A,#0x9
   \   000005   22           RET

   \                                 In  segment BANKED_CODE, align 1, keep-with-next
   \                     ?Subroutine33:
   \   000000   F0           MOVX    @DPTR,A
   \   000001   90....       MOV     DPTR,#NodeId
   \   000004   E0           MOVX    A,@DPTR
   \   000005   22           RET

   \                                 In  segment BANKED_CODE, align 1, keep-with-next
   \                     ??Subroutine114_0:
   \   000000   78..         MOV     R0,#?V0 + 0
   \   000002   12....       LCALL   ?PUSH_XSTACK_I_TWO
   \   000005   12....       LCALL   ?Subroutine67 & 0xFFFF
   \                     ??CrossCallReturnLabel_172:
   \   000008   12....       LCALL   ?DEALLOC_XSTACK8
   \   00000B   740C         MOV     A,#0xc
   \   00000D                REQUIRE ??Subroutine115_0
   \   00000D                ; // Fall through to label ??Subroutine115_0

   \                                 In  segment BANKED_CODE, align 1, keep-with-next
   \                     ??Subroutine115_0:
   \   000000   12....       LCALL   ?DEALLOC_XSTACK8
   \   000003                REQUIRE ??Subroutine116_0
   \   000003                ; // Fall through to label ??Subroutine116_0
    360          

   \                                 In  segment BANKED_CODE, align 1, keep-with-next
    361          void SampleApp_Interest_Process(afIncomingMSGPacket_t *pkt)
   \                     SampleApp_Interest_Process:
    362          {
   \   000000   74F6         MOV     A,#-0xa
   \   000002   12....       LCALL   ?BANKED_ENTER_XDATA
   \   000005                ; Saved register size: 10
   \   000005                ; Auto size: 0
    363              if( pkt->cmd.Data[2]==1 && ( pkt->cmd.Data[10] == layer-1) )//兴趣包，并且是上一层下发的兴趣包
   \   000005   12....       LCALL   ?Subroutine60 & 0xFFFF
   \                     ??CrossCallReturnLabel_168:
   \   000008   12....       LCALL   ??Subroutine147_0 & 0xFFFF
   \                     ??CrossCallReturnLabel_332:
   \   00000B   8882         MOV     DPL,R0
   \   00000D   8983         MOV     DPH,R1
   \   00000F   A3           INC     DPTR
   \   000010   A3           INC     DPTR
   \   000011   E0           MOVX    A,@DPTR
   \   000012   6401         XRL     A,#0x1
   \   000014   6003         JZ      $+5
   \   000016   02....       LJMP    ??SampleApp_Interest_Process_0 & 0xFFFF
   \   000019   8882         MOV     DPL,R0
   \   00001B   8983         MOV     DPH,R1
   \   00001D   A3           INC     DPTR
   \   00001E   A3           INC     DPTR
   \   00001F   A3           INC     DPTR
   \   000020   A3           INC     DPTR
   \   000021   A3           INC     DPTR
   \   000022   A3           INC     DPTR
   \   000023   A3           INC     DPTR
   \   000024   A3           INC     DPTR
   \   000025   A3           INC     DPTR
   \   000026   A3           INC     DPTR
   \   000027   E0           MOVX    A,@DPTR
   \   000028   FC           MOV     R4,A
   \   000029   90....       MOV     DPTR,#layer
   \   00002C   E0           MOVX    A,@DPTR
   \   00002D   24FF         ADD     A,#-0x1
   \   00002F   FA           MOV     R2,A
   \   000030   A3           INC     DPTR
   \   000031   E0           MOVX    A,@DPTR
   \   000032   34FF         ADDC    A,#-0x1
   \   000034   FB           MOV     R3,A
   \   000035   EA           MOV     A,R2
   \   000036   6C           XRL     A,R4
   \   000037   7001         JNZ     ??SampleApp_Interest_Process_1
   \   000039   EB           MOV     A,R3
   \                     ??SampleApp_Interest_Process_1:
   \   00003A   6003         JZ      $+5
   \   00003C   02....       LJMP    ??SampleApp_Interest_Process_0 & 0xFFFF
    364              {
    365                 //HalUARTWrite(0, pkt->cmd.Data, pkt->cmd.DataLength); //输出接收到的数据
    366                 AcceptInterest.PackageFlag = 1;
   \   00003F   90....       MOV     DPTR,#AcceptInterest
   \   000042   12....       LCALL   ??Subroutine137_0 & 0xFFFF
    367                 AcceptInterest.interestName.DestinationID=pkt->cmd.Data[3];
   \                     ??CrossCallReturnLabel_299:
   \   000045   8882         MOV     DPL,R0
   \   000047   8983         MOV     DPH,R1
   \   000049   A3           INC     DPTR
   \   00004A   A3           INC     DPTR
   \   00004B   A3           INC     DPTR
   \   00004C   E0           MOVX    A,@DPTR
   \   00004D   90....       MOV     DPTR,#AcceptInterest + 2
   \   000050   12....       LCALL   ?Subroutine26 & 0xFFFF
    368                 AcceptInterest.interestName.DataFlag=pkt->cmd.Data[4];
   \                     ??CrossCallReturnLabel_38:
   \   000053   E0           MOVX    A,@DPTR
   \   000054   90....       MOV     DPTR,#AcceptInterest + 4
   \   000057   12....       LCALL   ?Subroutine26 & 0xFFFF
    369                 AcceptInterest.interestName.PackageCounter=pkt->cmd.Data[5];
   \                     ??CrossCallReturnLabel_39:
   \   00005A   A3           INC     DPTR
   \   00005B   E0           MOVX    A,@DPTR
   \   00005C   90....       MOV     DPTR,#AcceptInterest + 6
   \   00005F   12....       LCALL   ?Subroutine21 & 0xFFFF
    370                 AcceptInterest.LastID=pkt->cmd.Data[6];
   \                     ??CrossCallReturnLabel_30:
   \   000062   E0           MOVX    A,@DPTR
   \   000063   90....       MOV     DPTR,#AcceptInterest + 8
   \   000066   12....       LCALL   ?Subroutine21 & 0xFFFF
    371                 AcceptInterest.Noce=pkt->cmd.Data[7];
   \                     ??CrossCallReturnLabel_31:
   \   000069   A3           INC     DPTR
   \   00006A   E0           MOVX    A,@DPTR
   \   00006B   90....       MOV     DPTR,#AcceptInterest + 10
   \   00006E   12....       LCALL   ??Subroutine138_0 & 0xFFFF
    372                 //判断是否回ACK包，若是协调器下发的兴趣包则不回，如果不是则回
    373                 if( AcceptInterest.LastID!=0 )
   \                     ??CrossCallReturnLabel_290:
   \   000071   90....       MOV     DPTR,#AcceptInterest + 8
   \   000074   E0           MOVX    A,@DPTR
   \   000075   FA           MOV     R2,A
   \   000076   7B00         MOV     R3,#0x0
   \   000078   6003         JZ      ??SampleApp_Interest_Process_2
    374                 {
    375                    SampleApp_AckMessage_Send(AcceptInterest.LastID);
   \   00007A                ; Setup parameters for call to function SampleApp_AckMessage_Send
   \   00007A   12....       LCALL   ??SampleApp_AckMessage_Send?relay
    376                 }
    377                 //判断目的节点是否是自己
    378                 if( AcceptInterest.interestName.DestinationID == NodeId )
   \                     ??SampleApp_Interest_Process_2:
   \   00007D   90....       MOV     DPTR,#AcceptInterest + 2
   \   000080   12....       LCALL   ??Subroutine147_0 & 0xFFFF
   \                     ??CrossCallReturnLabel_333:
   \   000083   90....       MOV     DPTR,#NodeId
   \   000086   E0           MOVX    A,@DPTR
   \   000087   68           XRL     A,R0
   \   000088   7003         JNZ     ??SampleApp_Interest_Process_3
   \   00008A   A3           INC     DPTR
   \   00008B   E0           MOVX    A,@DPTR
   \   00008C   69           XRL     A,R1
   \                     ??SampleApp_Interest_Process_3:
   \   00008D   700C         JNZ     ??SampleApp_Interest_Process_4
    379                 {
    380                    //若是给自己，直接给上一跳节点回数据
    381                     SampleApp_DataMessage_Send(AcceptInterest.LastID);
   \   00008F                ; Setup parameters for call to function SampleApp_DataMessage_Send
   \   00008F   90....       MOV     DPTR,#AcceptInterest + 8
   \   000092   12....       LCALL   ??Subroutine117_0 & 0xFFFF
    382                 }
   \                     ??CrossCallReturnLabel_174:
   \   000095   12....       LCALL   ??SampleApp_DataMessage_Send?relay
   \   000098   02....       LJMP    ??SampleApp_Interest_Process_0 & 0xFFFF
    383                 else
    384                 {
    385                    //CS表中查找
    386                    if(ContentStoreFinder(AcceptInterest)== CScounter ) //CS表查找失败
   \                     ??SampleApp_Interest_Process_4:
   \   00009B                ; Setup parameters for call to function ContentStoreFinder
   \   00009B   90....       MOV     DPTR,#AcceptInterest
   \   00009E   740C         MOV     A,#0xc
   \   0000A0   12....       LCALL   ?PUSH_XSTACK8_X
   \   0000A3   12....       LCALL   ??ContentStoreFinder?relay
   \   0000A6   740C         MOV     A,#0xc
   \   0000A8   12....       LCALL   ?DEALLOC_XSTACK8
   \   0000AB   8A..         MOV     ?V0 + 0,R2
   \   0000AD   8B..         MOV     ?V0 + 1,R3
   \   0000AF   A8..         MOV     R0,?V0 + 0
   \   0000B1   A9..         MOV     R1,?V0 + 1
   \   0000B3   90....       MOV     DPTR,#CScounter
   \   0000B6   E0           MOVX    A,@DPTR
   \   0000B7   68           XRL     A,R0
   \   0000B8   7003         JNZ     ??SampleApp_Interest_Process_5
   \   0000BA   A3           INC     DPTR
   \   0000BB   E0           MOVX    A,@DPTR
   \   0000BC   69           XRL     A,R1
   \                     ??SampleApp_Interest_Process_5:
   \   0000BD   90....       MOV     DPTR,#AcceptInterest
   \   0000C0   6003         JZ      $+5
   \   0000C2   02....       LJMP    ??SampleApp_Interest_Process_6 & 0xFFFF
    387                    {
    388                       //若在CS表中查找失败，就进而在PIT表中进行查找
    389                       if( PendingTableFindInterest(AcceptInterest) == PITCounter ) //PIT表查找失败
   \   0000C5                ; Setup parameters for call to function PendingTableFindInterest
   \   0000C5   740C         MOV     A,#0xc
   \   0000C7   12....       LCALL   ?PUSH_XSTACK8_X
   \   0000CA   12....       LCALL   ??PendingTableFindInterest?relay
   \   0000CD   740C         MOV     A,#0xc
   \   0000CF   12....       LCALL   ?DEALLOC_XSTACK8
   \   0000D2   8A..         MOV     ?V0 + 0,R2
   \   0000D4   8B..         MOV     ?V0 + 1,R3
   \   0000D6   A8..         MOV     R0,?V0 + 0
   \   0000D8   A9..         MOV     R1,?V0 + 1
   \   0000DA   90....       MOV     DPTR,#PITCounter
   \   0000DD   E0           MOVX    A,@DPTR
   \   0000DE   68           XRL     A,R0
   \   0000DF   7003         JNZ     ??SampleApp_Interest_Process_7
   \   0000E1   A3           INC     DPTR
   \   0000E2   E0           MOVX    A,@DPTR
   \   0000E3   69           XRL     A,R1
   \                     ??SampleApp_Interest_Process_7:
   \   0000E4   7063         JNZ     ??SampleApp_Interest_Process_8
    390                       {
    391                           //若不存在,把兴趣包存入PIT表中，然后交给FIB处理
    392                           InsertNamePIT( AcceptInterest );
   \   0000E6                ; Setup parameters for call to function InsertNamePIT
   \   0000E6   90....       MOV     DPTR,#AcceptInterest
   \   0000E9   740C         MOV     A,#0xc
   \   0000EB   12....       LCALL   ?PUSH_XSTACK8_X
   \   0000EE   12....       LCALL   ??InsertNamePIT?relay
   \   0000F1   740C         MOV     A,#0xc
   \   0000F3   12....       LCALL   ?DEALLOC_XSTACK8
    393                           //插入PIT后，在FIB中进行转发
    394                           if( ForwardingTableFinder(AcceptInterest) == FIBCounter )//FIB表查找失败
   \   0000F6                ; Setup parameters for call to function ForwardingTableFinder
   \   0000F6   90....       MOV     DPTR,#AcceptInterest
   \   0000F9   740C         MOV     A,#0xc
   \   0000FB   12....       LCALL   ?PUSH_XSTACK8_X
   \   0000FE   12....       LCALL   ??ForwardingTableFinder?relay
   \   000101   740C         MOV     A,#0xc
   \   000103   12....       LCALL   ?DEALLOC_XSTACK8
   \   000106   8A..         MOV     ?V0 + 0,R2
   \   000108   8B..         MOV     ?V0 + 1,R3
   \   00010A   A8..         MOV     R0,?V0 + 0
   \   00010C   A9..         MOV     R1,?V0 + 1
   \   00010E   90....       MOV     DPTR,#FIBCounter
   \   000111   E0           MOVX    A,@DPTR
   \   000112   68           XRL     A,R0
   \   000113   7003         JNZ     ??SampleApp_Interest_Process_9
   \   000115   A3           INC     DPTR
   \   000116   E0           MOVX    A,@DPTR
   \   000117   69           XRL     A,R1
   \                     ??SampleApp_Interest_Process_9:
   \   000118   90....       MOV     DPTR,#AcceptInterest
   \   00011B   7018         JNZ     ??SampleApp_Interest_Process_10
    395                           {
    396                                 //插入FIB表
    397                                 InsertInterestFIB(AcceptInterest); 
   \   00011D                ; Setup parameters for call to function InsertInterestFIB
   \   00011D   740C         MOV     A,#0xc
   \   00011F   12....       LCALL   ?PUSH_XSTACK8_X
   \   000122   12....       LCALL   ??InsertInterestFIB?relay
   \   000125   740C         MOV     A,#0xc
   \   000127   12....       LCALL   ?DEALLOC_XSTACK8
    398                                 //继续向下发兴趣包
    399                                 SampleApp_ContinueSend();
   \   00012A                ; Setup parameters for call to function SampleApp_ContinueSend
   \   00012A   12....       LCALL   ??SampleApp_ContinueSend?relay
    400                                 InsertNewName = 1;
   \   00012D   90....       MOV     DPTR,#InsertNewName
   \   000130   12....       LCALL   ??Subroutine137_0 & 0xFFFF
    401                           }
   \                     ??CrossCallReturnLabel_300:
   \   000133   804F         SJMP    ??SampleApp_Interest_Process_0
    402                           else
    403                           {
    404                                 //如果能在FIB表中找到，则从FIB表中进行转发
    405                                 uint8 result = ForwardingTableFinder(AcceptInterest);
    406                                 ForwardingInterestFromFIB(result);
   \                     ??SampleApp_Interest_Process_10:
   \   000135                ; Setup parameters for call to function ForwardingInterestFromFIB
   \   000135                ; Setup parameters for call to function ForwardingTableFinder
   \   000135   740C         MOV     A,#0xc
   \   000137   12....       LCALL   ?PUSH_XSTACK8_X
   \   00013A   12....       LCALL   ??ForwardingTableFinder?relay
   \   00013D   740C         MOV     A,#0xc
   \   00013F   12....       LCALL   ?DEALLOC_XSTACK8
   \   000142   7B00         MOV     R3,#0x0
   \   000144   12....       LCALL   ??ForwardingInterestFromFIB?relay
   \   000147   803B         SJMP    ??SampleApp_Interest_Process_0
    407                           }     
    408                        }
    409                       //PIT表查找成功
    410                       else
    411                       {
    412                          //如果CS表中没有数据，继续广播
    413                          if(CScounter == 0)
   \                     ??SampleApp_Interest_Process_8:
   \   000149   90....       MOV     DPTR,#CScounter
   \   00014C   12....       LCALL   ??Subroutine135_0 & 0xFFFF
   \                     ??CrossCallReturnLabel_266:
   \   00014F   7003         JNZ     ??SampleApp_Interest_Process_11
    414                          {
    415                             SampleApp_ContinueSend();
   \   000151                ; Setup parameters for call to function SampleApp_ContinueSend
   \   000151   12....       LCALL   ??SampleApp_ContinueSend?relay
    416                          } 
    417                          //在PIT表中查找到发送过来的兴趣包，则interest请求包中所对应的节点号，
    418                          //存入PIT表中所对应的interest项的IncomingQueue队列中
    419                          uint8 result = PendingTableFindInterest(AcceptInterest);
    420                          InsertIncomingPIT(result);
   \                     ??SampleApp_Interest_Process_11:
   \   000154                ; Setup parameters for call to function InsertIncomingPIT
   \   000154                ; Setup parameters for call to function PendingTableFindInterest
   \   000154   90....       MOV     DPTR,#AcceptInterest
   \   000157   740C         MOV     A,#0xc
   \   000159   12....       LCALL   ?PUSH_XSTACK8_X
   \   00015C   12....       LCALL   ??PendingTableFindInterest?relay
   \   00015F   740C         MOV     A,#0xc
   \   000161   12....       LCALL   ?DEALLOC_XSTACK8
   \   000164   EA           MOV     A,R2
   \   000165   F9           MOV     R1,A
   \   000166   12....       LCALL   ??InsertIncomingPIT?relay
   \   000169   8019         SJMP    ??SampleApp_Interest_Process_0
    421                       }
    422                    }
    423                    //CS表查找成功，从CS表中回传数据
    424                    else
    425                    {
    426                        uint8 result = ContentStoreFinder(AcceptInterest);
   \                     ??SampleApp_Interest_Process_6:
   \   00016B                ; Setup parameters for call to function ContentStoreFinder
   \   00016B   740C         MOV     A,#0xc
   \   00016D   12....       LCALL   ?PUSH_XSTACK8_X
   \   000170   12....       LCALL   ??ContentStoreFinder?relay
   \   000173   740C         MOV     A,#0xc
   \   000175   12....       LCALL   ?DEALLOC_XSTACK8
   \   000178   8A..         MOV     ?V0 + 0,R2
    427                        SampleApp_SendDataFromCS( result, AcceptInterest.LastID );
   \   00017A                ; Setup parameters for call to function SampleApp_SendDataFromCS
   \   00017A   90....       MOV     DPTR,#AcceptInterest + 8
   \   00017D   E0           MOVX    A,@DPTR
   \   00017E   FA           MOV     R2,A
   \   00017F   A9..         MOV     R1,?V0 + 0
   \   000181   12....       LCALL   ??SampleApp_SendDataFromCS?relay
    428                    }
    429                 }
    430                 
    431                 
    432              }
    433          }
   \                     ??SampleApp_Interest_Process_0:
   \   000184   02....       LJMP    ??Subroutine116_0 & 0xFFFF

   \                                 In  segment BANKED_CODE, align 1, keep-with-next
   \                     ?Subroutine26:
   \   000000   12....       LCALL   ?Subroutine73 & 0xFFFF
   \                     ??CrossCallReturnLabel_116:
   \   000003   22           RET

   \                                 In  segment BANKED_CODE, align 1, keep-with-next
   \                     ?Subroutine73:
   \   000000   F0           MOVX    @DPTR,A
   \   000001   A3           INC     DPTR
   \   000002   E4           CLR     A
   \   000003   12....       LCALL   ?Subroutine100 & 0xFFFF
   \                     ??CrossCallReturnLabel_151:
   \   000006   22           RET

   \                                 In  segment BANKED_CODE, align 1, keep-with-next
   \                     ?Subroutine21:
   \   000000   12....       LCALL   ?Subroutine73 & 0xFFFF
   \                     ??CrossCallReturnLabel_117:
   \   000003   A3           INC     DPTR
   \   000004   A3           INC     DPTR
   \   000005   22           RET

   \                                 In  segment BANKED_CODE, align 1, keep-with-next
   \                     ?Subroutine108:
   \   000000   F0           MOVX    @DPTR,A
   \   000001   8882         MOV     DPL,R0
   \   000003   8983         MOV     DPH,R1
   \   000005   22           RET

   \                                 In  segment BANKED_CODE, align 1, keep-with-next
   \                     ?Subroutine100:
   \   000000   12....       LCALL   ?Subroutine108 & 0xFFFF
   \                     ??CrossCallReturnLabel_158:
   \   000003   A3           INC     DPTR
   \   000004   A3           INC     DPTR
   \   000005   A3           INC     DPTR
   \   000006   A3           INC     DPTR
   \   000007   22           RET

   \                                 In  segment BANKED_CODE, align 1, keep-with-next
   \                     ??Subroutine117_0:
   \   000000   12....       LCALL   ??Subroutine130_0 & 0xFFFF
   \                     ??CrossCallReturnLabel_246:
   \   000003   22           RET

   \                                 In  segment BANKED_CODE, align 1, keep-with-next
   \                     ??Subroutine130_0:
   \   000000   12....       LCALL   ??Subroutine143_0 & 0xFFFF
   \                     ??CrossCallReturnLabel_329:
   \   000003   22           RET

   \                                 In  segment BANKED_CODE, align 1, keep-with-next
   \                     ??Subroutine133_0:
   \   000000   E0           MOVX    A,@DPTR
   \   000001   F8           MOV     R0,A
   \   000002   A3           INC     DPTR
   \   000003   E0           MOVX    A,@DPTR
   \   000004   F9           MOV     R1,A
   \   000005   E8           MOV     A,R0
   \   000006   22           RET

   \                                 In  segment BANKED_CODE, align 1, keep-with-next
   \                     ?Subroutine82:
   \   000000   12....       LCALL   ??Subroutine133_0 & 0xFFFF
   \                     ??CrossCallReturnLabel_278:
   \   000003   22           RET

   \                                 In  segment BANKED_CODE, align 1, keep-with-next
   \                     ??Subroutine135_0:
   \   000000   12....       LCALL   ?Subroutine82 & 0xFFFF
   \                     ??CrossCallReturnLabel_275:
   \   000003   49           ORL     A,R1
   \   000004   22           RET

   \                                 In  segment BANKED_CODE, align 1, keep-with-next
   \                     ??Subroutine143_0:
   \   000000   E0           MOVX    A,@DPTR
   \   000001   FA           MOV     R2,A
   \   000002   A3           INC     DPTR
   \   000003   E0           MOVX    A,@DPTR
   \   000004   FB           MOV     R3,A
   \   000005   22           RET

   \                                 In  segment BANKED_CODE, align 1, keep-with-next
   \                     ??Subroutine147_0:
   \   000000   12....       LCALL   ?Subroutine86 & 0xFFFF
   \                     ??CrossCallReturnLabel_347:
   \   000003   22           RET
    434          //ack包处理

   \                                 In  segment BANKED_CODE, align 1, keep-with-next
    435          void SampleApp_Ack_Process( afIncomingMSGPacket_t *pkt )
   \                     SampleApp_Ack_Process:
    436          {
   \   000000   74F6         MOV     A,#-0xa
   \   000002   12....       LCALL   ?BANKED_ENTER_XDATA
   \   000005                ; Saved register size: 10
   \   000005                ; Auto size: 0
    437             if(InsertNewName==1)	
   \   000005   90....       MOV     DPTR,#InsertNewName
   \   000008   E0           MOVX    A,@DPTR
   \   000009   6401         XRL     A,#0x1
   \   00000B   7002         JNZ     ??SampleApp_Ack_Process_0
   \   00000D   A3           INC     DPTR
   \   00000E   E0           MOVX    A,@DPTR
   \                     ??SampleApp_Ack_Process_0:
   \   00000F   7031         JNZ     ??SampleApp_Ack_Process_1
    438             {
    439                uint8 result;
    440                uint8 FIB_ID = pkt->cmd.Data[3];
   \   000011   12....       LCALL   ?Subroutine60 & 0xFFFF
   \                     ??CrossCallReturnLabel_169:
   \   000014   E0           MOVX    A,@DPTR
   \   000015   F8           MOV     R0,A
   \   000016   A3           INC     DPTR
   \   000017   E0           MOVX    A,@DPTR
   \   000018   F583         MOV     DPH,A
   \   00001A   8882         MOV     DPL,R0
   \   00001C   A3           INC     DPTR
   \   00001D   A3           INC     DPTR
   \   00001E   A3           INC     DPTR
   \   00001F   E0           MOVX    A,@DPTR
   \   000020   F5..         MOV     ?V0 + 0,A
    441                result=ForwardingTableFinder(AcceptInterest);	
    442                InsertQueueFIB(result,FIB_ID);	
   \   000022                ; Setup parameters for call to function InsertQueueFIB
   \   000022                ; Setup parameters for call to function ForwardingTableFinder
   \   000022   90....       MOV     DPTR,#AcceptInterest
   \   000025   740C         MOV     A,#0xc
   \   000027   12....       LCALL   ?PUSH_XSTACK8_X
   \   00002A   12....       LCALL   ??ForwardingTableFinder?relay
   \   00002D   740C         MOV     A,#0xc
   \   00002F   12....       LCALL   ?DEALLOC_XSTACK8
   \   000032   EA           MOV     A,R2
   \   000033   F9           MOV     R1,A
   \   000034   AA..         MOV     R2,?V0 + 0
   \   000036   7B00         MOV     R3,#0x0
   \   000038   12....       LCALL   ??InsertQueueFIB?relay
    443                InsertNewName=0;
   \   00003B   90....       MOV     DPTR,#InsertNewName
   \   00003E   E4           CLR     A
   \   00003F   F0           MOVX    @DPTR,A
   \   000040   A3           INC     DPTR
   \   000041   F0           MOVX    @DPTR,A
    444             } 
    445             else
    446             {	
    447             //InsertNewName没有标注的话不做任何处理
    448             }
    449          }
   \                     ??SampleApp_Ack_Process_1:
   \   000042   02....       LJMP    ??Subroutine116_0 & 0xFFFF
    450          

   \                                 In  segment BANKED_CODE, align 1, keep-with-next
    451          void SampleApp_Data_Process( afIncomingMSGPacket_t *pkt )
   \                     SampleApp_Data_Process:
    452          {
   \   000000   74F6         MOV     A,#-0xa
   \   000002   12....       LCALL   ?BANKED_ENTER_XDATA
   \   000005                ; Saved register size: 10
   \   000005                ; Auto size: 0
    453              AcceptData.PackageFlag = 2;
   \   000005   90....       MOV     DPTR,#AcceptData
   \   000008   7402         MOV     A,#0x2
   \   00000A   12....       LCALL   ??Subroutine138_0 & 0xFFFF
    454              AcceptData.interestName.DestinationID= pkt->cmd.Data[3];
   \                     ??CrossCallReturnLabel_291:
   \   00000D   EA           MOV     A,R2
   \   00000E   2421         ADD     A,#0x21
   \   000010   F8           MOV     R0,A
   \   000011   EB           MOV     A,R3
   \   000012   3400         ADDC    A,#0x0
   \   000014   12....       LCALL   ?Subroutine50 & 0xFFFF
   \                     ??CrossCallReturnLabel_182:
   \   000017   8A82         MOV     DPL,R2
   \   000019   8B83         MOV     DPH,R3
   \   00001B   A3           INC     DPTR
   \   00001C   A3           INC     DPTR
   \   00001D   A3           INC     DPTR
   \   00001E   E0           MOVX    A,@DPTR
   \   00001F   90....       MOV     DPTR,#AcceptData + 2
   \   000022   12....       LCALL   ??Subroutine138_0 & 0xFFFF
    455              AcceptData.interestName.DataFlag= pkt->cmd.Data[4];
   \                     ??CrossCallReturnLabel_292:
   \   000025   8A82         MOV     DPL,R2
   \   000027   8B83         MOV     DPH,R3
   \   000029   A3           INC     DPTR
   \   00002A   A3           INC     DPTR
   \   00002B   A3           INC     DPTR
   \   00002C   A3           INC     DPTR
   \   00002D   E0           MOVX    A,@DPTR
   \   00002E   90....       MOV     DPTR,#AcceptData + 4
   \   000031   12....       LCALL   ?Subroutine22 & 0xFFFF
    456              AcceptData.interestName.PackageCounter= pkt->cmd.Data[5];
   \                     ??CrossCallReturnLabel_32:
   \   000034   E0           MOVX    A,@DPTR
   \   000035   90....       MOV     DPTR,#AcceptData + 6
   \   000038   12....       LCALL   ?Subroutine22 & 0xFFFF
    457              AcceptData.PackageAll= pkt->cmd.Data[6];
   \                     ??CrossCallReturnLabel_33:
   \   00003B   A3           INC     DPTR
   \   00003C   E0           MOVX    A,@DPTR
   \   00003D   90....       MOV     DPTR,#AcceptData + 8
   \   000040   12....       LCALL   ?Subroutine108 & 0xFFFF
    458              AcceptData.PackageSeg= pkt->cmd.Data[7];
   \                     ??CrossCallReturnLabel_155:
   \   000043   E0           MOVX    A,@DPTR
   \   000044   FA           MOV     R2,A
   \   000045   A3           INC     DPTR
   \   000046   E0           MOVX    A,@DPTR
   \   000047   F583         MOV     DPH,A
   \   000049   8A82         MOV     DPL,R2
   \   00004B   A3           INC     DPTR
   \   00004C   A3           INC     DPTR
   \   00004D   A3           INC     DPTR
   \   00004E   A3           INC     DPTR
   \   00004F   A3           INC     DPTR
   \   000050   A3           INC     DPTR
   \   000051   A3           INC     DPTR
   \   000052   E0           MOVX    A,@DPTR
   \   000053   90....       MOV     DPTR,#AcceptData + 9
   \   000056   12....       LCALL   ?Subroutine108 & 0xFFFF
    459              AcceptData.Data= BUILD_UINT16(pkt->cmd.Data[9],pkt->cmd.Data[8]);//电压值
   \                     ??CrossCallReturnLabel_156:
   \   000059   12....       LCALL   ?Subroutine43 & 0xFFFF
   \                     ??CrossCallReturnLabel_74:
   \   00005C   E0           MOVX    A,@DPTR
   \   00005D   FA           MOV     R2,A
   \   00005E   8882         MOV     DPL,R0
   \   000060   8983         MOV     DPH,R1
   \   000062   A3           INC     DPTR
   \   000063   A3           INC     DPTR
   \   000064   A3           INC     DPTR
   \   000065   A3           INC     DPTR
   \   000066   A3           INC     DPTR
   \   000067   A3           INC     DPTR
   \   000068   A3           INC     DPTR
   \   000069   A3           INC     DPTR
   \   00006A   E0           MOVX    A,@DPTR
   \   00006B   F9           MOV     R1,A
   \   00006C   EA           MOV     A,R2
   \   00006D   90....       MOV     DPTR,#AcceptData + 10
   \   000070   F0           MOVX    @DPTR,A
   \   000071   A3           INC     DPTR
   \   000072   E9           MOV     A,R1
   \   000073   F0           MOVX    @DPTR,A
    460              
    461              // 查询PIT表，查询表中是否有相应兴趣名存在
    462              if( PendingTableFindData(AcceptData) == PITCounter) //当表中不存在相应兴趣名时直接丢包
   \   000074                ; Setup parameters for call to function PendingTableFindData
   \   000074   90....       MOV     DPTR,#AcceptData
   \   000077   740C         MOV     A,#0xc
   \   000079   12....       LCALL   ?PUSH_XSTACK8_X
   \   00007C   12....       LCALL   ??PendingTableFindData?relay
   \   00007F   740C         MOV     A,#0xc
   \   000081   12....       LCALL   ?DEALLOC_XSTACK8
   \   000084   8A..         MOV     ?V0 + 0,R2
   \   000086   8B..         MOV     ?V0 + 1,R3
   \   000088   A8..         MOV     R0,?V0 + 0
   \   00008A   A9..         MOV     R1,?V0 + 1
   \   00008C   90....       MOV     DPTR,#PITCounter
   \   00008F   E0           MOVX    A,@DPTR
   \   000090   68           XRL     A,R0
   \   000091   7003         JNZ     ??SampleApp_Data_Process_0
   \   000093   A3           INC     DPTR
   \   000094   E0           MOVX    A,@DPTR
   \   000095   69           XRL     A,R1
   \                     ??SampleApp_Data_Process_0:
   \   000096   7003         JNZ     $+5
   \   000098   02....       LJMP    ??SampleApp_Data_Process_1 & 0xFFFF
    463              { }
    464              else
    465              {
    466                 uint8 result = PendingTableFindData(AcceptData);
   \   00009B                ; Setup parameters for call to function PendingTableFindData
   \   00009B   90....       MOV     DPTR,#AcceptData
   \   00009E   740C         MOV     A,#0xc
   \   0000A0   12....       LCALL   ?PUSH_XSTACK8_X
   \   0000A3   12....       LCALL   ??PendingTableFindData?relay
   \   0000A6   740C         MOV     A,#0xc
   \   0000A8   12....       LCALL   ?DEALLOC_XSTACK8
   \   0000AB   EA           MOV     A,R2
   \   0000AC   F5..         MOV     ?V0 + 0,A
    467                 //从PIT表中进行转发
    468                 SendDataFromPIT(result,AcceptData);
   \   0000AE                ; Setup parameters for call to function SendDataFromPIT
   \   0000AE   90....       MOV     DPTR,#AcceptData
   \   0000B1   740C         MOV     A,#0xc
   \   0000B3   12....       LCALL   ?PUSH_XSTACK8_X
   \   0000B6   A9..         MOV     R1,?V0 + 0
   \   0000B8   12....       LCALL   ??SendDataFromPIT?relay
   \   0000BB   740C         MOV     A,#0xc
   \   0000BD   12....       LCALL   ?DEALLOC_XSTACK8
    469                 //删除PIT中所对应的表项
    470                 DeleteItemPITS(result);
   \   0000C0                ; Setup parameters for call to function DeleteItemPITS
   \   0000C0   AA..         MOV     R2,?V0 + 0
   \   0000C2   7B00         MOV     R3,#0x0
   \   0000C4   12....       LCALL   ??DeleteItemPITS?relay
    471                 //插入数据到CS表中
    472                 if(CScounter == 0)
   \   0000C7   90....       MOV     DPTR,#CScounter
   \   0000CA   12....       LCALL   ??Subroutine135_0 & 0xFFFF
   \                     ??CrossCallReturnLabel_267:
   \   0000CD   7012         JNZ     ??SampleApp_Data_Process_2
    473                 {
    474                     InsertContentStore(AcceptData);
   \   0000CF                ; Setup parameters for call to function InsertContentStore
   \   0000CF   90....       MOV     DPTR,#AcceptData
   \   0000D2   740C         MOV     A,#0xc
   \   0000D4   12....       LCALL   ?PUSH_XSTACK8_X
   \   0000D7   12....       LCALL   ??InsertContentStore?relay
   \   0000DA   740C         MOV     A,#0xc
   \   0000DC   12....       LCALL   ?DEALLOC_XSTACK8
   \   0000DF   8074         SJMP    ??SampleApp_Data_Process_1
    475                 }
    476                 else
    477                 {
    478                     for(int i=0;i<CScounter;i++)
   \                     ??SampleApp_Data_Process_2:
   \   0000E1   7E00         MOV     R6,#0x0
   \   0000E3   7F00         MOV     R7,#0x0
   \   0000E5   805F         SJMP    ??SampleApp_Data_Process_3
    479                     {
    480                         if( ContentStore[i].interestName.DestinationID ==AcceptData.interestName.DestinationID &&
    481                             ContentStore[i].interestName.DataFlag ==AcceptData.interestName.DataFlag &&
    482                             ContentStore[i].interestName.PackageCounter == AcceptData.interestName.PackageCounter)
   \                     ??SampleApp_Data_Process_4:
   \   0000E7   EE           MOV     A,R6
   \   0000E8   F8           MOV     R0,A
   \   0000E9   EF           MOV     A,R7
   \   0000EA   F9           MOV     R1,A
   \   0000EB   E8           MOV     A,R0
   \   0000EC   12....       LCALL   ?Subroutine63 & 0xFFFF
   \                     ??CrossCallReturnLabel_99:
   \   0000EF   39           ADDC    A,R1
   \   0000F0   12....       LCALL   ?Subroutine50 & 0xFFFF
   \                     ??CrossCallReturnLabel_183:
   \   0000F3   90....       MOV     DPTR,#AcceptData + 2
   \   0000F6   E0           MOVX    A,@DPTR
   \   0000F7   6A           XRL     A,R2
   \   0000F8   7003         JNZ     ??SampleApp_Data_Process_5
   \   0000FA   A3           INC     DPTR
   \   0000FB   E0           MOVX    A,@DPTR
   \   0000FC   6B           XRL     A,R3
   \                     ??SampleApp_Data_Process_5:
   \   0000FD   702C         JNZ     ??SampleApp_Data_Process_6
   \   0000FF   8882         MOV     DPL,R0
   \   000101   8983         MOV     DPH,R1
   \   000103   A3           INC     DPTR
   \   000104   A3           INC     DPTR
   \   000105   12....       LCALL   ??Subroutine117_0 & 0xFFFF
   \                     ??CrossCallReturnLabel_175:
   \   000108   90....       MOV     DPTR,#AcceptData + 4
   \   00010B   E0           MOVX    A,@DPTR
   \   00010C   6A           XRL     A,R2
   \   00010D   7003         JNZ     ??SampleApp_Data_Process_7
   \   00010F   A3           INC     DPTR
   \   000110   E0           MOVX    A,@DPTR
   \   000111   6B           XRL     A,R3
   \                     ??SampleApp_Data_Process_7:
   \   000112   7017         JNZ     ??SampleApp_Data_Process_6
   \   000114   8882         MOV     DPL,R0
   \   000116   8983         MOV     DPH,R1
   \   000118   A3           INC     DPTR
   \   000119   A3           INC     DPTR
   \   00011A   A3           INC     DPTR
   \   00011B   A3           INC     DPTR
   \   00011C   12....       LCALL   ??Subroutine147_0 & 0xFFFF
   \                     ??CrossCallReturnLabel_334:
   \   00011F   90....       MOV     DPTR,#AcceptData + 6
   \   000122   E0           MOVX    A,@DPTR
   \   000123   68           XRL     A,R0
   \   000124   7003         JNZ     ??SampleApp_Data_Process_8
   \   000126   A3           INC     DPTR
   \   000127   E0           MOVX    A,@DPTR
   \   000128   69           XRL     A,R1
   \                     ??SampleApp_Data_Process_8:
   \   000129   6013         JZ      ??SampleApp_Data_Process_9
    483                          { }
    484                          else
    485                          {
    486                              DeleteItemCS();
   \                     ??SampleApp_Data_Process_6:
   \   00012B                ; Setup parameters for call to function DeleteItemCS
   \   00012B   12....       LCALL   ??DeleteItemCS?relay
    487                              InsertContentStore(AcceptData);
   \   00012E                ; Setup parameters for call to function InsertContentStore
   \   00012E   90....       MOV     DPTR,#AcceptData
   \   000131   740C         MOV     A,#0xc
   \   000133   12....       LCALL   ?PUSH_XSTACK8_X
   \   000136   12....       LCALL   ??InsertContentStore?relay
   \   000139   740C         MOV     A,#0xc
   \   00013B   12....       LCALL   ?DEALLOC_XSTACK8
    488                          }
    489                        }
   \                     ??SampleApp_Data_Process_9:
   \   00013E   EE           MOV     A,R6
   \   00013F   2401         ADD     A,#0x1
   \   000141   0E           INC     R6
   \   000142   EF           MOV     A,R7
   \   000143   3400         ADDC    A,#0x0
   \   000145   FF           MOV     R7,A
   \                     ??SampleApp_Data_Process_3:
   \   000146   90....       MOV     DPTR,#CScounter
   \   000149   12....       LCALL   ??Subroutine147_0 & 0xFFFF
    490                    } 
    491                 }   
   \                     ??CrossCallReturnLabel_335:
   \   00014C   C3           CLR     C
   \   00014D   EE           MOV     A,R6
   \   00014E   98           SUBB    A,R0
   \   00014F   EF           MOV     A,R7
   \   000150   12....       LCALL   ?Subroutine95 & 0xFFFF
   \                     ??CrossCallReturnLabel_142:
   \   000153   4092         JC      ??SampleApp_Data_Process_4
    492          }
   \                     ??SampleApp_Data_Process_1:
   \   000155   02....       LJMP    ??Subroutine116_0 & 0xFFFF

   \                                 In  segment BANKED_CODE, align 1, keep-with-next
   \                     ?Subroutine22:
   \   000000   F0           MOVX    @DPTR,A
   \   000001   A3           INC     DPTR
   \   000002   E4           CLR     A
   \   000003   F0           MOVX    @DPTR,A
   \   000004   8A82         MOV     DPL,R2
   \   000006   8B83         MOV     DPH,R3
   \   000008   A3           INC     DPTR
   \   000009   A3           INC     DPTR
   \   00000A   A3           INC     DPTR
   \   00000B   A3           INC     DPTR
   \   00000C   A3           INC     DPTR
   \   00000D   22           RET

   \                                 In  segment BANKED_CODE, align 1, keep-with-next
   \                     ?Subroutine63:
   \   000000   12....       LCALL   ?Subroutine96 & 0xFFFF
   \                     ??CrossCallReturnLabel_146:
   \   000003   22           RET

   \                                 In  segment BANKED_CODE, align 1, keep-with-next
   \                     ?Subroutine96:
   \   000000   75F00E       MOV     B,#0xe
   \   000003   A4           MUL     AB
   \   000004   F8           MOV     R0,A
   \   000005   AAF0         MOV     R2,B
   \   000007   75F00E       MOV     B,#0xe
   \   00000A   E9           MOV     A,R1
   \   00000B   A4           MUL     AB
   \   00000C   2A           ADD     A,R2
   \   00000D   F9           MOV     R1,A
   \   00000E   74..         MOV     A,#ContentStore & 0xff
   \   000010   28           ADD     A,R0
   \   000011   F8           MOV     R0,A
   \   000012   74..         MOV     A,#(ContentStore >> 8) & 0xff
   \   000014   22           RET

   \                                 In  segment BANKED_CODE, align 1, keep-with-next
   \                     ?Subroutine50:
   \   000000   F9           MOV     R1,A
   \   000001   8882         MOV     DPL,R0
   \   000003   8983         MOV     DPH,R1
   \   000005                REQUIRE ??Subroutine117_0
   \   000005                ; // Fall through to label ??Subroutine117_0

   \                                 In  segment BANKED_CODE, align 1, keep-with-next
   \                     ?Subroutine95:
   \   000000   99           SUBB    A,R1
   \   000001   A2D2         MOV     C,0xD0 /* PSW */.2
   \   000003   65D0         XRL     A,PSW
   \   000005   33           RLC     A
   \   000006   22           RET
    493          
    494          
    495          
    496          //继续下发兴趣包

   \                                 In  segment BANKED_CODE, align 1, keep-with-next
    497          void SampleApp_ContinueSend(void)
   \                     SampleApp_ContinueSend:
    498          {
   \   000000   74F6         MOV     A,#-0xa
   \   000002   12....       LCALL   ?BANKED_ENTER_XDATA
   \   000005                ; Saved register size: 10
   \   000005                ; Auto size: 12
   \   000005   74F4         MOV     A,#-0xc
   \   000007   12....       LCALL   ?ALLOC_XSTACK8
    499            uint8 interestData[12];
    500            interestData[0] = 0x7E;
   \   00000A   85..82       MOV     DPL,?XSP + 0
   \   00000D   85..83       MOV     DPH,?XSP + 1
   \   000010   747E         MOV     A,#0x7e
   \   000012   F0           MOVX    @DPTR,A
    501            interestData[1] = 0x45;
   \   000013   7401         MOV     A,#0x1
   \   000015   12....       LCALL   ?XSTACK_DISP0_8
   \   000018   7445         MOV     A,#0x45
   \   00001A   F0           MOVX    @DPTR,A
    502            interestData[2] = AcceptInterest.PackageFlag;
   \   00001B   90....       MOV     DPTR,#AcceptInterest
   \   00001E   E0           MOVX    A,@DPTR
   \   00001F   C0E0         PUSH    A
   \   000021   7402         MOV     A,#0x2
   \   000023   12....       LCALL   ?XSTACK_DISP0_8
   \   000026   D0E0         POP     A
   \   000028   F0           MOVX    @DPTR,A
    503            interestData[3] = AcceptInterest.interestName.DestinationID;
   \   000029   90....       MOV     DPTR,#AcceptInterest + 2
   \   00002C   E0           MOVX    A,@DPTR
   \   00002D   C0E0         PUSH    A
   \   00002F   7403         MOV     A,#0x3
   \   000031   12....       LCALL   ?XSTACK_DISP0_8
   \   000034   D0E0         POP     A
   \   000036   F0           MOVX    @DPTR,A
    504            interestData[4] = AcceptInterest.interestName.DataFlag;
   \   000037   90....       MOV     DPTR,#AcceptInterest + 4
   \   00003A   E0           MOVX    A,@DPTR
   \   00003B   C0E0         PUSH    A
   \   00003D   7404         MOV     A,#0x4
   \   00003F   12....       LCALL   ?XSTACK_DISP0_8
   \   000042   D0E0         POP     A
   \   000044   F0           MOVX    @DPTR,A
    505            interestData[5] = AcceptInterest.interestName.PackageCounter;
   \   000045   90....       MOV     DPTR,#AcceptInterest + 6
   \   000048   E0           MOVX    A,@DPTR
   \   000049   C0E0         PUSH    A
   \   00004B   7405         MOV     A,#0x5
   \   00004D   12....       LCALL   ?XSTACK_DISP0_8
   \   000050   D0E0         POP     A
   \   000052   12....       LCALL   ?Subroutine33 & 0xFFFF
    506            interestData[6] = NodeId;//lastID;
   \                     ??CrossCallReturnLabel_55:
   \   000055   C0E0         PUSH    A
   \   000057   7406         MOV     A,#0x6
   \   000059   12....       LCALL   ?XSTACK_DISP0_8
   \   00005C   D0E0         POP     A
   \   00005E   F0           MOVX    @DPTR,A
    507            interestData[7] = AcceptInterest.Noce;
   \   00005F   90....       MOV     DPTR,#AcceptInterest + 10
   \   000062   E0           MOVX    A,@DPTR
   \   000063   C0E0         PUSH    A
   \   000065   7407         MOV     A,#0x7
   \   000067   12....       LCALL   ?XSTACK_DISP0_8
   \   00006A   D0E0         POP     A
   \   00006C   F0           MOVX    @DPTR,A
    508            interestData[8] = 0;//保留位
   \   00006D   7408         MOV     A,#0x8
   \   00006F   12....       LCALL   ?XSTACK_DISP0_8
   \   000072   E4           CLR     A
   \   000073   F0           MOVX    @DPTR,A
    509            interestData[9] = 0;
   \   000074   7409         MOV     A,#0x9
   \   000076   12....       LCALL   ?XSTACK_DISP0_8
   \   000079   E4           CLR     A
   \   00007A   F0           MOVX    @DPTR,A
    510            interestData[10] = layer;//层数 
   \   00007B   90....       MOV     DPTR,#layer
   \   00007E   E0           MOVX    A,@DPTR
   \   00007F   C0E0         PUSH    A
   \   000081   740A         MOV     A,#0xa
   \   000083   12....       LCALL   ?XSTACK_DISP0_8
   \   000086   D0E0         POP     A
   \   000088   F0           MOVX    @DPTR,A
    511            interestData[11] = 0x7E;
   \   000089   740B         MOV     A,#0xb
   \   00008B   12....       LCALL   ?XSTACK_DISP0_8
   \   00008E   747E         MOV     A,#0x7e
   \   000090   F0           MOVX    @DPTR,A
    512            
    513            if ( AF_DataRequest( &SampleApp_Periodic_DstAddr, &SampleApp_epDesc,
    514                                 SAMPLEAPP_INTEREST_CLUSTERID,
    515                                 12,
    516                                 interestData,
    517                                 &SampleApp_TransID,
    518                                 AF_DISCV_ROUTE,
    519                                 AF_DEFAULT_RADIUS ) == afStatus_SUCCESS )
   \   000091                ; Setup parameters for call to function AF_DataRequest
   \   000091   02....       LJMP    ?Subroutine4 & 0xFFFF
    520            {
    521            }
    522            else
    523            { }
    524          }
    525          //从FIB表中转发兴趣包

   \                                 In  segment BANKED_CODE, align 1, keep-with-next
    526          void ForwardingInterestFromFIB(int id)
   \                     ForwardingInterestFromFIB:
    527          {
   \   000000   74F2         MOV     A,#-0xe
   \   000002   12....       LCALL   ?BANKED_ENTER_XDATA
   \   000005                ; Saved register size: 14
   \   000005                ; Auto size: 12
   \   000005   74F4         MOV     A,#-0xc
   \   000007   12....       LCALL   ?ALLOC_XSTACK8
   \   00000A   EA           MOV     A,R2
   \   00000B   FE           MOV     R6,A
   \   00000C   EB           MOV     A,R3
   \   00000D   FF           MOV     R7,A
    528             int temp = 0;
   \   00000E   75..00       MOV     ?V0 + 0,#0x0
   \   000011   75..00       MOV     ?V0 + 1,#0x0
    529             uint8 interestData[12];
    530             interestData[0] = 0x7E;
   \   000014   85..82       MOV     DPL,?XSP + 0
   \   000017   85..83       MOV     DPH,?XSP + 1
   \   00001A   747E         MOV     A,#0x7e
   \   00001C   F0           MOVX    @DPTR,A
    531             interestData[1] = 0x45;
   \   00001D   7401         MOV     A,#0x1
   \   00001F   12....       LCALL   ?XSTACK_DISP0_8
   \   000022   7445         MOV     A,#0x45
   \   000024   F0           MOVX    @DPTR,A
    532             interestData[2] = AcceptInterest.PackageFlag;
   \   000025   90....       MOV     DPTR,#AcceptInterest
   \   000028   E0           MOVX    A,@DPTR
   \   000029   C0E0         PUSH    A
   \   00002B   7402         MOV     A,#0x2
   \   00002D   12....       LCALL   ?XSTACK_DISP0_8
   \   000030   D0E0         POP     A
   \   000032   F0           MOVX    @DPTR,A
    533             interestData[3] = AcceptInterest.interestName.DestinationID;
   \   000033   90....       MOV     DPTR,#AcceptInterest + 2
   \   000036   E0           MOVX    A,@DPTR
   \   000037   C0E0         PUSH    A
   \   000039   7403         MOV     A,#0x3
   \   00003B   12....       LCALL   ?XSTACK_DISP0_8
   \   00003E   D0E0         POP     A
   \   000040   F0           MOVX    @DPTR,A
    534             interestData[4] = AcceptInterest.interestName.DataFlag;
   \   000041   90....       MOV     DPTR,#AcceptInterest + 4
   \   000044   E0           MOVX    A,@DPTR
   \   000045   C0E0         PUSH    A
   \   000047   7404         MOV     A,#0x4
   \   000049   12....       LCALL   ?XSTACK_DISP0_8
   \   00004C   D0E0         POP     A
   \   00004E   F0           MOVX    @DPTR,A
    535             interestData[5] = AcceptInterest.interestName.PackageCounter;
   \   00004F   90....       MOV     DPTR,#AcceptInterest + 6
   \   000052   E0           MOVX    A,@DPTR
   \   000053   C0E0         PUSH    A
   \   000055   7405         MOV     A,#0x5
   \   000057   12....       LCALL   ?XSTACK_DISP0_8
   \   00005A   D0E0         POP     A
   \   00005C   F0           MOVX    @DPTR,A
    536             interestData[7] = AcceptInterest.Noce;
   \   00005D   90....       MOV     DPTR,#AcceptInterest + 10
   \   000060   E0           MOVX    A,@DPTR
   \   000061   C0E0         PUSH    A
   \   000063   7407         MOV     A,#0x7
   \   000065   12....       LCALL   ?XSTACK_DISP0_8
   \   000068   D0E0         POP     A
   \   00006A   F0           MOVX    @DPTR,A
    537             interestData[8] = 0;//保留位
   \   00006B   7408         MOV     A,#0x8
   \   00006D   12....       LCALL   ?XSTACK_DISP0_8
   \   000070   E4           CLR     A
   \   000071   F0           MOVX    @DPTR,A
    538             interestData[9] = 0;
   \   000072   7409         MOV     A,#0x9
   \   000074   12....       LCALL   ?XSTACK_DISP0_8
   \   000077   E4           CLR     A
   \   000078   F0           MOVX    @DPTR,A
    539             interestData[10] = layer;//层数 
   \   000079   90....       MOV     DPTR,#layer
   \   00007C   E0           MOVX    A,@DPTR
   \   00007D   C0E0         PUSH    A
   \   00007F   740A         MOV     A,#0xa
   \   000081   12....       LCALL   ?XSTACK_DISP0_8
   \   000084   D0E0         POP     A
   \   000086   F0           MOVX    @DPTR,A
    540             interestData[11] = 0x7E;
   \   000087   740B         MOV     A,#0xb
   \   000089   12....       LCALL   ?XSTACK_DISP0_8
   \   00008C   747E         MOV     A,#0x7e
   \   00008E   F0           MOVX    @DPTR,A
   \   00008F   EE           MOV     A,R6
   \   000090   F8           MOV     R0,A
   \   000091   EF           MOV     A,R7
   \   000092   F9           MOV     R1,A
   \   000093   E8           MOV     A,R0
   \   000094   75F016       MOV     B,#0x16
   \   000097   A4           MUL     AB
   \   000098   F8           MOV     R0,A
   \   000099   AAF0         MOV     R2,B
   \   00009B   75F016       MOV     B,#0x16
   \   00009E   E9           MOV     A,R1
   \   00009F   A4           MUL     AB
   \   0000A0   2A           ADD     A,R2
   \   0000A1   F9           MOV     R1,A
   \   0000A2   74..         MOV     A,#ForwardingTable & 0xff
   \   0000A4   28           ADD     A,R0
   \   0000A5   F5..         MOV     ?V0 + 2,A
   \   0000A7   74..         MOV     A,#(ForwardingTable >> 8) & 0xff
   \   0000A9   39           ADDC    A,R1
   \   0000AA   F5..         MOV     ?V0 + 3,A
   \   0000AC   805E         SJMP    ??CrossCallReturnLabel_93
    541             
    542             //被重复使用
    543             while(temp<ForwardingTable[id].OutcomingNumber)
    544             {	
    545                 interestData[6] = ForwardingTable[id].OutcomingQueue[id];
   \                     ??ForwardingInterestFromFIB_0:
   \   0000AE   EE           MOV     A,R6
   \   0000AF   F8           MOV     R0,A
   \   0000B0   EF           MOV     A,R7
   \   0000B1   F9           MOV     R1,A
   \   0000B2   E8           MOV     A,R0
   \   0000B3   C3           CLR     C
   \   0000B4   33           RLC     A
   \   0000B5   F8           MOV     R0,A
   \   0000B6   E9           MOV     A,R1
   \   0000B7   33           RLC     A
   \   0000B8   F9           MOV     R1,A
   \   0000B9   E5..         MOV     A,?V0 + 2
   \   0000BB   28           ADD     A,R0
   \   0000BC   F582         MOV     DPL,A
   \   0000BE   E5..         MOV     A,?V0 + 3
   \   0000C0   12....       LCALL   ?Subroutine66 & 0xFFFF
   \                     ??CrossCallReturnLabel_105:
   \   0000C3   C0E0         PUSH    A
   \   0000C5   7406         MOV     A,#0x6
   \   0000C7   12....       LCALL   ?XSTACK_DISP0_8
   \   0000CA   D0E0         POP     A
   \   0000CC   F0           MOVX    @DPTR,A
    546                 if ( AF_DataRequest( &SampleApp_Periodic_DstAddr, &SampleApp_epDesc,
    547                                       SAMPLEAPP_INTEREST_CLUSTERID,
    548                                       12,
    549                                       interestData,
    550                                       &SampleApp_TransID,
    551                                       AF_DISCV_ROUTE,
    552                                       AF_DEFAULT_RADIUS ) == afStatus_SUCCESS )
   \   0000CD                ; Setup parameters for call to function AF_DataRequest
   \   0000CD   75..1E       MOV     ?V0 + 4,#0x1e
   \   0000D0   78..         MOV     R0,#?V0 + 4
   \   0000D2   12....       LCALL   ?PUSH_XSTACK_I_ONE
   \   0000D5   75....       MOV     ?V0 + 4,#SampleApp_TransID & 0xff
   \   0000D8   75....       MOV     ?V0 + 5,#(SampleApp_TransID >> 8) & 0xff
   \   0000DB   78..         MOV     R0,#?V0 + 4
   \   0000DD   12....       LCALL   ?PUSH_XSTACK_I_TWO
   \   0000E0   7403         MOV     A,#0x3
   \   0000E2   12....       LCALL   ?XSTACK_DISP0_8
   \   0000E5   8582..       MOV     ?V0 + 4,DPL
   \   0000E8   8583..       MOV     ?V0 + 5,DPH
   \   0000EB   78..         MOV     R0,#?V0 + 4
   \   0000ED   12....       LCALL   ?PUSH_XSTACK_I_TWO
   \   0000F0   75..0C       MOV     ?V0 + 4,#0xc
   \   0000F3   75..00       MOV     ?V0 + 5,#0x0
   \   0000F6   78..         MOV     R0,#?V0 + 4
   \   0000F8   12....       LCALL   ?PUSH_XSTACK_I_TWO
   \   0000FB   75..09       MOV     ?V0 + 4,#0x9
   \   0000FE   78..         MOV     R0,#?V0 + 4
   \   000100   12....       LCALL   ?PUSH_XSTACK_I_TWO
   \   000103   12....       LCALL   ?Subroutine67 & 0xFFFF
   \                     ??CrossCallReturnLabel_170:
   \   000106   12....       LCALL   ?DEALLOC_XSTACK8
    553                   {  
    554                   }
    555                 temp++;
   \   000109   12....       LCALL   ?Subroutine58 & 0xFFFF
    556             } 
   \                     ??CrossCallReturnLabel_93:
   \   00010C   E5..         MOV     A,?V0 + 2
   \   00010E   2410         ADD     A,#0x10
   \   000110   F582         MOV     DPL,A
   \   000112   E5..         MOV     A,?V0 + 3
   \   000114   12....       LCALL   ?Subroutine45 & 0xFFFF
   \                     ??CrossCallReturnLabel_77:
   \   000117   4095         JC      ??ForwardingInterestFromFIB_0
    557          }
   \   000119                REQUIRE ?Subroutine1
   \   000119                ; // Fall through to label ?Subroutine1

   \                                 In  segment BANKED_CODE, align 1, keep-with-next
   \                     ?Subroutine1:
   \   000000   740C         MOV     A,#0xc
   \   000002   12....       LCALL   ?DEALLOC_XSTACK8
   \   000005   7F06         MOV     R7,#0x6
   \   000007   02....       LJMP    ?BANKED_LEAVE_XDATA

   \                                 In  segment BANKED_CODE, align 1, keep-with-next
   \                     ?Subroutine66:
   \   000000   12....       LCALL   ?Subroutine94 & 0xFFFF
   \                     ??CrossCallReturnLabel_141:
   \   000003   E0           MOVX    A,@DPTR
   \   000004   22           RET

   \                                 In  segment BANKED_CODE, align 1, keep-with-next
   \                     ?Subroutine58:
   \   000000   E5..         MOV     A,?V0 + 0
   \   000002   2401         ADD     A,#0x1
   \   000004   F5..         MOV     ?V0 + 0,A
   \   000006   E5..         MOV     A,?V0 + 1
   \   000008   3400         ADDC    A,#0x0
   \   00000A   F5..         MOV     ?V0 + 1,A
   \   00000C   22           RET

   \                                 In  segment BANKED_CODE, align 1, keep-with-next
   \                     ?Subroutine45:
   \   000000   12....       LCALL   ??Subroutine148_0 & 0xFFFF
   \                     ??CrossCallReturnLabel_348:
   \   000003   12....       LCALL   ?Subroutine86 & 0xFFFF
   \                     ??CrossCallReturnLabel_346:
   \   000006   C3           CLR     C
   \   000007   E5..         MOV     A,?V0 + 0
   \   000009   98           SUBB    A,R0
   \   00000A   E5..         MOV     A,?V0 + 1
   \   00000C   99           SUBB    A,R1
   \   00000D   22           RET

   \                                 In  segment BANKED_CODE, align 1, keep-with-next
   \                     ?Subroutine94:
   \   000000   39           ADDC    A,R1
   \   000001   F583         MOV     DPH,A
   \   000003   A3           INC     DPTR
   \   000004   A3           INC     DPTR
   \   000005   A3           INC     DPTR
   \   000006   A3           INC     DPTR
   \   000007   A3           INC     DPTR
   \   000008   A3           INC     DPTR
   \   000009   22           RET
    558          //从PIT表里转发数据包

   \                                 In  segment BANKED_CODE, align 1, keep-with-next
    559          void SendDataFromPIT( uint8 num, Data data)
   \                     SendDataFromPIT:
    560          {
   \   000000   74F2         MOV     A,#-0xe
   \   000002   12....       LCALL   ?BANKED_ENTER_XDATA
   \   000005                ; Saved register size: 14
   \   000005                ; Auto size: 12
   \   000005   74F4         MOV     A,#-0xc
   \   000007   12....       LCALL   ?ALLOC_XSTACK8
    561             int j=0;
    562             uint8 ddata[12];
    563             ddata[0] = 0x7E;
   \   00000A   85..82       MOV     DPL,?XSP + 0
   \   00000D   85..83       MOV     DPH,?XSP + 1
   \   000010   747E         MOV     A,#0x7e
   \   000012   F0           MOVX    @DPTR,A
    564             ddata[1] = 0x45;
   \   000013   7401         MOV     A,#0x1
   \   000015   12....       LCALL   ?XSTACK_DISP0_8
   \   000018   7445         MOV     A,#0x45
   \   00001A   F0           MOVX    @DPTR,A
    565             ddata[2] = 2;//PackageFlag标识包的类型，interest=1,data=2,其他=3
   \   00001B   7402         MOV     A,#0x2
   \   00001D   12....       LCALL   ?XSTACK_DISP0_8
   \   000020   7402         MOV     A,#0x2
   \   000022   F0           MOVX    @DPTR,A
    566             //name
    567             ddata[3] = data.interestName.DestinationID;
   \   000023   741C         MOV     A,#0x1c
   \   000025   12....       LCALL   ?XSTACK_DISP0_8
   \   000028   E0           MOVX    A,@DPTR
   \   000029   C0E0         PUSH    A
   \   00002B   7403         MOV     A,#0x3
   \   00002D   12....       LCALL   ?XSTACK_DISP0_8
   \   000030   D0E0         POP     A
   \   000032   F0           MOVX    @DPTR,A
    568             ddata[4] = data.interestName.DataFlag; //DataFlag标志需要请求的数据包的类型，温度=1，湿度=2，光照=3，电压=4
   \   000033   741E         MOV     A,#0x1e
   \   000035   12....       LCALL   ?XSTACK_DISP0_8
   \   000038   E0           MOVX    A,@DPTR
   \   000039   C0E0         PUSH    A
   \   00003B   7404         MOV     A,#0x4
   \   00003D   12....       LCALL   ?XSTACK_DISP0_8
   \   000040   D0E0         POP     A
   \   000042   F0           MOVX    @DPTR,A
    569             ddata[5] = data.interestName.PackageCounter; //包批次号
   \   000043   7420         MOV     A,#0x20
   \   000045   12....       LCALL   ?XSTACK_DISP0_8
   \   000048   E0           MOVX    A,@DPTR
   \   000049   C0E0         PUSH    A
   \   00004B   7405         MOV     A,#0x5
   \   00004D   12....       LCALL   ?XSTACK_DISP0_8
   \   000050   D0E0         POP     A
   \   000052   F0           MOVX    @DPTR,A
    570             ddata[6] = data.PackageAll;//PackageAll数据包的总个数
   \   000053   7422         MOV     A,#0x22
   \   000055   12....       LCALL   ?XSTACK_DISP0_8
   \   000058   E0           MOVX    A,@DPTR
   \   000059   C0E0         PUSH    A
   \   00005B   7406         MOV     A,#0x6
   \   00005D   12....       LCALL   ?XSTACK_DISP0_8
   \   000060   D0E0         POP     A
   \   000062   F0           MOVX    @DPTR,A
    571             ddata[7] = data.PackageSeg; //PackageSeg目前属于第几个包
   \   000063   7423         MOV     A,#0x23
   \   000065   12....       LCALL   ?XSTACK_DISP0_8
   \   000068   E0           MOVX    A,@DPTR
   \   000069   C0E0         PUSH    A
   \   00006B   7407         MOV     A,#0x7
   \   00006D   12....       LCALL   ?XSTACK_DISP0_8
   \   000070   D0E0         POP     A
   \   000072   F0           MOVX    @DPTR,A
    572             ddata[8] = HI_UINT16(data.Data);
   \   000073   7424         MOV     A,#0x24
   \   000075   12....       LCALL   ?XSTACK_DISP0_8
   \   000078   E0           MOVX    A,@DPTR
   \   000079   FA           MOV     R2,A
   \   00007A   A3           INC     DPTR
   \   00007B   E0           MOVX    A,@DPTR
   \   00007C   C0E0         PUSH    A
   \   00007E   7408         MOV     A,#0x8
   \   000080   12....       LCALL   ?XSTACK_DISP0_8
   \   000083   D0E0         POP     A
   \   000085   F0           MOVX    @DPTR,A
    573             ddata[9] = LO_UINT16(data.Data);
   \   000086   7409         MOV     A,#0x9
   \   000088   12....       LCALL   ?XSTACK_DISP0_8
   \   00008B   EA           MOV     A,R2
   \   00008C   F0           MOVX    @DPTR,A
    574             ddata[10] = 0;
   \   00008D   740A         MOV     A,#0xa
   \   00008F   12....       LCALL   ?XSTACK_DISP0_8
   \   000092   E4           CLR     A
   \   000093   F0           MOVX    @DPTR,A
    575             ddata[11] = 0x7e;
   \   000094   740B         MOV     A,#0xb
   \   000096   12....       LCALL   ?XSTACK_DISP0_8
   \   000099   747E         MOV     A,#0x7e
   \   00009B   F0           MOVX    @DPTR,A
    576             
    577             for(j=0;j<PendingTable[num].IncomingNumber;j++)
   \   00009C   75..00       MOV     ?V0 + 0,#0x0
   \   00009F   75..00       MOV     ?V0 + 1,#0x0
   \   0000A2   E9           MOV     A,R1
   \   0000A3   75F014       MOV     B,#0x14
   \   0000A6   A4           MUL     AB
   \   0000A7   F8           MOV     R0,A
   \   0000A8   A9F0         MOV     R1,B
   \   0000AA   74..         MOV     A,#PendingTable & 0xff
   \   0000AC   28           ADD     A,R0
   \   0000AD   FE           MOV     R6,A
   \   0000AE   74..         MOV     A,#(PendingTable >> 8) & 0xff
   \   0000B0   39           ADDC    A,R1
   \   0000B1   FF           MOV     R7,A
   \   0000B2   805A         SJMP    ??CrossCallReturnLabel_94
    578             {
    579                ddata[10] = PendingTable[num].IncomingQueue[j];
   \                     ??SendDataFromPIT_0:
   \   0000B4   E5..         MOV     A,?V0 + 0
   \   0000B6   C3           CLR     C
   \   0000B7   33           RLC     A
   \   0000B8   F8           MOV     R0,A
   \   0000B9   E5..         MOV     A,?V0 + 1
   \   0000BB   33           RLC     A
   \   0000BC   F9           MOV     R1,A
   \   0000BD   EE           MOV     A,R6
   \   0000BE   28           ADD     A,R0
   \   0000BF   F582         MOV     DPL,A
   \   0000C1   EF           MOV     A,R7
   \   0000C2   12....       LCALL   ?Subroutine66 & 0xFFFF
   \                     ??CrossCallReturnLabel_106:
   \   0000C5   C0E0         PUSH    A
   \   0000C7   740A         MOV     A,#0xa
   \   0000C9   12....       LCALL   ?XSTACK_DISP0_8
   \   0000CC   D0E0         POP     A
   \   0000CE   F0           MOVX    @DPTR,A
    580                if ( AF_DataRequest( &SampleApp_Periodic_DstAddr, &SampleApp_epDesc,
    581                                      SAMPLEAPP_DATA_CLUSTERID,
    582                                      12,
    583                                      ddata,
    584                                      &SampleApp_TransID,
    585                                      AF_DISCV_ROUTE,
    586                                      AF_DEFAULT_RADIUS ) == afStatus_SUCCESS )      
   \   0000CF                ; Setup parameters for call to function AF_DataRequest
   \   0000CF   75..1E       MOV     ?V0 + 3,#0x1e
   \   0000D2   78..         MOV     R0,#?V0 + 3
   \   0000D4   12....       LCALL   ?PUSH_XSTACK_I_ONE
   \   0000D7   75....       MOV     ?V0 + 4,#SampleApp_TransID & 0xff
   \   0000DA   75....       MOV     ?V0 + 5,#(SampleApp_TransID >> 8) & 0xff
   \   0000DD   78..         MOV     R0,#?V0 + 4
   \   0000DF   12....       LCALL   ?PUSH_XSTACK_I_TWO
   \   0000E2   7403         MOV     A,#0x3
   \   0000E4   12....       LCALL   ?XSTACK_DISP0_8
   \   0000E7   8582..       MOV     ?V0 + 4,DPL
   \   0000EA   8583..       MOV     ?V0 + 5,DPH
   \   0000ED   78..         MOV     R0,#?V0 + 4
   \   0000EF   12....       LCALL   ?PUSH_XSTACK_I_TWO
   \   0000F2   75..0C       MOV     ?V0 + 4,#0xc
   \   0000F5   75..00       MOV     ?V0 + 5,#0x0
   \   0000F8   78..         MOV     R0,#?V0 + 4
   \   0000FA   12....       LCALL   ?PUSH_XSTACK_I_TWO
   \   0000FD   75..0B       MOV     ?V0 + 4,#0xb
   \   000100   78..         MOV     R0,#?V0 + 4
   \   000102   12....       LCALL   ?PUSH_XSTACK_I_TWO
   \   000105   12....       LCALL   ?Subroutine67 & 0xFFFF
    587                {
    588                }
    589                else
    590                {
    591                            // Error occurred in request to send.
    592                }
    593             }   
   \                     ??CrossCallReturnLabel_171:
   \   000108   12....       LCALL   ?DEALLOC_XSTACK8
   \   00010B   12....       LCALL   ?Subroutine58 & 0xFFFF
   \                     ??CrossCallReturnLabel_94:
   \   00010E   EE           MOV     A,R6
   \   00010F   2410         ADD     A,#0x10
   \   000111   F582         MOV     DPL,A
   \   000113   EF           MOV     A,R7
   \   000114   12....       LCALL   ?Subroutine45 & 0xFFFF
   \                     ??CrossCallReturnLabel_78:
   \   000117   409B         JC      ??SendDataFromPIT_0
    594          }
   \   000119   02....       LJMP    ?Subroutine1 & 0xFFFF
    595          //从CS表中发送数据

   \                                 In  segment BANKED_CODE, align 1, keep-with-next
    596          void SampleApp_SendDataFromCS( uint8 num,uint8 Addr)
   \                     SampleApp_SendDataFromCS:
    597          {
   \   000000   74F6         MOV     A,#-0xa
   \   000002   12....       LCALL   ?BANKED_ENTER_XDATA
   \   000005                ; Saved register size: 10
   \   000005                ; Auto size: 12
   \   000005   74F4         MOV     A,#-0xc
   \   000007   12....       LCALL   ?ALLOC_XSTACK8
   \   00000A   E9           MOV     A,R1
   \   00000B   FE           MOV     R6,A
   \   00000C   EA           MOV     A,R2
   \   00000D   FF           MOV     R7,A
    598             uint8 CSData[12];
    599             CSData[0] = 0x7E;
   \   00000E   85..82       MOV     DPL,?XSP + 0
   \   000011   85..83       MOV     DPH,?XSP + 1
   \   000014   747E         MOV     A,#0x7e
   \   000016   F0           MOVX    @DPTR,A
    600             CSData[1] = 0X45;
   \   000017   7401         MOV     A,#0x1
   \   000019   12....       LCALL   ?XSTACK_DISP0_8
   \   00001C   7445         MOV     A,#0x45
   \   00001E   F0           MOVX    @DPTR,A
    601             CSData[2] = 2;
   \   00001F   7402         MOV     A,#0x2
   \   000021   12....       LCALL   ?XSTACK_DISP0_8
   \   000024   7402         MOV     A,#0x2
   \   000026   F0           MOVX    @DPTR,A
    602             CSData[3] = (uint8)ContentStore[num].interestName.DestinationID;
   \   000027   EE           MOV     A,R6
   \   000028   75F00E       MOV     B,#0xe
   \   00002B   A4           MUL     AB
   \   00002C   F8           MOV     R0,A
   \   00002D   A9F0         MOV     R1,B
   \   00002F   74..         MOV     A,#ContentStore & 0xff
   \   000031   28           ADD     A,R0
   \   000032   F8           MOV     R0,A
   \   000033   74..         MOV     A,#(ContentStore >> 8) & 0xff
   \   000035   39           ADDC    A,R1
   \   000036   F9           MOV     R1,A
   \   000037   8882         MOV     DPL,R0
   \   000039   8983         MOV     DPH,R1
   \   00003B   E0           MOVX    A,@DPTR
   \   00003C   C0E0         PUSH    A
   \   00003E   7403         MOV     A,#0x3
   \   000040   12....       LCALL   ?XSTACK_DISP0_8
   \   000043   D0E0         POP     A
   \   000045   12....       LCALL   ?Subroutine108 & 0xFFFF
    603             CSData[4] = (uint8)ContentStore[num].interestName.DataFlag;
   \                     ??CrossCallReturnLabel_157:
   \   000048   A3           INC     DPTR
   \   000049   A3           INC     DPTR
   \   00004A   E0           MOVX    A,@DPTR
   \   00004B   C0E0         PUSH    A
   \   00004D   7404         MOV     A,#0x4
   \   00004F   12....       LCALL   ?XSTACK_DISP0_8
   \   000052   D0E0         POP     A
   \   000054   12....       LCALL   ?Subroutine34 & 0xFFFF
    604             CSData[5] = (uint8)ContentStore[num].interestName.PackageCounter;
   \                     ??CrossCallReturnLabel_58:
   \   000057   E0           MOVX    A,@DPTR
   \   000058   C0E0         PUSH    A
   \   00005A   7405         MOV     A,#0x5
   \   00005C   12....       LCALL   ?XSTACK_DISP0_8
   \   00005F   D0E0         POP     A
   \   000061   12....       LCALL   ?Subroutine34 & 0xFFFF
    605             //CS存储其他内容
    606             CSData[6] = (uint8)ContentStore[num].PackageAll;
   \                     ??CrossCallReturnLabel_59:
   \   000064   A3           INC     DPTR
   \   000065   A3           INC     DPTR
   \   000066   E0           MOVX    A,@DPTR
   \   000067   C0E0         PUSH    A
   \   000069   7406         MOV     A,#0x6
   \   00006B   12....       LCALL   ?XSTACK_DISP0_8
   \   00006E   D0E0         POP     A
   \   000070   12....       LCALL   ?Subroutine24 & 0xFFFF
    607             CSData[7] = (uint8)ContentStore[num].PackageSeg;
   \                     ??CrossCallReturnLabel_34:
   \   000073   E0           MOVX    A,@DPTR
   \   000074   C0E0         PUSH    A
   \   000076   7407         MOV     A,#0x7
   \   000078   12....       LCALL   ?XSTACK_DISP0_8
   \   00007B   D0E0         POP     A
   \   00007D   12....       LCALL   ?Subroutine24 & 0xFFFF
   \                     ??CrossCallReturnLabel_35:
   \   000080   A3           INC     DPTR
   \   000081   A3           INC     DPTR
   \   000082   E0           MOVX    A,@DPTR
   \   000083   FC           MOV     R4,A
   \   000084   A3           INC     DPTR
   \   000085   E0           MOVX    A,@DPTR
   \   000086   C0E0         PUSH    A
   \   000088   7408         MOV     A,#0x8
   \   00008A   12....       LCALL   ?XSTACK_DISP0_8
   \   00008D   D0E0         POP     A
   \   00008F   F0           MOVX    @DPTR,A
    608             CSData[8] = HI_UINT16(ContentStore[num].Data);
    609             CSData[9] = LO_UINT16(ContentStore[num].Data);
   \   000090   7409         MOV     A,#0x9
   \   000092   12....       LCALL   ?XSTACK_DISP0_8
   \   000095   EC           MOV     A,R4
   \   000096   F0           MOVX    @DPTR,A
    610             CSData[10] = Addr;
   \   000097   740A         MOV     A,#0xa
   \   000099   12....       LCALL   ?XSTACK_DISP0_8
   \   00009C   EF           MOV     A,R7
   \   00009D   F0           MOVX    @DPTR,A
    611             ++ContentStore[num].number;
   \   00009E   E8           MOV     A,R0
   \   00009F   240C         ADD     A,#0xc
   \   0000A1   F582         MOV     DPL,A
   \   0000A3   E9           MOV     A,R1
   \   0000A4   12....       LCALL   ??Subroutine112_0 & 0xFFFF
   \                     ??CrossCallReturnLabel_162:
   \   0000A7   12....       LCALL   ??Subroutine129_0 & 0xFFFF
   \                     ??CrossCallReturnLabel_229:
   \   0000AA   02....       LJMP    ?Subroutine0 & 0xFFFF
    612          
    613             if ( AF_DataRequest( &SampleApp_Periodic_DstAddr, &SampleApp_epDesc,
    614                                      SAMPLEAPP_DATA_CLUSTERID,
    615                                 12,
    616                                 CSData,
    617                                 &SampleApp_TransID,
    618                                 AF_DISCV_ROUTE,
    619                                 AF_DEFAULT_RADIUS ) == afStatus_SUCCESS )
    620             {
    621             }
    622             else
    623             {
    624               // Error occurred in request to send.
    625             }
    626          }

   \                                 In  segment BANKED_CODE, align 1, keep-with-next
   \                     ?Subroutine34:
   \   000000   12....       LCALL   ?Subroutine76 & 0xFFFF
   \                     ??CrossCallReturnLabel_120:
   \   000003   22           RET

   \                                 In  segment BANKED_CODE, align 1, keep-with-next
   \                     ?Subroutine76:
   \   000000   12....       LCALL   ?Subroutine100 & 0xFFFF
   \                     ??CrossCallReturnLabel_152:
   \   000003   22           RET

   \                                 In  segment BANKED_CODE, align 1, keep-with-next
   \                     ?Subroutine24:
   \   000000   12....       LCALL   ?Subroutine76 & 0xFFFF
   \                     ??CrossCallReturnLabel_121:
   \   000003   A3           INC     DPTR
   \   000004   A3           INC     DPTR
   \   000005   A3           INC     DPTR
   \   000006   A3           INC     DPTR
   \   000007   22           RET

   \                                 In  segment BANKED_CODE, align 1, keep-with-next
   \                     ?Subroutine0:
   \   000000   F0           MOVX    @DPTR,A
   \   000001                ; Setup parameters for call to function AF_DataRequest
   \   000001                ; Setup parameters for call to function AF_DataRequest
   \   000001   75..1E       MOV     ?V0 + 0,#0x1e
   \   000004   78..         MOV     R0,#?V0 + 0
   \   000006   12....       LCALL   ?PUSH_XSTACK_I_ONE
   \   000009   75....       MOV     ?V0 + 0,#SampleApp_TransID & 0xff
   \   00000C   75....       MOV     ?V0 + 1,#(SampleApp_TransID >> 8) & 0xff
   \   00000F   78..         MOV     R0,#?V0 + 0
   \   000011   12....       LCALL   ?PUSH_XSTACK_I_TWO
   \   000014   7403         MOV     A,#0x3
   \   000016   12....       LCALL   ?XSTACK_DISP0_8
   \   000019   8582..       MOV     ?V0 + 0,DPL
   \   00001C   8583..       MOV     ?V0 + 1,DPH
   \   00001F   78..         MOV     R0,#?V0 + 0
   \   000021   12....       LCALL   ?PUSH_XSTACK_I_TWO
   \   000024   75..0C       MOV     ?V0 + 0,#0xc
   \   000027   75..00       MOV     ?V0 + 1,#0x0
   \   00002A   78..         MOV     R0,#?V0 + 0
   \   00002C   12....       LCALL   ?PUSH_XSTACK_I_TWO
   \   00002F   75..0B       MOV     ?V0 + 0,#0xb
   \   000032                REQUIRE ??Subroutine114_0
   \   000032                ; // Fall through to label ??Subroutine114_0

   \                                 In  segment BANKED_CODE, align 1, keep-with-next
   \                     ??Subroutine129_0:
   \   000000   12....       LCALL   ?Subroutine102 & 0xFFFF
   \                     ??CrossCallReturnLabel_258:
   \   000003   22           RET
    627          
    628          //回ACK包

   \                                 In  segment BANKED_CODE, align 1, keep-with-next
    629          void SampleApp_AckMessage_Send(int lastid)
   \                     SampleApp_AckMessage_Send:
    630          {
   \   000000   74F6         MOV     A,#-0xa
   \   000002   12....       LCALL   ?BANKED_ENTER_XDATA
   \   000005                ; Saved register size: 10
   \   000005                ; Auto size: 12
   \   000005   74F4         MOV     A,#-0xc
   \   000007   12....       LCALL   ?ALLOC_XSTACK8
    631            uint8 AckData[12];
    632            AckData[0] = 0x7E;
   \   00000A   85..82       MOV     DPL,?XSP + 0
   \   00000D   85..83       MOV     DPH,?XSP + 1
   \   000010   747E         MOV     A,#0x7e
   \   000012   F0           MOVX    @DPTR,A
    633            AckData[1] = 0x45;
   \   000013   7401         MOV     A,#0x1
   \   000015   12....       LCALL   ?XSTACK_DISP0_8
   \   000018   7445         MOV     A,#0x45
   \   00001A   F0           MOVX    @DPTR,A
    634            AckData[2] = 3;//Ack为3
   \   00001B   7402         MOV     A,#0x2
   \   00001D   12....       LCALL   ?XSTACK_DISP0_8
   \   000020   7403         MOV     A,#0x3
   \   000022   12....       LCALL   ?Subroutine33 & 0xFFFF
    635            AckData[3] = NodeId;
   \                     ??CrossCallReturnLabel_56:
   \   000025   C0E0         PUSH    A
   \   000027   7403         MOV     A,#0x3
   \   000029   12....       LCALL   ?XSTACK_DISP0_8
   \   00002C   D0E0         POP     A
   \   00002E   F0           MOVX    @DPTR,A
    636            AckData[4] = lastid;
   \   00002F   7404         MOV     A,#0x4
   \   000031   12....       LCALL   ?XSTACK_DISP0_8
   \   000034   EA           MOV     A,R2
   \   000035   F0           MOVX    @DPTR,A
    637            AckData[5] = 0;
   \   000036   7405         MOV     A,#0x5
   \   000038   12....       LCALL   ?XSTACK_DISP0_8
   \   00003B   E4           CLR     A
   \   00003C   F0           MOVX    @DPTR,A
    638            AckData[6] = 0;
   \   00003D   7406         MOV     A,#0x6
   \   00003F   12....       LCALL   ?XSTACK_DISP0_8
   \   000042   E4           CLR     A
   \   000043   F0           MOVX    @DPTR,A
    639            AckData[7] = 0;
   \   000044   7407         MOV     A,#0x7
   \   000046   12....       LCALL   ?XSTACK_DISP0_8
   \   000049   E4           CLR     A
   \   00004A   F0           MOVX    @DPTR,A
    640            AckData[8] = 0;
   \   00004B   7408         MOV     A,#0x8
   \   00004D   12....       LCALL   ?XSTACK_DISP0_8
   \   000050   E4           CLR     A
   \   000051   F0           MOVX    @DPTR,A
    641            AckData[9] = 0;
   \   000052   7409         MOV     A,#0x9
   \   000054   12....       LCALL   ?XSTACK_DISP0_8
   \   000057   E4           CLR     A
   \   000058   F0           MOVX    @DPTR,A
    642            AckData[10] = 0;
   \   000059   740A         MOV     A,#0xa
   \   00005B   12....       LCALL   ?XSTACK_DISP0_8
   \   00005E   E4           CLR     A
   \   00005F   F0           MOVX    @DPTR,A
    643            AckData[11] = 0x7E;
   \   000060   740B         MOV     A,#0xb
   \   000062   12....       LCALL   ?XSTACK_DISP0_8
   \   000065   747E         MOV     A,#0x7e
   \   000067   F0           MOVX    @DPTR,A
    644            if ( AF_DataRequest( &SampleApp_Periodic_DstAddr, &SampleApp_epDesc,
    645                                 SAMPLEAPP_ACK_CLUSTERID,
    646                                 12,
    647                                 AckData,
    648                                 &SampleApp_TransID,
    649                                 AF_DISCV_ROUTE,
    650                                 AF_DEFAULT_RADIUS ) == afStatus_SUCCESS )
   \   000068                ; Setup parameters for call to function AF_DataRequest
   \   000068   75..1E       MOV     ?V0 + 0,#0x1e
   \   00006B   78..         MOV     R0,#?V0 + 0
   \   00006D   12....       LCALL   ?PUSH_XSTACK_I_ONE
   \   000070   75....       MOV     ?V0 + 0,#SampleApp_TransID & 0xff
   \   000073   75....       MOV     ?V0 + 1,#(SampleApp_TransID >> 8) & 0xff
   \   000076   78..         MOV     R0,#?V0 + 0
   \   000078   12....       LCALL   ?PUSH_XSTACK_I_TWO
   \   00007B   7403         MOV     A,#0x3
   \   00007D   12....       LCALL   ?XSTACK_DISP0_8
   \   000080   8582..       MOV     ?V0 + 0,DPL
   \   000083   8583..       MOV     ?V0 + 1,DPH
   \   000086   78..         MOV     R0,#?V0 + 0
   \   000088   12....       LCALL   ?PUSH_XSTACK_I_TWO
   \   00008B   75..0C       MOV     ?V0 + 0,#0xc
   \   00008E   75..00       MOV     ?V0 + 1,#0x0
   \   000091   78..         MOV     R0,#?V0 + 0
   \   000093   12....       LCALL   ?PUSH_XSTACK_I_TWO
   \   000096   75..0A       MOV     ?V0 + 0,#0xa
   \   000099   02....       LJMP    ??Subroutine114_0 & 0xFFFF
    651             {
    652             }
    653             else
    654             { }     
    655          }
    656          //直接回给协调器数据包

   \                                 In  segment BANKED_CODE, align 1, keep-with-next
    657          void SampleApp_DataMessage_Send(int id)
   \                     SampleApp_DataMessage_Send:
    658          {
   \   000000   74F6         MOV     A,#-0xa
   \   000002   12....       LCALL   ?BANKED_ENTER_XDATA
   \   000005                ; Saved register size: 10
   \   000005                ; Auto size: 12
   \   000005   74F4         MOV     A,#-0xc
   \   000007   12....       LCALL   ?ALLOC_XSTACK8
   \   00000A   EA           MOV     A,R2
   \   00000B   FE           MOV     R6,A
    659             uint8 data[12];
    660             data[0] = 0x7E;
   \   00000C   85..82       MOV     DPL,?XSP + 0
   \   00000F   85..83       MOV     DPH,?XSP + 1
   \   000012   747E         MOV     A,#0x7e
   \   000014   F0           MOVX    @DPTR,A
    661             data[1] = 0x45;
   \   000015   7401         MOV     A,#0x1
   \   000017   12....       LCALL   ?XSTACK_DISP0_8
   \   00001A   7445         MOV     A,#0x45
   \   00001C   F0           MOVX    @DPTR,A
    662             data[2] = 2;//PackageFlag标识包的类型，interest=1,data=2,其他=3
   \   00001D   7402         MOV     A,#0x2
   \   00001F   12....       LCALL   ?XSTACK_DISP0_8
   \   000022   7402         MOV     A,#0x2
   \   000024   12....       LCALL   ?Subroutine33 & 0xFFFF
    663             //name
    664             data[3] = NodeId;
   \                     ??CrossCallReturnLabel_57:
   \   000027   C0E0         PUSH    A
   \   000029   7403         MOV     A,#0x3
   \   00002B   12....       LCALL   ?XSTACK_DISP0_8
   \   00002E   D0E0         POP     A
   \   000030   F0           MOVX    @DPTR,A
    665             data[4] = 4; //DataFlag标志需要请求的数据包的类型，温度=1，湿度=2，光照=3，电压=4
   \   000031   7404         MOV     A,#0x4
   \   000033   12....       LCALL   ?XSTACK_DISP0_8
   \   000036   7404         MOV     A,#0x4
   \   000038   F0           MOVX    @DPTR,A
    666             data[5] = 1; //包批次号
   \   000039   04           INC     A
   \   00003A   12....       LCALL   ?XSTACK_DISP0_8
   \   00003D   7401         MOV     A,#0x1
   \   00003F   F0           MOVX    @DPTR,A
    667             data[6] = 1;//PackageAll数据包的总个数
   \   000040   7406         MOV     A,#0x6
   \   000042   12....       LCALL   ?XSTACK_DISP0_8
   \   000045   7401         MOV     A,#0x1
   \   000047   F0           MOVX    @DPTR,A
    668             data[7] = 1; //PackageSeg目前属于第几个包
   \   000048   7407         MOV     A,#0x7
   \   00004A   12....       LCALL   ?XSTACK_DISP0_8
   \   00004D   7401         MOV     A,#0x1
   \   00004F   F0           MOVX    @DPTR,A
    669             uint16 voltage = getADC();
   \   000050                ; Setup parameters for call to function getADC
   \   000050   12....       LCALL   ??getADC?relay
    670             data[8] = HI_UINT16(voltage);
   \   000053   7408         MOV     A,#0x8
   \   000055   12....       LCALL   ?XSTACK_DISP0_8
   \   000058   EB           MOV     A,R3
   \   000059   F0           MOVX    @DPTR,A
    671             data[9] = LO_UINT16(voltage);
   \   00005A   7409         MOV     A,#0x9
   \   00005C   12....       LCALL   ?XSTACK_DISP0_8
   \   00005F   EA           MOV     A,R2
   \   000060   F0           MOVX    @DPTR,A
    672             data[10] = id;//数据包的目的id
   \   000061   740A         MOV     A,#0xa
   \   000063   12....       LCALL   ?XSTACK_DISP0_8
   \   000066   EE           MOV     A,R6
   \   000067   F0           MOVX    @DPTR,A
    673             data[11] = 0x7e;
   \   000068   740B         MOV     A,#0xb
   \   00006A   12....       LCALL   ?XSTACK_DISP0_8
   \   00006D   747E         MOV     A,#0x7e
   \   00006F   80..         SJMP    ?Subroutine0
    674             
    675             if ( AF_DataRequest( &SampleApp_Periodic_DstAddr, &SampleApp_epDesc,
    676                                      SAMPLEAPP_DATA_CLUSTERID,
    677                                 12,
    678                                 data,
    679                                 &SampleApp_TransID,
    680                                 AF_DISCV_ROUTE,
    681                                 AF_DEFAULT_RADIUS ) == afStatus_SUCCESS )
    682             {
    683             }
    684             else
    685             {
    686                 // Error occurred in request to send.
    687             }
    688          }
    689          
    690          
    691          

   \                                 In  segment BANKED_CODE, align 1, keep-with-next
    692          void SampleApp_Send_P2P_Message( void )
   \                     SampleApp_Send_P2P_Message:
    693          {
   \   000000   74F6         MOV     A,#-0xa
   \   000002   12....       LCALL   ?BANKED_ENTER_XDATA
   \   000005                ; Saved register size: 10
   \   000005                ; Auto size: 11
   \   000005   74F5         MOV     A,#-0xb
   \   000007   12....       LCALL   ?ALLOC_XSTACK8
    694            uint8 data[11]="0123456789";
   \   00000A   85..82       MOV     DPL,?XSP + 0
   \   00000D   85..83       MOV     DPH,?XSP + 1
   \   000010   AC82         MOV     R4,DPL
   \   000012   AD83         MOV     R5,DPH
   \   000014   7583..       MOV     DPH,#(`?<Constant "0123456789">` >> 8) & 0xff
   \   000017   7582..       MOV     DPL,#`?<Constant "0123456789">` & 0xff
   \   00001A   740B         MOV     A,#0xb
   \   00001C   12....       LCALL   ?MOVE_LONG8_XDATA_XDATA
    695            
    696            if ( AF_DataRequest( &SampleApp_P2P_DstAddr, &SampleApp_epDesc,
    697                                 SAMPLEAPP_P2P_CLUSTERID,
    698                                 10,
    699                                 data,
    700                                 &SampleApp_TransID,
    701                                 AF_DISCV_ROUTE,
    702                                 AF_DEFAULT_RADIUS ) == afStatus_SUCCESS )
   \   00001F                ; Setup parameters for call to function AF_DataRequest
   \   00001F   75..1E       MOV     ?V0 + 0,#0x1e
   \   000022   78..         MOV     R0,#?V0 + 0
   \   000024   12....       LCALL   ?PUSH_XSTACK_I_ONE
   \   000027   75....       MOV     ?V0 + 0,#SampleApp_TransID & 0xff
   \   00002A   75....       MOV     ?V0 + 1,#(SampleApp_TransID >> 8) & 0xff
   \   00002D   78..         MOV     R0,#?V0 + 0
   \   00002F   12....       LCALL   ?PUSH_XSTACK_I_TWO
   \   000032   7403         MOV     A,#0x3
   \   000034   12....       LCALL   ?XSTACK_DISP0_8
   \   000037   8582..       MOV     ?V0 + 0,DPL
   \   00003A   8583..       MOV     ?V0 + 1,DPH
   \   00003D   78..         MOV     R0,#?V0 + 0
   \   00003F   12....       LCALL   ?PUSH_XSTACK_I_TWO
   \   000042   75..0A       MOV     ?V0 + 0,#0xa
   \   000045   75..00       MOV     ?V0 + 1,#0x0
   \   000048   78..         MOV     R0,#?V0 + 0
   \   00004A   12....       LCALL   ?PUSH_XSTACK_I_TWO
   \   00004D   75..04       MOV     ?V0 + 0,#0x4
   \   000050   78..         MOV     R0,#?V0 + 0
   \   000052   12....       LCALL   ?PUSH_XSTACK_I_TWO
   \   000055   7920         MOV     R1,#0x20
   \   000057   7C..         MOV     R4,#SampleApp_epDesc & 0xff
   \   000059   7D..         MOV     R5,#(SampleApp_epDesc >> 8) & 0xff
   \   00005B   7A..         MOV     R2,#SampleApp_P2P_DstAddr & 0xff
   \   00005D   7B..         MOV     R3,#(SampleApp_P2P_DstAddr >> 8) & 0xff
   \   00005F   12....       LCALL   ??Subroutine113_0 & 0xFFFF
   \                     ??CrossCallReturnLabel_173:
   \   000062   12....       LCALL   ?DEALLOC_XSTACK8
    703            {
    704            }
    705            else
    706            {
    707              // Error occurred in request to send.
    708            }
    709          }
   \   000065   740B         MOV     A,#0xb
   \   000067   80..         SJMP    ??Subroutine115_0
    710          /*********************************************************************
    711          *********************************************************************/
    712          
    713          
    714          /*********************************************************************
    715          *********************************************************************/
    716          //NDN相关表的操作
    717          //插入CS表

   \                                 In  segment BANKED_CODE, align 1, keep-with-next
    718          void InsertContentStore(Data data)
   \                     InsertContentStore:
    719          {
   \   000000   C082         PUSH    DPL
   \   000002   C083         PUSH    DPH
   \   000004                ; Saved register size: 2
   \   000004                ; Auto size: 0
    720            uint8 temp;	
    721           //若CS表未满
    722            if(CScounter<10)
   \   000004   90....       MOV     DPTR,#CScounter
   \   000007   12....       LCALL   ?Subroutine41 & 0xFFFF
   \                     ??CrossCallReturnLabel_68:
   \   00000A   504C         JNC     ??InsertContentStore_0
    723            {
    724              //CS存储Interest相关内容
    725              ContentStore[CScounter].interestName.DestinationID=data.interestName.DestinationID;
   \   00000C   90....       MOV     DPTR,#CScounter
   \   00000F   12....       LCALL   ?Subroutine38 & 0xFFFF
   \                     ??CrossCallReturnLabel_64:
   \   000012   7402         MOV     A,#0x2
   \   000014   12....       LCALL   ?XSTACK_DISP0_8
   \   000017   12....       LCALL   ??Subroutine121_0 & 0xFFFF
   \                     ??CrossCallReturnLabel_200:
   \   00001A   12....       LCALL   ??Subroutine123_0 & 0xFFFF
    726              ContentStore[CScounter].interestName.DataFlag=data.interestName.DataFlag;	
   \                     ??CrossCallReturnLabel_209:
   \   00001D   7404         MOV     A,#0x4
   \   00001F   12....       LCALL   ?XSTACK_DISP0_8
   \   000022   12....       LCALL   ??Subroutine121_0 & 0xFFFF
   \                     ??CrossCallReturnLabel_201:
   \   000025   12....       LCALL   ??Subroutine122_0 & 0xFFFF
    727              ContentStore[CScounter].interestName.PackageCounter=data.interestName.PackageCounter;
   \                     ??CrossCallReturnLabel_212:
   \   000028   7406         MOV     A,#0x6
   \   00002A   12....       LCALL   ?XSTACK_DISP0_8
   \   00002D   12....       LCALL   ?Subroutine31 & 0xFFFF
    728              //CS存储其他内容
    729              ContentStore[CScounter].PackageAll=data.PackageAll;
   \                     ??CrossCallReturnLabel_214:
   \   000030   7408         MOV     A,#0x8
   \   000032   12....       LCALL   ?XSTACK_DISP0_8
   \   000035   12....       LCALL   ?Subroutine51 & 0xFFFF
   \                     ??CrossCallReturnLabel_83:
   \   000038   12....       LCALL   ??Subroutine138_0 & 0xFFFF
    730              ContentStore[CScounter].PackageSeg=data.PackageSeg;
   \                     ??CrossCallReturnLabel_293:
   \   00003B   7409         MOV     A,#0x9
   \   00003D   12....       LCALL   ?XSTACK_DISP0_8
   \   000040   12....       LCALL   ?Subroutine44 & 0xFFFF
   \                     ??CrossCallReturnLabel_75:
   \   000043   12....       LCALL   ??Subroutine138_0 & 0xFFFF
    731              ContentStore[CScounter].Data=data.Data;
   \                     ??CrossCallReturnLabel_294:
   \   000046   740A         MOV     A,#0xa
   \   000048   12....       LCALL   ?XSTACK_DISP0_8
   \   00004B   12....       LCALL   ?Subroutine18 & 0xFFFF
    732              ContentStore[CScounter].number=0;	
   \                     ??CrossCallReturnLabel_23:
   \   00004E   F0           MOVX    @DPTR,A
    733              CScounter = CScounter+1;
   \   00004F   90....       MOV     DPTR,#CScounter
   \   000052   12....       LCALL   ??Subroutine129_0 & 0xFFFF
    734            }
   \                     ??CrossCallReturnLabel_230:
   \   000055   02....       LJMP    ??CrossCallReturnLabel_24 & 0xFFFF
    735            //若CS表已经装满，需要使用替换策略进行替换，我们使用LRU(最近最少使用)
    736            else
    737            {	
    738              temp=0;
   \                     ??InsertContentStore_0:
   \   000058   7D00         MOV     R5,#0x0
    739              for(int temp_i=1;temp_i<ContentStoreNumber;++temp_i)
   \   00005A   7801         MOV     R0,#0x1
   \   00005C   7900         MOV     R1,#0x0
    740              {   
    741                   if(ContentStore[temp].number > ContentStore[temp_i].number)
   \                     ??InsertContentStore_1:
   \   00005E   12....       LCALL   ?Subroutine61 & 0xFFFF
   \                     ??CrossCallReturnLabel_198:
   \   000061   C082         PUSH    DPL
   \   000063   C083         PUSH    DPH
   \   000065   ED           MOV     A,R5
   \   000066   75F00E       MOV     B,#0xe
   \   000069   A4           MUL     AB
   \   00006A   FA           MOV     R2,A
   \   00006B   ABF0         MOV     R3,B
   \   00006D   12....       LCALL   ??Subroutine120_0 & 0xFFFF
   \                     ??CrossCallReturnLabel_196:
   \   000070   12....       LCALL   ??Subroutine117_0 & 0xFFFF
   \                     ??CrossCallReturnLabel_176:
   \   000073   D083         POP     DPH
   \   000075   D082         POP     DPL
   \   000077   12....       LCALL   ?Subroutine87 & 0xFFFF
   \                     ??CrossCallReturnLabel_225:
   \   00007A   5002         JNC     ??InsertContentStore_2
    742                       temp=temp_i;
   \   00007C   E8           MOV     A,R0
   \   00007D   FD           MOV     R5,A
    743              }	
   \                     ??InsertContentStore_2:
   \   00007E   E8           MOV     A,R0
   \   00007F   2401         ADD     A,#0x1
   \   000081   08           INC     R0
   \   000082   E9           MOV     A,R1
   \   000083   3400         ADDC    A,#0x0
   \   000085   F9           MOV     R1,A
   \   000086   C3           CLR     C
   \   000087   E8           MOV     A,R0
   \   000088   940A         SUBB    A,#0xa
   \   00008A   E9           MOV     A,R1
   \   00008B   9400         SUBB    A,#0x0
   \   00008D   A2D2         MOV     C,0xD0 /* PSW */.2
   \   00008F   65D0         XRL     A,PSW
   \   000091   33           RLC     A
   \   000092   40CA         JC      ??InsertContentStore_1
    744              //替换temp所在位置的内容	
    745              //CS存储Interest相关内容
    746              ContentStore[temp].interestName.DestinationID=data.interestName.DestinationID;	
   \   000094   ED           MOV     A,R5
   \   000095   75F00E       MOV     B,#0xe
   \   000098   A4           MUL     AB
   \   000099   F8           MOV     R0,A
   \   00009A   A9F0         MOV     R1,B
   \   00009C   74..         MOV     A,#ContentStore & 0xff
   \   00009E   28           ADD     A,R0
   \   00009F   F8           MOV     R0,A
   \   0000A0   74..         MOV     A,#(ContentStore >> 8) & 0xff
   \   0000A2   39           ADDC    A,R1
   \   0000A3   F9           MOV     R1,A
   \   0000A4   7402         MOV     A,#0x2
   \   0000A6   12....       LCALL   ?XSTACK_DISP0_8
   \   0000A9   12....       LCALL   ??Subroutine121_0 & 0xFFFF
   \                     ??CrossCallReturnLabel_202:
   \   0000AC   12....       LCALL   ??Subroutine123_0 & 0xFFFF
    747              ContentStore[temp].interestName.DataFlag=data.interestName.DataFlag;	
   \                     ??CrossCallReturnLabel_210:
   \   0000AF   7404         MOV     A,#0x4
   \   0000B1   12....       LCALL   ?XSTACK_DISP0_8
   \   0000B4   12....       LCALL   ??Subroutine121_0 & 0xFFFF
   \                     ??CrossCallReturnLabel_203:
   \   0000B7   12....       LCALL   ??Subroutine122_0 & 0xFFFF
    748              ContentStore[temp].interestName.PackageCounter=data.interestName.PackageCounter;	
   \                     ??CrossCallReturnLabel_213:
   \   0000BA   7406         MOV     A,#0x6
   \   0000BC   12....       LCALL   ?XSTACK_DISP0_8
   \   0000BF   12....       LCALL   ?Subroutine31 & 0xFFFF
    749              //CS存储其他内容
    750              ContentStore[temp].PackageAll=data.PackageAll;	
   \                     ??CrossCallReturnLabel_215:
   \   0000C2   7408         MOV     A,#0x8
   \   0000C4   12....       LCALL   ?XSTACK_DISP0_8
   \   0000C7   12....       LCALL   ?Subroutine51 & 0xFFFF
   \                     ??CrossCallReturnLabel_84:
   \   0000CA   12....       LCALL   ??Subroutine138_0 & 0xFFFF
    751              ContentStore[temp].PackageSeg=data.PackageSeg;	
   \                     ??CrossCallReturnLabel_295:
   \   0000CD   7409         MOV     A,#0x9
   \   0000CF   12....       LCALL   ?XSTACK_DISP0_8
   \   0000D2   12....       LCALL   ?Subroutine44 & 0xFFFF
   \                     ??CrossCallReturnLabel_76:
   \   0000D5   12....       LCALL   ??Subroutine138_0 & 0xFFFF
    752              ContentStore[temp].Data=data.Data;	
   \                     ??CrossCallReturnLabel_296:
   \   0000D8   740A         MOV     A,#0xa
   \   0000DA   12....       LCALL   ?XSTACK_DISP0_8
   \   0000DD   12....       LCALL   ?Subroutine18 & 0xFFFF
    753              ContentStore[temp].number=0;
    754            }
   \                     ??CrossCallReturnLabel_24:
   \   0000E0   F0           MOVX    @DPTR,A
    755          }
   \   0000E1                REQUIRE ?Subroutine2
   \   0000E1                ; // Fall through to label ?Subroutine2

   \                                 In  segment BANKED_CODE, align 1, keep-with-next
   \                     ?Subroutine2:
   \   000000   D083         POP     DPH
   \   000002   D082         POP     DPL
   \   000004   02....       LJMP    ?BRET

   \                                 In  segment BANKED_CODE, align 1, keep-with-next
   \                     ?Subroutine51:
   \   000000   12....       LCALL   ?Subroutine85 & 0xFFFF
   \                     ??CrossCallReturnLabel_135:
   \   000003   22           RET

   \                                 In  segment BANKED_CODE, align 1, keep-with-next
   \                     ?Subroutine85:
   \   000000   E0           MOVX    A,@DPTR
   \   000001   8882         MOV     DPL,R0
   \   000003   8983         MOV     DPH,R1
   \   000005   A3           INC     DPTR
   \   000006   A3           INC     DPTR
   \   000007   A3           INC     DPTR
   \   000008   A3           INC     DPTR
   \   000009   A3           INC     DPTR
   \   00000A   A3           INC     DPTR
   \   00000B   22           RET

   \                                 In  segment BANKED_CODE, align 1, keep-with-next
   \                     ?Subroutine44:
   \   000000   12....       LCALL   ?Subroutine85 & 0xFFFF
   \                     ??CrossCallReturnLabel_134:
   \   000003   A3           INC     DPTR
   \   000004   A3           INC     DPTR
   \   000005   22           RET

   \                                 In  segment BANKED_CODE, align 1, keep-with-next
   \                     ?Subroutine18:
   \   000000   12....       LCALL   ?Subroutine78 & 0xFFFF
   \                     ??CrossCallReturnLabel_126:
   \   000003   A3           INC     DPTR
   \   000004   A3           INC     DPTR
   \   000005   A3           INC     DPTR
   \   000006   A3           INC     DPTR
   \   000007   A3           INC     DPTR
   \   000008   A3           INC     DPTR
   \   000009   12....       LCALL   ??Subroutine142_0 & 0xFFFF
   \                     ??CrossCallReturnLabel_313:
   \   00000C   240C         ADD     A,#0xc
   \   00000E   12....       LCALL   ??Subroutine139_0 & 0xFFFF
   \                     ??CrossCallReturnLabel_307:
   \   000011   22           RET

   \                                 In  segment BANKED_CODE, align 1, keep-with-next
   \                     ?Subroutine61:
   \   000000   E8           MOV     A,R0
   \   000001   FA           MOV     R2,A
   \   000002   E9           MOV     A,R1
   \   000003   FB           MOV     R3,A
   \   000004   EA           MOV     A,R2
   \   000005   75F00E       MOV     B,#0xe
   \   000008   A4           MUL     AB
   \   000009   FA           MOV     R2,A
   \   00000A   ACF0         MOV     R4,B
   \   00000C   75F00E       MOV     B,#0xe
   \   00000F   EB           MOV     A,R3
   \   000010   A4           MUL     AB
   \   000011   2C           ADD     A,R4
   \   000012                REQUIRE ??Subroutine119_0
   \   000012                ; // Fall through to label ??Subroutine119_0

   \                                 In  segment BANKED_CODE, align 1, keep-with-next
   \                     ??Subroutine119_0:
   \   000000   FB           MOV     R3,A
   \   000001                REQUIRE ??Subroutine120_0
   \   000001                ; // Fall through to label ??Subroutine120_0

   \                                 In  segment BANKED_CODE, align 1, keep-with-next
   \                     ??Subroutine120_0:
   \   000000   74..         MOV     A,#(ContentStore + 12) & 0xff
   \   000002   2A           ADD     A,R2
   \   000003   F582         MOV     DPL,A
   \   000005   74..         MOV     A,#((ContentStore + 12) >> 8) & 0xff
   \   000007   3B           ADDC    A,R3
   \   000008   F583         MOV     DPH,A
   \   00000A   22           RET

   \                                 In  segment BANKED_CODE, align 1, keep-with-next
   \                     ??Subroutine121_0:
   \   000000   12....       LCALL   ??Subroutine132_0 & 0xFFFF
   \                     ??CrossCallReturnLabel_263:
   \   000003   22           RET

   \                                 In  segment BANKED_CODE, align 1, keep-with-next
   \                     ?Subroutine38:
   \   000000   12....       LCALL   ?Subroutine82 & 0xFFFF
   \                     ??CrossCallReturnLabel_273:
   \   000003   12....       LCALL   ?Subroutine96 & 0xFFFF
   \                     ??CrossCallReturnLabel_145:
   \   000006   39           ADDC    A,R1
   \   000007   F9           MOV     R1,A
   \   000008   22           RET

   \                                 In  segment BANKED_CODE, align 1, keep-with-next
   \                     ?Subroutine31:
   \   000000   12....       LCALL   ??Subroutine136_0 & 0xFFFF
   \                     ??CrossCallReturnLabel_280:
   \   000003                REQUIRE ??Subroutine122_0
   \   000003                ; // Fall through to label ??Subroutine122_0

   \                                 In  segment BANKED_CODE, align 1, keep-with-next
   \                     ??Subroutine122_0:
   \   000000   A3           INC     DPTR
   \   000001   A3           INC     DPTR
   \   000002                REQUIRE ??Subroutine123_0
   \   000002                ; // Fall through to label ??Subroutine123_0

   \                                 In  segment BANKED_CODE, align 1, keep-with-next
   \                     ??Subroutine123_0:
   \   000000   12....       LCALL   ?Subroutine99 & 0xFFFF
   \                     ??CrossCallReturnLabel_324:
   \   000003   22           RET

   \                                 In  segment BANKED_CODE, align 1, keep-with-next
   \                     ?Subroutine99:
   \   000000   EA           MOV     A,R2
   \   000001   F0           MOVX    @DPTR,A
   \   000002   A3           INC     DPTR
   \   000003   EB           MOV     A,R3
   \   000004   F0           MOVX    @DPTR,A
   \   000005   22           RET

   \                                 In  segment BANKED_CODE, align 1, keep-with-next
   \                     ?Subroutine41:
   \   000000   C3           CLR     C
   \   000001   E0           MOVX    A,@DPTR
   \   000002   940A         SUBB    A,#0xa
   \   000004   12....       LCALL   ?Subroutine88 & 0xFFFF
   \                     ??CrossCallReturnLabel_255:
   \   000007   22           RET

   \                                 In  segment BANKED_CODE, align 1, keep-with-next
   \                     ?Subroutine87:
   \   000000   C3           CLR     C
   \   000001   E0           MOVX    A,@DPTR
   \   000002   9A           SUBB    A,R2
   \   000003   A3           INC     DPTR
   \   000004   E0           MOVX    A,@DPTR
   \   000005   9B           SUBB    A,R3
   \   000006   22           RET

   \                                 In  segment BANKED_CODE, align 1, keep-with-next
   \                     ?Subroutine78:
   \   000000   12....       LCALL   ?Subroutine101 & 0xFFFF
   \                     ??CrossCallReturnLabel_285:
   \   000003   A3           INC     DPTR
   \   000004   A3           INC     DPTR
   \   000005   22           RET

   \                                 In  segment BANKED_CODE, align 1, keep-with-next
   \                     ?Subroutine88:
   \   000000   A3           INC     DPTR
   \   000001   E0           MOVX    A,@DPTR
   \   000002   9400         SUBB    A,#0x0
   \   000004   A2D2         MOV     C,0xD0 /* PSW */.2
   \   000006   65D0         XRL     A,PSW
   \   000008   33           RLC     A
   \   000009   22           RET

   \                                 In  segment BANKED_CODE, align 1, keep-with-next
   \                     ??Subroutine132_0:
   \   000000   12....       LCALL   ?Subroutine103 & 0xFFFF
   \                     ??CrossCallReturnLabel_265:
   \   000003   22           RET

   \                                 In  segment BANKED_CODE, align 1, keep-with-next
   \                     ?Subroutine103:
   \   000000   12....       LCALL   ?Subroutine109 & 0xFFFF
   \                     ??CrossCallReturnLabel_287:
   \   000003   22           RET

   \                                 In  segment BANKED_CODE, align 1, keep-with-next
   \                     ?Subroutine109:
   \   000000   E0           MOVX    A,@DPTR
   \   000001   FA           MOV     R2,A
   \   000002   A3           INC     DPTR
   \   000003   E0           MOVX    A,@DPTR
   \   000004   FB           MOV     R3,A
   \   000005   8882         MOV     DPL,R0
   \   000007   8983         MOV     DPH,R1
   \   000009   22           RET

   \                                 In  segment BANKED_CODE, align 1, keep-with-next
   \                     ??Subroutine136_0:
   \   000000   12....       LCALL   ?Subroutine101 & 0xFFFF
   \                     ??CrossCallReturnLabel_286:
   \   000003   22           RET

   \                                 In  segment BANKED_CODE, align 1, keep-with-next
   \                     ??Subroutine139_0:
   \   000000   12....       LCALL   ?Subroutine106 & 0xFFFF
   \                     ??CrossCallReturnLabel_359:
   \   000003   E4           CLR     A
   \   000004   F0           MOVX    @DPTR,A
   \   000005   A3           INC     DPTR
   \   000006   22           RET

   \                                 In  segment BANKED_CODE, align 1, keep-with-next
   \                     ?Subroutine106:
   \   000000   F582         MOV     DPL,A
   \   000002   E9           MOV     A,R1
   \   000003                REQUIRE ??Subroutine140_0
   \   000003                ; // Fall through to label ??Subroutine140_0

   \                                 In  segment BANKED_CODE, align 1, keep-with-next
   \                     ??Subroutine142_0:
   \   000000   12....       LCALL   ?Subroutine99 & 0xFFFF
   \                     ??CrossCallReturnLabel_325:
   \   000003   E8           MOV     A,R0
   \   000004   22           RET

   \                                 In  segment BANKED_CODE, align 1, keep-with-next
   \                     ?Subroutine101:
   \   000000   12....       LCALL   ?Subroutine109 & 0xFFFF
   \                     ??CrossCallReturnLabel_288:
   \   000003   A3           INC     DPTR
   \   000004   A3           INC     DPTR
   \   000005   22           RET
    756          
    757          //查找CS表

   \                                 In  segment BANKED_CODE, align 1, keep-with-next
    758          int ContentStoreFinder(Interest interest)
   \                     ContentStoreFinder:
    759          {
   \   000000   74F7         MOV     A,#-0x9
   \   000002   12....       LCALL   ?BANKED_ENTER_XDATA
   \   000005                ; Saved register size: 9
   \   000005                ; Auto size: 0
    760            //Interst包中InterestName临时进行存储
    761            tempInterName.DestinationID=interest.interestName.DestinationID;
   \   000005   740B         MOV     A,#0xb
   \   000007   12....       LCALL   ?XSTACK_DISP0_8
   \   00000A   12....       LCALL   ?Subroutine30 & 0xFFFF
    762            tempInterName.DataFlag=interest.interestName.DataFlag;	
   \                     ??CrossCallReturnLabel_48:
   \   00000D   12....       LCALL   ?XSTACK_DISP0_8
   \   000010   12....       LCALL   ?Subroutine32 & 0xFFFF
    763            tempInterName.PackageCounter=interest.interestName.PackageCounter;
   \                     ??CrossCallReturnLabel_51:
   \   000013   12....       LCALL   ?XSTACK_DISP0_8
   \   000016   12....       LCALL   ?Subroutine20 & 0xFFFF
    764            for(temp_i=0;temp_i<CScounter;)
   \                     ??CrossCallReturnLabel_27:
   \   000019   8003         SJMP    ??CrossCallReturnLabel_231
    765            {
    766              temp_j=0;		
    767              if(tempInterName.DestinationID==ContentStore[temp_i].interestName.DestinationID)	
    768              {		
    769                ++temp_j;	
    770              }	
    771              if(tempInterName.DataFlag==ContentStore[temp_i].interestName.DataFlag)	
    772              {		
    773                ++temp_j;	
    774              }	
    775              if(tempInterName.PackageCounter==ContentStore[temp_i].interestName.PackageCounter)	
    776              {		
    777                ++temp_j;	
    778              }		
    779              if(temp_j==3)	
    780              {		
    781                return temp_i;	
    782              }
    783              temp_i++;
   \                     ??ContentStoreFinder_0:
   \   00001B   12....       LCALL   ??Subroutine129_0 & 0xFFFF
   \                     ??CrossCallReturnLabel_231:
   \   00001E   12....       LCALL   ?Subroutine17 & 0xFFFF
   \                     ??CrossCallReturnLabel_21:
   \   000021   5040         JNC     ??ContentStoreFinder_1
   \   000023   12....       LCALL   ?Subroutine25 & 0xFFFF
   \                     ??CrossCallReturnLabel_36:
   \   000026   12....       LCALL   ?Subroutine63 & 0xFFFF
   \                     ??CrossCallReturnLabel_100:
   \   000029   12....       LCALL   ?Subroutine47 & 0xFFFF
   \                     ??CrossCallReturnLabel_79:
   \   00002C   7003         JNZ     ??ContentStoreFinder_2
   \   00002E   A3           INC     DPTR
   \   00002F   E0           MOVX    A,@DPTR
   \   000030   6B           XRL     A,R3
   \                     ??ContentStoreFinder_2:
   \   000031   7003         JNZ     ??CrossCallReturnLabel_303
   \   000033   12....       LCALL   ?Subroutine27 & 0xFFFF
   \                     ??CrossCallReturnLabel_303:
   \   000036   8882         MOV     DPL,R0
   \   000038   8983         MOV     DPH,R1
   \   00003A   A3           INC     DPTR
   \   00003B   A3           INC     DPTR
   \   00003C   E0           MOVX    A,@DPTR
   \   00003D   6E           XRL     A,R6
   \   00003E   7003         JNZ     ??ContentStoreFinder_3
   \   000040   A3           INC     DPTR
   \   000041   E0           MOVX    A,@DPTR
   \   000042   6F           XRL     A,R7
   \                     ??ContentStoreFinder_3:
   \   000043   7003         JNZ     ??CrossCallReturnLabel_189
   \   000045   12....       LCALL   ?Subroutine15 & 0xFFFF
   \                     ??CrossCallReturnLabel_189:
   \   000048   8882         MOV     DPL,R0
   \   00004A   8983         MOV     DPH,R1
   \   00004C   A3           INC     DPTR
   \   00004D   A3           INC     DPTR
   \   00004E   A3           INC     DPTR
   \   00004F   A3           INC     DPTR
   \   000050   E0           MOVX    A,@DPTR
   \   000051   6C           XRL     A,R4
   \   000052   7003         JNZ     ??ContentStoreFinder_4
   \   000054   A3           INC     DPTR
   \   000055   E0           MOVX    A,@DPTR
   \   000056   6D           XRL     A,R5
   \                     ??ContentStoreFinder_4:
   \   000057   7003         JNZ     ??CrossCallReturnLabel_190
   \   000059   12....       LCALL   ?Subroutine15 & 0xFFFF
   \                     ??CrossCallReturnLabel_190:
   \   00005C   12....       LCALL   ?Subroutine55 & 0xFFFF
   \                     ??CrossCallReturnLabel_90:
   \   00005F   70BA         JNZ     ??ContentStoreFinder_0
   \   000061   8003         SJMP    ??ContentStoreFinder_5
    784            }
    785            //如果temp_i不为CScounter则查找成功，否则查找失败
    786            return CScounter;
   \                     ??ContentStoreFinder_1:
   \   000063   90....       MOV     DPTR,#CScounter
   \                     ??ContentStoreFinder_5:
   \   000066                REQUIRE ?Subroutine5
   \   000066                ; // Fall through to label ?Subroutine5
    787          }

   \                                 In  segment BANKED_CODE, align 1, keep-with-next
   \                     ?Subroutine5:
   \   000000   12....       LCALL   ??Subroutine117_0 & 0xFFFF
   \                     ??CrossCallReturnLabel_181:
   \   000003   02....       LJMP    ??Subroutine146_0 & 0xFFFF

   \                                 In  segment BANKED_CODE, align 1, keep-with-next
   \                     ?Subroutine15:
   \   000000   90....       MOV     DPTR,#temp_j
   \   000003                REQUIRE ??Subroutine118_0
   \   000003                ; // Fall through to label ??Subroutine118_0

   \                                 In  segment BANKED_CODE, align 1, keep-with-next
   \                     ?Subroutine17:
   \   000000   F0           MOVX    @DPTR,A
   \   000001   90....       MOV     DPTR,#CScounter
   \   000004   12....       LCALL   ?Subroutine77 & 0xFFFF
   \                     ??CrossCallReturnLabel_124:
   \   000007   22           RET

   \                                 In  segment BANKED_CODE, align 1, keep-with-next
   \                     ?Subroutine55:
   \   000000   90....       MOV     DPTR,#temp_j
   \   000003   E0           MOVX    A,@DPTR
   \   000004   6403         XRL     A,#0x3
   \   000006   90....       MOV     DPTR,#temp_i
   \   000009   22           RET

   \                                 In  segment BANKED_CODE, align 1, keep-with-next
   \                     ?Subroutine32:
   \   000000   E0           MOVX    A,@DPTR
   \   000001   FE           MOV     R6,A
   \   000002   A3           INC     DPTR
   \   000003   E0           MOVX    A,@DPTR
   \   000004   FF           MOV     R7,A
   \   000005   90....       MOV     DPTR,#tempInterName + 2
   \   000008   EE           MOV     A,R6
   \   000009   F0           MOVX    @DPTR,A
   \   00000A   A3           INC     DPTR
   \   00000B   EF           MOV     A,R7
   \   00000C   F0           MOVX    @DPTR,A
   \   00000D   740F         MOV     A,#0xf
   \   00000F   22           RET

   \                                 In  segment BANKED_CODE, align 1, keep-with-next
   \                     ?Subroutine30:
   \   000000   12....       LCALL   ?Subroutine86 & 0xFFFF
   \                     ??CrossCallReturnLabel_344:
   \   000003   90....       MOV     DPTR,#tempInterName
   \   000006   E8           MOV     A,R0
   \   000007   F0           MOVX    @DPTR,A
   \   000008   A3           INC     DPTR
   \   000009   E9           MOV     A,R1
   \   00000A   F0           MOVX    @DPTR,A
   \   00000B   740D         MOV     A,#0xd
   \   00000D   22           RET

   \                                 In  segment BANKED_CODE, align 1, keep-with-next
   \                     ?Subroutine20:
   \   000000   E0           MOVX    A,@DPTR
   \   000001   FC           MOV     R4,A
   \   000002   A3           INC     DPTR
   \   000003   E0           MOVX    A,@DPTR
   \   000004   FD           MOV     R5,A
   \   000005   90....       MOV     DPTR,#tempInterName + 4
   \   000008   EC           MOV     A,R4
   \   000009   F0           MOVX    @DPTR,A
   \   00000A   A3           INC     DPTR
   \   00000B   ED           MOV     A,R5
   \   00000C   F0           MOVX    @DPTR,A
   \   00000D   90....       MOV     DPTR,#temp_i
   \   000010   E4           CLR     A
   \   000011   F0           MOVX    @DPTR,A
   \   000012   A3           INC     DPTR
   \   000013   22           RET

   \                                 In  segment BANKED_CODE, align 1, keep-with-next
   \                     ?Subroutine77:
   \   000000   E0           MOVX    A,@DPTR
   \   000001   F8           MOV     R0,A
   \   000002   A3           INC     DPTR
   \   000003   E0           MOVX    A,@DPTR
   \   000004   F9           MOV     R1,A
   \   000005   7583..       MOV     DPH,#(temp_i >> 8) & 0xff
   \   000008   7582..       MOV     DPL,#temp_i & 0xff
   \   00000B   C3           CLR     C
   \   00000C   E0           MOVX    A,@DPTR
   \   00000D   98           SUBB    A,R0
   \   00000E   A3           INC     DPTR
   \   00000F   E0           MOVX    A,@DPTR
   \   000010   99           SUBB    A,R1
   \   000011   A2D2         MOV     C,0xD0 /* PSW */.2
   \   000013   65D0         XRL     A,PSW
   \   000015   33           RLC     A
   \   000016   22           RET

   \                                 In  segment BANKED_CODE, align 1, keep-with-next
   \                     ?Subroutine47:
   \   000000   12....       LCALL   ?Subroutine83 & 0xFFFF
   \                     ??CrossCallReturnLabel_133:
   \   000003   22           RET

   \                                 In  segment BANKED_CODE, align 1, keep-with-next
   \                     ?Subroutine83:
   \   000000   39           ADDC    A,R1
   \   000001   F9           MOV     R1,A
   \   000002   90....       MOV     DPTR,#tempInterName
   \   000005   12....       LCALL   ?Subroutine103 & 0xFFFF
   \                     ??CrossCallReturnLabel_264:
   \   000008   E0           MOVX    A,@DPTR
   \   000009   6A           XRL     A,R2
   \   00000A   22           RET

   \                                 In  segment BANKED_CODE, align 1, keep-with-next
   \                     ?Subroutine25:
   \   000000   12....       LCALL   ?Subroutine72 & 0xFFFF
   \                     ??CrossCallReturnLabel_115:
   \   000003   22           RET

   \                                 In  segment BANKED_CODE, align 1, keep-with-next
   \                     ?Subroutine72:
   \   000000   90....       MOV     DPTR,#temp_j
   \   000003   E4           CLR     A
   \   000004   F0           MOVX    @DPTR,A
   \   000005   A3           INC     DPTR
   \   000006   F0           MOVX    @DPTR,A
   \   000007   12....       LCALL   ?Subroutine105 & 0xFFFF
   \                     ??CrossCallReturnLabel_276:
   \   00000A   22           RET

   \                                 In  segment BANKED_CODE, align 1, keep-with-next
   \                     ?Subroutine105:
   \   000000   90....       MOV     DPTR,#temp_i
   \   000003                REQUIRE ??Subroutine133_0
   \   000003                ; // Fall through to label ??Subroutine133_0

   \                                 In  segment BANKED_CODE, align 1, keep-with-next
   \                     ?Subroutine27:
   \   000000   90....       MOV     DPTR,#temp_j
   \   000003                REQUIRE ??Subroutine137_0
   \   000003                ; // Fall through to label ??Subroutine137_0

   \                                 In  segment BANKED_CODE, align 1, keep-with-next
   \                     ??Subroutine146_0:
   \   000000   7F01         MOV     R7,#0x1
   \   000002   02....       LJMP    ?BANKED_LEAVE_XDATA
    788          //从CS表中根据time删除使用次数最少的数据

   \                                 In  segment BANKED_CODE, align 1, keep-with-next
    789          void DeleteItemCS(void)
   \                     DeleteItemCS:
    790          {
   \   000000   74F7         MOV     A,#-0x9
   \   000002   12....       LCALL   ?BANKED_ENTER_XDATA
   \   000005                ; Saved register size: 9
   \   000005                ; Auto size: 0
    791            int temp;
    792            temp=0;
   \   000005   7800         MOV     R0,#0x0
   \   000007   7900         MOV     R1,#0x0
    793            for(temp_i=0;temp_i<CScounter;++temp_i)
   \   000009   90....       MOV     DPTR,#temp_i
   \   00000C   E4           CLR     A
   \   00000D   F0           MOVX    @DPTR,A
   \   00000E   A3           INC     DPTR
   \   00000F   8025         SJMP    ??CrossCallReturnLabel_237
    794            {	
    795              if(ContentStore[temp].number>ContentStore[temp_i].number)	
   \                     ??DeleteItemCS_0:
   \   000011   90....       MOV     DPTR,#temp_i
   \   000014   12....       LCALL   ??Subroutine117_0 & 0xFFFF
   \                     ??CrossCallReturnLabel_177:
   \   000017   EA           MOV     A,R2
   \   000018   75F00E       MOV     B,#0xe
   \   00001B   A4           MUL     AB
   \   00001C   FA           MOV     R2,A
   \   00001D   AEF0         MOV     R6,B
   \   00001F   75F00E       MOV     B,#0xe
   \   000022   EB           MOV     A,R3
   \   000023   A4           MUL     AB
   \   000024   2E           ADD     A,R6
   \   000025   12....       LCALL   ??Subroutine119_0 & 0xFFFF
   \                     ??CrossCallReturnLabel_197:
   \   000028   C3           CLR     C
   \   000029   E0           MOVX    A,@DPTR
   \   00002A   9C           SUBB    A,R4
   \   00002B   A3           INC     DPTR
   \   00002C   E0           MOVX    A,@DPTR
   \   00002D   9D           SUBB    A,R5
   \   00002E   5003         JNC     ??CrossCallReturnLabel_341
    796              {		
    797                temp=temp_i;	
   \   000030   12....       LCALL   ?Subroutine54 & 0xFFFF
    798              }
    799            }
   \                     ??CrossCallReturnLabel_341:
   \   000033   12....       LCALL   ?Subroutine16 & 0xFFFF
   \                     ??CrossCallReturnLabel_237:
   \   000036   F0           MOVX    @DPTR,A
   \   000037   12....       LCALL   ?Subroutine61 & 0xFFFF
   \                     ??CrossCallReturnLabel_199:
   \   00003A   12....       LCALL   ??Subroutine149_0 & 0xFFFF
   \                     ??CrossCallReturnLabel_363:
   \   00003D   90....       MOV     DPTR,#CScounter
   \   000040   12....       LCALL   ??Subroutine128_0 & 0xFFFF
   \                     ??CrossCallReturnLabel_222:
   \   000043   40CC         JC      ??DeleteItemCS_0
    800            if(ContentStore[temp].number<2 && temp<CScounter-1)
   \   000045   90....       MOV     DPTR,#CScounter
   \   000048   12....       LCALL   ?Subroutine52 & 0xFFFF
   \                     ??CrossCallReturnLabel_85:
   \   00004B   EC           MOV     A,R4
   \   00004C   9402         SUBB    A,#0x2
   \   00004E   ED           MOV     A,R5
   \   00004F   9400         SUBB    A,#0x0
   \   000051   5074         JNC     ??DeleteItemCS_1
   \   000053   C3           CLR     C
   \   000054   12....       LCALL   ?Subroutine68 & 0xFFFF
   \                     ??CrossCallReturnLabel_108:
   \   000057   506E         JNC     ??DeleteItemCS_1
    801            {	
    802              for(temp_i=temp;temp_i<CScounter;++temp_i)	
   \   000059   90....       MOV     DPTR,#temp_i
   \   00005C   E8           MOV     A,R0
   \   00005D   F0           MOVX    @DPTR,A
   \   00005E   A3           INC     DPTR
   \   00005F   E9           MOV     A,R1
   \   000060   8057         SJMP    ??CrossCallReturnLabel_238
    803              {		
    804                ContentStore[temp_i].interestName.DestinationID=ContentStore[temp_i+1].interestName.DestinationID;		
   \                     ??DeleteItemCS_2:
   \   000062   90....       MOV     DPTR,#temp_i
   \   000065   12....       LCALL   ?Subroutine38 & 0xFFFF
    805                ContentStore[temp_i].interestName.DataFlag=ContentStore[temp_i+1].interestName.DataFlag;		
    806                ContentStore[temp_i].interestName.PackageCounter=ContentStore[temp_i+1].interestName.PackageCounter;		
    807                ContentStore[temp_i].PackageAll=ContentStore[temp_i+1].PackageAll;		
    808                ContentStore[temp_i].PackageSeg=ContentStore[temp_i+1].PackageSeg;		
    809                ContentStore[temp_i].Data=ContentStore[temp_i+1].Data;		
    810                ContentStore[temp_i].number=ContentStore[temp_i+1].number;	
    811              }	
   \                     ??CrossCallReturnLabel_65:
   \   000068   E8           MOV     A,R0
   \   000069   240E         ADD     A,#0xe
   \   00006B   12....       LCALL   ?Subroutine49 & 0xFFFF
   \                     ??CrossCallReturnLabel_204:
   \   00006E   12....       LCALL   ??Subroutine127_0 & 0xFFFF
   \                     ??CrossCallReturnLabel_221:
   \   000071   2410         ADD     A,#0x10
   \   000073   12....       LCALL   ?Subroutine49 & 0xFFFF
   \                     ??CrossCallReturnLabel_205:
   \   000076   12....       LCALL   ??Subroutine126_0 & 0xFFFF
   \                     ??CrossCallReturnLabel_220:
   \   000079   2412         ADD     A,#0x12
   \   00007B   12....       LCALL   ?Subroutine49 & 0xFFFF
   \                     ??CrossCallReturnLabel_206:
   \   00007E   12....       LCALL   ??Subroutine125_0 & 0xFFFF
   \                     ??CrossCallReturnLabel_219:
   \   000081   2414         ADD     A,#0x14
   \   000083   12....       LCALL   ?Subroutine49 & 0xFFFF
   \                     ??CrossCallReturnLabel_207:
   \   000086   12....       LCALL   ??Subroutine124_0 & 0xFFFF
   \                     ??CrossCallReturnLabel_218:
   \   000089   2416         ADD     A,#0x16
   \   00008B   12....       LCALL   ?Subroutine49 & 0xFFFF
   \                     ??CrossCallReturnLabel_208:
   \   00008E   12....       LCALL   ?Subroutine23 & 0xFFFF
   \                     ??CrossCallReturnLabel_216:
   \   000091   2418         ADD     A,#0x18
   \   000093   F582         MOV     DPL,A
   \   000095   E9           MOV     A,R1
   \   000096   12....       LCALL   ??Subroutine112_0 & 0xFFFF
   \                     ??CrossCallReturnLabel_163:
   \   000099   12....       LCALL   ?Subroutine48 & 0xFFFF
   \                     ??CrossCallReturnLabel_81:
   \   00009C   12....       LCALL   ?Subroutine23 & 0xFFFF
   \                     ??CrossCallReturnLabel_217:
   \   00009F   241A         ADD     A,#0x1a
   \   0000A1   F582         MOV     DPL,A
   \   0000A3   E9           MOV     A,R1
   \   0000A4   12....       LCALL   ??Subroutine112_0 & 0xFFFF
   \                     ??CrossCallReturnLabel_164:
   \   0000A7   12....       LCALL   ??Subroutine117_0 & 0xFFFF
   \                     ??CrossCallReturnLabel_178:
   \   0000AA   E8           MOV     A,R0
   \   0000AB   240C         ADD     A,#0xc
   \   0000AD   F582         MOV     DPL,A
   \   0000AF   E9           MOV     A,R1
   \   0000B0   12....       LCALL   ??Subroutine112_0 & 0xFFFF
   \                     ??CrossCallReturnLabel_165:
   \   0000B3   12....       LCALL   ??Subroutine123_0 & 0xFFFF
   \                     ??CrossCallReturnLabel_211:
   \   0000B6   12....       LCALL   ?Subroutine16 & 0xFFFF
   \                     ??CrossCallReturnLabel_238:
   \   0000B9   12....       LCALL   ?Subroutine17 & 0xFFFF
   \                     ??CrossCallReturnLabel_22:
   \   0000BC   40A4         JC      ??DeleteItemCS_2
    812              CScounter--;
   \                     ??DeleteItemCS_3:
   \   0000BE   90....       MOV     DPTR,#CScounter
   \   0000C1   12....       LCALL   ?Subroutine57 & 0xFFFF
    813            }
   \                     ??CrossCallReturnLabel_330:
   \   0000C4   F0           MOVX    @DPTR,A
   \   0000C5   8011         SJMP    ??DeleteItemCS_4
    814            else if(ContentStore[temp].number<2 && temp==CScounter-1)
   \                     ??DeleteItemCS_1:
   \   0000C7   C3           CLR     C
   \   0000C8   EC           MOV     A,R4
   \   0000C9   9402         SUBB    A,#0x2
   \   0000CB   ED           MOV     A,R5
   \   0000CC   9400         SUBB    A,#0x0
   \   0000CE   5008         JNC     ??DeleteItemCS_4
   \   0000D0   EA           MOV     A,R2
   \   0000D1   68           XRL     A,R0
   \   0000D2   7002         JNZ     ??DeleteItemCS_5
   \   0000D4   EB           MOV     A,R3
   \   0000D5   69           XRL     A,R1
   \                     ??DeleteItemCS_5:
   \   0000D6   60E6         JZ      ??DeleteItemCS_3
    815            {	
    816              CScounter--;
    817            }
    818          }
   \                     ??DeleteItemCS_4:
   \   0000D8   02....       LJMP    ??Subroutine146_0 & 0xFFFF

   \                                 In  segment BANKED_CODE, align 1, keep-with-next
   \                     ?Subroutine49:
   \   000000   12....       LCALL   ?Subroutine92 & 0xFFFF
   \                     ??CrossCallReturnLabel_351:
   \   000003                REQUIRE ??Subroutine121_0
   \   000003                ; // Fall through to label ??Subroutine121_0

   \                                 In  segment BANKED_CODE, align 1, keep-with-next
   \                     ?Subroutine23:
   \   000000   A3           INC     DPTR
   \   000001   A3           INC     DPTR
   \   000002                REQUIRE ??Subroutine124_0
   \   000002                ; // Fall through to label ??Subroutine124_0

   \                                 In  segment BANKED_CODE, align 1, keep-with-next
   \                     ??Subroutine124_0:
   \   000000   A3           INC     DPTR
   \   000001   A3           INC     DPTR
   \   000002                REQUIRE ??Subroutine125_0
   \   000002                ; // Fall through to label ??Subroutine125_0

   \                                 In  segment BANKED_CODE, align 1, keep-with-next
   \                     ??Subroutine125_0:
   \   000000   A3           INC     DPTR
   \   000001   A3           INC     DPTR
   \   000002                REQUIRE ??Subroutine126_0
   \   000002                ; // Fall through to label ??Subroutine126_0

   \                                 In  segment BANKED_CODE, align 1, keep-with-next
   \                     ??Subroutine126_0:
   \   000000   A3           INC     DPTR
   \   000001   A3           INC     DPTR
   \   000002                REQUIRE ??Subroutine127_0
   \   000002                ; // Fall through to label ??Subroutine127_0

   \                                 In  segment BANKED_CODE, align 1, keep-with-next
   \                     ??Subroutine127_0:
   \   000000   12....       LCALL   ??Subroutine142_0 & 0xFFFF
   \                     ??CrossCallReturnLabel_314:
   \   000003   22           RET

   \                                 In  segment BANKED_CODE, align 1, keep-with-next
   \                     ??Subroutine128_0:
   \   000000   12....       LCALL   ??Subroutine130_0 & 0xFFFF
   \                     ??CrossCallReturnLabel_247:
   \   000003   7583..       MOV     DPH,#(temp_i >> 8) & 0xff
   \   000006   7582..       MOV     DPL,#temp_i & 0xff
   \   000009   12....       LCALL   ?Subroutine87 & 0xFFFF
   \                     ??CrossCallReturnLabel_228:
   \   00000C   A2D2         MOV     C,0xD0 /* PSW */.2
   \   00000E   65D0         XRL     A,PSW
   \   000010   33           RLC     A
   \   000011   22           RET

   \                                 In  segment BANKED_CODE, align 1, keep-with-next
   \                     ?Subroutine16:
   \   000000   90....       MOV     DPTR,#temp_i
   \   000003                REQUIRE ??Subroutine129_0
   \   000003                ; // Fall through to label ??Subroutine129_0

   \                                 In  segment BANKED_CODE, align 1, keep-with-next
   \                     ?Subroutine68:
   \   000000   E8           MOV     A,R0
   \   000001   9A           SUBB    A,R2
   \   000002   E9           MOV     A,R1
   \   000003   9B           SUBB    A,R3
   \   000004   A2D2         MOV     C,0xD0 /* PSW */.2
   \   000006   65D0         XRL     A,PSW
   \   000008   33           RLC     A
   \   000009   22           RET

   \                                 In  segment BANKED_CODE, align 1, keep-with-next
   \                     ?Subroutine52:
   \   000000   E0           MOVX    A,@DPTR
   \   000001   24FF         ADD     A,#-0x1
   \   000003   1A           DEC     R2
   \   000004   A3           INC     DPTR
   \   000005   E0           MOVX    A,@DPTR
   \   000006   34FF         ADDC    A,#-0x1
   \   000008   FB           MOV     R3,A
   \   000009   C3           CLR     C
   \   00000A   22           RET

   \                                 In  segment BANKED_CODE, align 1, keep-with-next
   \                     ?Subroutine48:
   \   000000   12....       LCALL   ??Subroutine136_0 & 0xFFFF
   \                     ??CrossCallReturnLabel_281:
   \   000003   22           RET

   \                                 In  segment BANKED_CODE, align 1, keep-with-next
   \                     ?Subroutine57:
   \   000000   E0           MOVX    A,@DPTR
   \   000001   24FF         ADD     A,#-0x1
   \   000003   F0           MOVX    @DPTR,A
   \   000004   A3           INC     DPTR
   \   000005   E0           MOVX    A,@DPTR
   \   000006   34FF         ADDC    A,#-0x1
   \   000008   22           RET

   \                                 In  segment BANKED_CODE, align 1, keep-with-next
   \                     ?Subroutine54:
   \   000000   90....       MOV     DPTR,#temp_i
   \   000003                REQUIRE ??Subroutine147_0
   \   000003                ; // Fall through to label ??Subroutine147_0

   \                                 In  segment BANKED_CODE, align 1, keep-with-next
   \                     ?Subroutine92:
   \   000000   F582         MOV     DPL,A
   \   000002   E9           MOV     A,R1
   \   000003                REQUIRE ??Subroutine148_0
   \   000003                ; // Fall through to label ??Subroutine148_0
    819          
    820          //PIT表相关处理操作
    821          //PIT表中interest查找

   \                                 In  segment BANKED_CODE, align 1, keep-with-next
    822          int  PendingTableFindInterest(Interest interest)
   \                     PendingTableFindInterest:
    823          {
   \   000000   74F7         MOV     A,#-0x9
   \   000002   12....       LCALL   ?BANKED_ENTER_XDATA
   \   000005                ; Saved register size: 9
   \   000005                ; Auto size: 0
    824            //Interst包中InterestName临时进行存储
    825            tempInterName.DestinationID=interest.interestName.DestinationID;	
   \   000005   740B         MOV     A,#0xb
   \   000007   12....       LCALL   ?XSTACK_DISP0_8
   \   00000A   12....       LCALL   ?Subroutine30 & 0xFFFF
    826            tempInterName.DataFlag=interest.interestName.DataFlag;	
   \                     ??CrossCallReturnLabel_49:
   \   00000D   12....       LCALL   ?XSTACK_DISP0_8
   \   000010   12....       LCALL   ?Subroutine32 & 0xFFFF
    827            tempInterName.PackageCounter=interest.interestName.PackageCounter;
   \                     ??CrossCallReturnLabel_52:
   \   000013   12....       LCALL   ?XSTACK_DISP0_8
   \   000016   12....       LCALL   ?Subroutine20 & 0xFFFF
    828            for(temp_i=0;temp_i<PITCounter;temp_i++)
   \                     ??CrossCallReturnLabel_28:
   \   000019   8003         SJMP    ??CrossCallReturnLabel_232
   \                     ??PendingTableFindInterest_0:
   \   00001B   12....       LCALL   ??Subroutine129_0 & 0xFFFF
   \                     ??CrossCallReturnLabel_232:
   \   00001E   12....       LCALL   ?Subroutine10 & 0xFFFF
   \                     ??CrossCallReturnLabel_9:
   \   000021   503A         JNC     ??PendingTableFindInterest_1
    829            {	
    830              temp_j=0;	
   \   000023   12....       LCALL   ?Subroutine13 & 0xFFFF
    831              if(tempInterName.DestinationID==PendingTable[temp_i].interestName.DestinationID)	
   \                     ??CrossCallReturnLabel_17:
   \   000026   7003         JNZ     ??PendingTableFindInterest_2
   \   000028   A3           INC     DPTR
   \   000029   E0           MOVX    A,@DPTR
   \   00002A   6B           XRL     A,R3
   \                     ??PendingTableFindInterest_2:
   \   00002B   7003         JNZ     ??CrossCallReturnLabel_304
    832              {		
    833                ++temp_j;	
   \   00002D   12....       LCALL   ?Subroutine27 & 0xFFFF
    834              }		
    835              if(tempInterName.DataFlag==PendingTable[temp_i].interestName.DataFlag)	
   \                     ??CrossCallReturnLabel_304:
   \   000030   8882         MOV     DPL,R0
   \   000032   8983         MOV     DPH,R1
   \   000034   A3           INC     DPTR
   \   000035   A3           INC     DPTR
   \   000036   E0           MOVX    A,@DPTR
   \   000037   6E           XRL     A,R6
   \   000038   7003         JNZ     ??PendingTableFindInterest_3
   \   00003A   A3           INC     DPTR
   \   00003B   E0           MOVX    A,@DPTR
   \   00003C   6F           XRL     A,R7
   \                     ??PendingTableFindInterest_3:
   \   00003D   7003         JNZ     ??CrossCallReturnLabel_191
    836              {		
    837                ++temp_j;	
   \   00003F   12....       LCALL   ?Subroutine15 & 0xFFFF
    838              }		
    839              if(tempInterName.PackageCounter==PendingTable[temp_i].interestName.PackageCounter)	
   \                     ??CrossCallReturnLabel_191:
   \   000042   8882         MOV     DPL,R0
   \   000044   8983         MOV     DPH,R1
   \   000046   A3           INC     DPTR
   \   000047   A3           INC     DPTR
   \   000048   A3           INC     DPTR
   \   000049   A3           INC     DPTR
   \   00004A   E0           MOVX    A,@DPTR
   \   00004B   6C           XRL     A,R4
   \   00004C   7003         JNZ     ??PendingTableFindInterest_4
   \   00004E   A3           INC     DPTR
   \   00004F   E0           MOVX    A,@DPTR
   \   000050   6D           XRL     A,R5
   \                     ??PendingTableFindInterest_4:
   \   000051   7003         JNZ     ??CrossCallReturnLabel_192
    840              {		
    841                ++temp_j;	
   \   000053   12....       LCALL   ?Subroutine15 & 0xFFFF
    842              }		
    843              if(temp_j==3)	
   \                     ??CrossCallReturnLabel_192:
   \   000056   12....       LCALL   ?Subroutine55 & 0xFFFF
   \                     ??CrossCallReturnLabel_91:
   \   000059   70C0         JNZ     ??PendingTableFindInterest_0
    844              {		
    845                return temp_i;	
   \   00005B   8003         SJMP    ??PendingTableFindInterest_5
    846              }
    847            }
    848            //如果temp_i不为PITCounter则查找成功，否则查找失败
    849            return PITCounter;
   \                     ??PendingTableFindInterest_1:
   \   00005D   90....       MOV     DPTR,#PITCounter
   \                     ??PendingTableFindInterest_5:
   \   000060   02....       LJMP    ?Subroutine5 & 0xFFFF
    850          }

   \                                 In  segment BANKED_CODE, align 1, keep-with-next
   \                     ?Subroutine13:
   \   000000   12....       LCALL   ?Subroutine72 & 0xFFFF
   \                     ??CrossCallReturnLabel_114:
   \   000003   12....       LCALL   ?Subroutine107 & 0xFFFF
   \                     ??CrossCallReturnLabel_153:
   \   000006   12....       LCALL   ?Subroutine83 & 0xFFFF
   \                     ??CrossCallReturnLabel_132:
   \   000009   22           RET

   \                                 In  segment BANKED_CODE, align 1, keep-with-next
   \                     ?Subroutine10:
   \   000000   F0           MOVX    @DPTR,A
   \   000001   90....       MOV     DPTR,#PITCounter
   \   000004   12....       LCALL   ?Subroutine77 & 0xFFFF
   \                     ??CrossCallReturnLabel_123:
   \   000007   22           RET

   \                                 In  segment BANKED_CODE, align 1, keep-with-next
   \                     ?Subroutine107:
   \   000000   75F014       MOV     B,#0x14
   \   000003   A4           MUL     AB
   \   000004   F8           MOV     R0,A
   \   000005   AAF0         MOV     R2,B
   \   000007   75F014       MOV     B,#0x14
   \   00000A   E9           MOV     A,R1
   \   00000B   A4           MUL     AB
   \   00000C   2A           ADD     A,R2
   \   00000D   F9           MOV     R1,A
   \   00000E   74..         MOV     A,#PendingTable & 0xff
   \   000010   28           ADD     A,R0
   \   000011   F8           MOV     R0,A
   \   000012   74..         MOV     A,#(PendingTable >> 8) & 0xff
   \   000014   22           RET
    851          
    852          //PIT表中未找到interestname则插入interestname和incommingQueue

   \                                 In  segment BANKED_CODE, align 1, keep-with-next
    853          void InsertNamePIT(Interest interest)
   \                     InsertNamePIT:
    854          {
   \   000000   74F7         MOV     A,#-0x9
   \   000002   12....       LCALL   ?BANKED_ENTER_XDATA
   \   000005                ; Saved register size: 9
   \   000005                ; Auto size: 0
    855            int	temp;
    856            //若PIT表未满
    857            if(PITCounter<PendingNumber)
   \   000005   90....       MOV     DPTR,#PITCounter
   \   000008   12....       LCALL   ?Subroutine41 & 0xFFFF
   \                     ??CrossCallReturnLabel_69:
   \   00000B   5024         JNC     ??InsertNamePIT_0
    858            {	
    859              //PIT存储Interest相关内容
    860              PendingTable[PITCounter].interestName.DestinationID=interest.interestName.DestinationID;	
   \   00000D   90....       MOV     DPTR,#PITCounter
   \   000010   12....       LCALL   ?Subroutine53 & 0xFFFF
   \                     ??CrossCallReturnLabel_87:
   \   000013   12....       LCALL   ?Subroutine62 & 0xFFFF
   \                     ??CrossCallReturnLabel_97:
   \   000016   12....       LCALL   ?XSTACK_DISP0_8
   \   000019   12....       LCALL   ?Subroutine28 & 0xFFFF
    861              PendingTable[PITCounter].interestName.DataFlag=interest.interestName.DataFlag;	
   \                     ??CrossCallReturnLabel_40:
   \   00001C   12....       LCALL   ?XSTACK_DISP0_8
   \   00001F   12....       LCALL   ?Subroutine29 & 0xFFFF
    862              PendingTable[PITCounter].interestName.PackageCounter=interest.interestName.PackageCounter;	
   \                     ??CrossCallReturnLabel_44:
   \   000022   12....       LCALL   ?XSTACK_DISP0_8
   \   000025   12....       LCALL   ?Subroutine8 & 0xFFFF
    863              //PIT存储其他内容
    864              PendingTable[PITCounter].IncomingQueue[PendingTable[PITCounter].IncomingNumber]=AcceptInterest.LastID;	
    865              PendingTable[PITCounter].IncomingNumber++;	
    866              PendingTable[PITCounter].time=0;//time需要定时的来更新，后续处理	
   \                     ??CrossCallReturnLabel_5:
   \   000028   F0           MOVX    @DPTR,A
    867              PITCounter++;
   \   000029   90....       MOV     DPTR,#PITCounter
   \   00002C   12....       LCALL   ??Subroutine129_0 & 0xFFFF
    868            }
   \                     ??CrossCallReturnLabel_233:
   \   00002F   8041         SJMP    ??CrossCallReturnLabel_6
    869              //若PIT表已经装满，需要使用替换策略进行替换，我们淘汰掉最长等待时间的条目
    870            else
    871            {
    872               temp=0;
   \                     ??InsertNamePIT_0:
   \   000031   7800         MOV     R0,#0x0
   \   000033   7900         MOV     R1,#0x0
    873               for(temp_i=1;temp_i<PITCounter;++temp_i)
   \   000035   90....       MOV     DPTR,#temp_i
   \   000038   12....       LCALL   ??Subroutine137_0 & 0xFFFF
    874               {
    875          	if(PendingTable[temp].time<PendingTable[temp_i].time)			
   \                     ??CrossCallReturnLabel_301:
   \   00003B   12....       LCALL   ?Subroutine65 & 0xFFFF
   \                     ??CrossCallReturnLabel_103:
   \   00003E   C082         PUSH    DPL
   \   000040   C083         PUSH    DPH
   \   000042   12....       LCALL   ?Subroutine37 & 0xFFFF
   \                     ??CrossCallReturnLabel_62:
   \   000045   D083         POP     DPH
   \   000047   D082         POP     DPL
   \   000049   12....       LCALL   ?Subroutine87 & 0xFFFF
   \                     ??CrossCallReturnLabel_226:
   \   00004C   5003         JNC     ??CrossCallReturnLabel_342
    876                   temp=temp_i;
   \   00004E   12....       LCALL   ?Subroutine54 & 0xFFFF
    877               }
   \                     ??CrossCallReturnLabel_342:
   \   000051   90....       MOV     DPTR,#temp_i
   \   000054   12....       LCALL   ??Subroutine118_0 & 0xFFFF
   \                     ??CrossCallReturnLabel_185:
   \   000057   12....       LCALL   ?Subroutine36 & 0xFFFF
   \                     ??CrossCallReturnLabel_223:
   \   00005A   40DF         JC      ??CrossCallReturnLabel_301
    878               //替换temp所在位置的内容r
    879               //PIT存储Interest相关内容
    880               PendingTable[temp].interestName.DestinationID=interest.interestName.DestinationID;
   \   00005C   E8           MOV     A,R0
   \   00005D   12....       LCALL   ?Subroutine62 & 0xFFFF
    881               PendingTable[temp].interestName.DataFlag=interest.interestName.DataFlag;
    882               PendingTable[temp].interestName.PackageCounter=interest.interestName.PackageCounter;
    883               //PIT存储其他内容
    884               PendingTable[temp].IncomingQueue[PendingTable[temp].IncomingNumber]=AcceptInterest.LastID;	
    885               PendingTable[temp].IncomingNumber++;
    886               PendingTable[temp].time=0;
    887              }
   \                     ??CrossCallReturnLabel_98:
   \   000060   12....       LCALL   ?XSTACK_DISP0_8
   \   000063   12....       LCALL   ?Subroutine28 & 0xFFFF
   \                     ??CrossCallReturnLabel_41:
   \   000066   12....       LCALL   ?XSTACK_DISP0_8
   \   000069   12....       LCALL   ?Subroutine29 & 0xFFFF
   \                     ??CrossCallReturnLabel_45:
   \   00006C   12....       LCALL   ?XSTACK_DISP0_8
   \   00006F   12....       LCALL   ?Subroutine8 & 0xFFFF
   \                     ??CrossCallReturnLabel_6:
   \   000072   02....       LJMP    ??Subroutine145_0 & 0xFFFF
    888          }

   \                                 In  segment BANKED_CODE, align 1, keep-with-next
   \                     ?Subroutine62:
   \   000000   12....       LCALL   ?Subroutine93 & 0xFFFF
   \                     ??CrossCallReturnLabel_139:
   \   000003   740B         MOV     A,#0xb
   \   000005   22           RET

   \                                 In  segment BANKED_CODE, align 1, keep-with-next
   \                     ?Subroutine36:
   \   000000   90....       MOV     DPTR,#PITCounter
   \   000003                REQUIRE ??Subroutine128_0
   \   000003                ; // Fall through to label ??Subroutine128_0

   \                                 In  segment BANKED_CODE, align 1, keep-with-next
   \                     ?Subroutine8:
   \   000000   12....       LCALL   ?Subroutine78 & 0xFFFF
   \                     ??CrossCallReturnLabel_125:
   \   000003   12....       LCALL   ??Subroutine142_0 & 0xFFFF
   \                     ??CrossCallReturnLabel_315:
   \   000006   2410         ADD     A,#0x10
   \   000008   FA           MOV     R2,A
   \   000009   E9           MOV     A,R1
   \   00000A   3400         ADDC    A,#0x0
   \   00000C   FB           MOV     R3,A
   \   00000D   EA           MOV     A,R2
   \   00000E   FC           MOV     R4,A
   \   00000F   EB           MOV     A,R3
   \   000010   FD           MOV     R5,A
   \   000011   90....       MOV     DPTR,#AcceptInterest + 8
   \   000014   E0           MOVX    A,@DPTR
   \   000015   FE           MOV     R6,A
   \   000016   A3           INC     DPTR
   \   000017   E0           MOVX    A,@DPTR
   \   000018   FF           MOV     R7,A
   \   000019   8C82         MOV     DPL,R4
   \   00001B   8D83         MOV     DPH,R5
   \   00001D   12....       LCALL   ??Subroutine130_0 & 0xFFFF
   \                     ??CrossCallReturnLabel_242:
   \   000020   EA           MOV     A,R2
   \   000021   C3           CLR     C
   \   000022   33           RLC     A
   \   000023   FA           MOV     R2,A
   \   000024   EB           MOV     A,R3
   \   000025   33           RLC     A
   \   000026   FB           MOV     R3,A
   \   000027   E8           MOV     A,R0
   \   000028   2A           ADD     A,R2
   \   000029   F582         MOV     DPL,A
   \   00002B   E9           MOV     A,R1
   \   00002C   12....       LCALL   ?Subroutine98 & 0xFFFF
   \                     ??CrossCallReturnLabel_150:
   \   00002F   EE           MOV     A,R6
   \   000030   F0           MOVX    @DPTR,A
   \   000031   A3           INC     DPTR
   \   000032   EF           MOV     A,R7
   \   000033   F0           MOVX    @DPTR,A
   \   000034   8C82         MOV     DPL,R4
   \   000036   8D83         MOV     DPH,R5
   \   000038   12....       LCALL   ?Subroutine75 & 0xFFFF
   \                     ??CrossCallReturnLabel_252:
   \   00003B   E8           MOV     A,R0
   \   00003C   12....       LCALL   ?Subroutine91 & 0xFFFF
   \                     ??CrossCallReturnLabel_308:
   \   00003F   22           RET

   \                                 In  segment BANKED_CODE, align 1, keep-with-next
   \                     ?Subroutine98:
   \   000000   3B           ADDC    A,R3
   \   000001   F583         MOV     DPH,A
   \   000003   A3           INC     DPTR
   \   000004   A3           INC     DPTR
   \   000005   A3           INC     DPTR
   \   000006   A3           INC     DPTR
   \   000007   A3           INC     DPTR
   \   000008   A3           INC     DPTR
   \   000009   22           RET

   \                                 In  segment BANKED_CODE, align 1, keep-with-next
   \                     ?Subroutine65:
   \   000000   E8           MOV     A,R0
   \   000001   FA           MOV     R2,A
   \   000002   E9           MOV     A,R1
   \   000003   FB           MOV     R3,A
   \   000004   12....       LCALL   ?Subroutine97 & 0xFFFF
   \                     ??CrossCallReturnLabel_148:
   \   000007   F583         MOV     DPH,A
   \   000009   22           RET

   \                                 In  segment BANKED_CODE, align 1, keep-with-next
   \                     ?Subroutine37:
   \   000000   90....       MOV     DPTR,#temp_i
   \   000003   12....       LCALL   ??Subroutine130_0 & 0xFFFF
   \                     ??CrossCallReturnLabel_243:
   \   000006   12....       LCALL   ?Subroutine97 & 0xFFFF
   \                     ??CrossCallReturnLabel_147:
   \   000009   12....       LCALL   ?Subroutine90 & 0xFFFF
   \                     ??CrossCallReturnLabel_245:
   \   00000C   22           RET

   \                                 In  segment BANKED_CODE, align 1, keep-with-next
   \                     ?Subroutine97:
   \   000000   EA           MOV     A,R2
   \   000001   75F014       MOV     B,#0x14
   \   000004   A4           MUL     AB
   \   000005   FA           MOV     R2,A
   \   000006   ACF0         MOV     R4,B
   \   000008   75F014       MOV     B,#0x14
   \   00000B   EB           MOV     A,R3
   \   00000C   A4           MUL     AB
   \   00000D   2C           ADD     A,R4
   \   00000E   FB           MOV     R3,A
   \   00000F   74..         MOV     A,#(PendingTable + 18) & 0xff
   \   000011   2A           ADD     A,R2
   \   000012   F582         MOV     DPL,A
   \   000014   74..         MOV     A,#((PendingTable + 18) >> 8) & 0xff
   \   000016   3B           ADDC    A,R3
   \   000017   22           RET

   \                                 In  segment BANKED_CODE, align 1, keep-with-next
   \                     ?Subroutine90:
   \   000000   F583         MOV     DPH,A
   \   000002                REQUIRE ??Subroutine130_0
   \   000002                ; // Fall through to label ??Subroutine130_0

   \                                 In  segment BANKED_CODE, align 1, keep-with-next
   \                     ?Subroutine93:
   \   000000   12....       LCALL   ?Subroutine107 & 0xFFFF
   \                     ??CrossCallReturnLabel_154:
   \   000003   39           ADDC    A,R1
   \   000004   F9           MOV     R1,A
   \   000005   22           RET

   \                                 In  segment BANKED_CODE, align 1, keep-with-next
   \                     ?Subroutine53:
   \   000000   12....       LCALL   ?Subroutine82 & 0xFFFF
   \                     ??CrossCallReturnLabel_274:
   \   000003   22           RET

   \                                 In  segment BANKED_CODE, align 1, keep-with-next
   \                     ?Subroutine29:
   \   000000   12....       LCALL   ??Subroutine136_0 & 0xFFFF
   \                     ??CrossCallReturnLabel_279:
   \   000003   12....       LCALL   ?Subroutine99 & 0xFFFF
   \                     ??CrossCallReturnLabel_320:
   \   000006   740F         MOV     A,#0xf
   \   000008   22           RET

   \                                 In  segment BANKED_CODE, align 1, keep-with-next
   \                     ?Subroutine28:
   \   000000   12....       LCALL   ??Subroutine132_0 & 0xFFFF
   \                     ??CrossCallReturnLabel_260:
   \   000003   12....       LCALL   ?Subroutine99 & 0xFFFF
   \                     ??CrossCallReturnLabel_319:
   \   000006   740D         MOV     A,#0xd
   \   000008   22           RET

   \                                 In  segment BANKED_CODE, align 1, keep-with-next
   \                     ?Subroutine91:
   \   000000   2412         ADD     A,#0x12
   \   000002                REQUIRE ??Subroutine139_0
   \   000002                ; // Fall through to label ??Subroutine139_0

   \                                 In  segment BANKED_CODE, align 1, keep-with-next
   \                     ??Subroutine145_0:
   \   000000   F0           MOVX    @DPTR,A
   \   000001                REQUIRE ??Subroutine146_0
   \   000001                ; // Fall through to label ??Subroutine146_0
    889          
    890          //PIT表中找到了interestName则插入incommingQuere

   \                                 In  segment BANKED_CODE, align 1, keep-with-next
    891          void InsertIncomingPIT(uint8 i)
   \                     InsertIncomingPIT:
    892          {
   \   000000   74F6         MOV     A,#-0xa
   \   000002   12....       LCALL   ?BANKED_ENTER_XDATA
   \   000005                ; Saved register size: 10
   \   000005                ; Auto size: 0
    893            //目前只存储前5个到达的interest包
    894            if(PendingTable[i].IncomingNumber<5)
   \   000005   E9           MOV     A,R1
   \   000006   75F014       MOV     B,#0x14
   \   000009   A4           MUL     AB
   \   00000A   FA           MOV     R2,A
   \   00000B   ABF0         MOV     R3,B
   \   00000D   74..         MOV     A,#PendingTable & 0xff
   \   00000F   2A           ADD     A,R2
   \   000010   FC           MOV     R4,A
   \   000011   74..         MOV     A,#(PendingTable >> 8) & 0xff
   \   000013   3B           ADDC    A,R3
   \   000014   FD           MOV     R5,A
   \   000015   EC           MOV     A,R4
   \   000016   2410         ADD     A,#0x10
   \   000018   FA           MOV     R2,A
   \   000019   ED           MOV     A,R5
   \   00001A   3400         ADDC    A,#0x0
   \   00001C   FB           MOV     R3,A
   \   00001D   EA           MOV     A,R2
   \   00001E   FE           MOV     R6,A
   \   00001F   EB           MOV     A,R3
   \   000020   FF           MOV     R7,A
   \   000021   8E82         MOV     DPL,R6
   \   000023   8F83         MOV     DPH,R7
   \   000025   12....       LCALL   ??Subroutine117_0 & 0xFFFF
   \                     ??CrossCallReturnLabel_179:
   \   000028   C3           CLR     C
   \   000029   EA           MOV     A,R2
   \   00002A   9405         SUBB    A,#0x5
   \   00002C   EB           MOV     A,R3
   \   00002D   9400         SUBB    A,#0x0
   \   00002F   5027         JNC     ??CrossCallReturnLabel_186
    895            {	
    896              PendingTable[i].IncomingQueue[PendingTable[i].IncomingNumber]=AcceptInterest.LastID;	
   \   000031   90....       MOV     DPTR,#AcceptInterest + 8
   \   000034   E0           MOVX    A,@DPTR
   \   000035   F5..         MOV     ?V0 + 0,A
   \   000037   A3           INC     DPTR
   \   000038   E0           MOVX    A,@DPTR
   \   000039   F5..         MOV     ?V0 + 1,A
   \   00003B   EA           MOV     A,R2
   \   00003C   C3           CLR     C
   \   00003D   33           RLC     A
   \   00003E   FA           MOV     R2,A
   \   00003F   EB           MOV     A,R3
   \   000040   33           RLC     A
   \   000041   FB           MOV     R3,A
   \   000042   EC           MOV     A,R4
   \   000043   2A           ADD     A,R2
   \   000044   F582         MOV     DPL,A
   \   000046   ED           MOV     A,R5
   \   000047   12....       LCALL   ?Subroutine98 & 0xFFFF
   \                     ??CrossCallReturnLabel_149:
   \   00004A   E5..         MOV     A,?V0 + 0
   \   00004C   F0           MOVX    @DPTR,A
   \   00004D   A3           INC     DPTR
   \   00004E   E5..         MOV     A,?V0 + 1
   \   000050   F0           MOVX    @DPTR,A
    897              PendingTable[i].IncomingNumber++;  // pitcounter 替换为 i
   \   000051   8E82         MOV     DPL,R6
   \   000053   8F83         MOV     DPH,R7
   \   000055   12....       LCALL   ??Subroutine118_0 & 0xFFFF
    898            }
    899          }
   \                     ??CrossCallReturnLabel_186:
   \   000058   02....       LJMP    ??Subroutine116_0 & 0xFFFF
    900          
    901          //PIT表中查找Data知否为等待的data

   \                                 In  segment BANKED_CODE, align 1, keep-with-next
    902          int PendingTableFindData(Data data)
   \                     PendingTableFindData:
    903          {
   \   000000   74F7         MOV     A,#-0x9
   \   000002   12....       LCALL   ?BANKED_ENTER_XDATA
   \   000005                ; Saved register size: 9
   \   000005                ; Auto size: 0
    904            //Interst包中InterestName临时进行存储
    905            tempInterName.DestinationID=data.interestName.DestinationID;
   \   000005   740B         MOV     A,#0xb
   \   000007   12....       LCALL   ?XSTACK_DISP0_8
   \   00000A   12....       LCALL   ?Subroutine30 & 0xFFFF
    906            tempInterName.DataFlag=data.interestName.DataFlag;
   \                     ??CrossCallReturnLabel_50:
   \   00000D   12....       LCALL   ?XSTACK_DISP0_8
   \   000010   12....       LCALL   ?Subroutine32 & 0xFFFF
    907            tempInterName.PackageCounter=data.interestName.PackageCounter;
   \                     ??CrossCallReturnLabel_53:
   \   000013   12....       LCALL   ?XSTACK_DISP0_8
   \   000016   12....       LCALL   ?Subroutine20 & 0xFFFF
    908            for(temp_i=0;temp_i<PITCounter;temp_i++)
   \                     ??CrossCallReturnLabel_29:
   \   000019   8003         SJMP    ??CrossCallReturnLabel_234
   \                     ??PendingTableFindData_0:
   \   00001B   12....       LCALL   ??Subroutine129_0 & 0xFFFF
   \                     ??CrossCallReturnLabel_234:
   \   00001E   12....       LCALL   ?Subroutine10 & 0xFFFF
   \                     ??CrossCallReturnLabel_10:
   \   000021   503A         JNC     ??PendingTableFindData_1
    909            {	
    910              temp_j=0;		
   \   000023   12....       LCALL   ?Subroutine13 & 0xFFFF
    911              if(tempInterName.DestinationID==PendingTable[temp_i].interestName.DestinationID)	
   \                     ??CrossCallReturnLabel_18:
   \   000026   7003         JNZ     ??PendingTableFindData_2
   \   000028   A3           INC     DPTR
   \   000029   E0           MOVX    A,@DPTR
   \   00002A   6B           XRL     A,R3
   \                     ??PendingTableFindData_2:
   \   00002B   7003         JNZ     ??CrossCallReturnLabel_305
    912              {		
    913                ++temp_j;	
   \   00002D   12....       LCALL   ?Subroutine27 & 0xFFFF
    914              }	
    915              if(tempInterName.DataFlag==PendingTable[temp_i].interestName.DataFlag)	
   \                     ??CrossCallReturnLabel_305:
   \   000030   8882         MOV     DPL,R0
   \   000032   8983         MOV     DPH,R1
   \   000034   A3           INC     DPTR
   \   000035   A3           INC     DPTR
   \   000036   E0           MOVX    A,@DPTR
   \   000037   6E           XRL     A,R6
   \   000038   7003         JNZ     ??PendingTableFindData_3
   \   00003A   A3           INC     DPTR
   \   00003B   E0           MOVX    A,@DPTR
   \   00003C   6F           XRL     A,R7
   \                     ??PendingTableFindData_3:
   \   00003D   7003         JNZ     ??CrossCallReturnLabel_193
    916              {		
    917                ++temp_j;	
   \   00003F   12....       LCALL   ?Subroutine15 & 0xFFFF
    918              }		
    919              if(tempInterName.PackageCounter==PendingTable[temp_i].interestName.PackageCounter)	
   \                     ??CrossCallReturnLabel_193:
   \   000042   8882         MOV     DPL,R0
   \   000044   8983         MOV     DPH,R1
   \   000046   A3           INC     DPTR
   \   000047   A3           INC     DPTR
   \   000048   A3           INC     DPTR
   \   000049   A3           INC     DPTR
   \   00004A   E0           MOVX    A,@DPTR
   \   00004B   6C           XRL     A,R4
   \   00004C   7003         JNZ     ??PendingTableFindData_4
   \   00004E   A3           INC     DPTR
   \   00004F   E0           MOVX    A,@DPTR
   \   000050   6D           XRL     A,R5
   \                     ??PendingTableFindData_4:
   \   000051   7003         JNZ     ??CrossCallReturnLabel_194
    920              {		
    921                ++temp_j;	
   \   000053   12....       LCALL   ?Subroutine15 & 0xFFFF
    922              }		
    923              if(temp_j==3)	
   \                     ??CrossCallReturnLabel_194:
   \   000056   12....       LCALL   ?Subroutine55 & 0xFFFF
   \                     ??CrossCallReturnLabel_92:
   \   000059   70C0         JNZ     ??PendingTableFindData_0
    924              {		
    925                return temp_i;	
   \   00005B   8003         SJMP    ??PendingTableFindData_5
    926              }
    927            }
    928            //如果temp_i不为PITCounter则查找成功，否则查找失败
    929            return PITCounter;
   \                     ??PendingTableFindData_1:
   \   00005D   90....       MOV     DPTR,#PITCounter
   \                     ??PendingTableFindData_5:
   \   000060   02....       LJMP    ?Subroutine5 & 0xFFFF
    930          }
    931          
    932          //PIT表中删除操作，根据已经存在的time，删除长时间的

   \                                 In  segment BANKED_CODE, align 1, keep-with-next
    933          void DeleteItemPIT( void )
   \                     DeleteItemPIT:
    934          {
   \   000000   74F7         MOV     A,#-0x9
   \   000002   12....       LCALL   ?BANKED_ENTER_XDATA
   \   000005                ; Saved register size: 9
   \   000005                ; Auto size: 0
    935            int temp;
    936            temp=0;
   \   000005   7800         MOV     R0,#0x0
   \   000007   7900         MOV     R1,#0x0
    937            for(temp_i=0;temp_i<PITCounter;++temp_i)
   \   000009   90....       MOV     DPTR,#temp_i
   \   00000C   E4           CLR     A
   \   00000D   F0           MOVX    @DPTR,A
   \   00000E   A3           INC     DPTR
   \   00000F   8019         SJMP    ??CrossCallReturnLabel_239
    938            {	
    939              if(PendingTable[temp].time<PendingTable[temp_i].time)	
   \                     ??DeleteItemPIT_0:
   \   000011   12....       LCALL   ?Subroutine65 & 0xFFFF
   \                     ??CrossCallReturnLabel_104:
   \   000014   C082         PUSH    DPL
   \   000016   C083         PUSH    DPH
   \   000018   12....       LCALL   ?Subroutine37 & 0xFFFF
   \                     ??CrossCallReturnLabel_63:
   \   00001B   D083         POP     DPH
   \   00001D   D082         POP     DPL
   \   00001F   12....       LCALL   ?Subroutine87 & 0xFFFF
   \                     ??CrossCallReturnLabel_227:
   \   000022   5003         JNC     ??CrossCallReturnLabel_343
    940              {		
    941                temp=temp_i;	
   \   000024   12....       LCALL   ?Subroutine54 & 0xFFFF
    942              }
    943            }	
   \                     ??CrossCallReturnLabel_343:
   \   000027   12....       LCALL   ?Subroutine16 & 0xFFFF
   \                     ??CrossCallReturnLabel_239:
   \   00002A   F0           MOVX    @DPTR,A
   \   00002B   12....       LCALL   ?Subroutine36 & 0xFFFF
   \                     ??CrossCallReturnLabel_224:
   \   00002E   40E1         JC      ??DeleteItemPIT_0
    944            if(temp<PITCounter-1)
   \   000030   90....       MOV     DPTR,#PITCounter
   \   000033   12....       LCALL   ?Subroutine52 & 0xFFFF
   \                     ??CrossCallReturnLabel_86:
   \   000036   12....       LCALL   ?Subroutine68 & 0xFFFF
   \                     ??CrossCallReturnLabel_109:
   \   000039   5019         JNC     ??DeleteItemPIT_1
    945            {
    946              for(temp_i=temp;temp_i<PITCounter;++temp_i)	
   \   00003B   90....       MOV     DPTR,#temp_i
   \   00003E   E8           MOV     A,R0
   \   00003F   F0           MOVX    @DPTR,A
   \   000040   A3           INC     DPTR
   \   000041   E9           MOV     A,R1
   \   000042   800B         SJMP    ??CrossCallReturnLabel_19
    947              {		
    948                PendingTable[temp_i].interestName.DestinationID=PendingTable[temp_i+1].interestName.DestinationID;		
   \                     ??DeleteItemPIT_2:
   \   000044   12....       LCALL   ?Subroutine11 & 0xFFFF
    949                PendingTable[temp_i].interestName.DataFlag=PendingTable[temp_i+1].interestName.DataFlag;		
    950                PendingTable[temp_i].interestName.PackageCounter=PendingTable[temp_i+1].interestName.PackageCounter;
    951                for(temp_j=0;temp_j<5;++temp_j)		
    952                {   
    953                     PendingTable[temp_i].IncomingQueue[temp_j]=PendingTable[temp_i+1].IncomingQueue[temp_j];	
   \                     ??CrossCallReturnLabel_13:
   \   000047   12....       LCALL   ?Subroutine7 & 0xFFFF
    954                }	
   \                     ??CrossCallReturnLabel_248:
   \   00004A   40FB         JC      ??CrossCallReturnLabel_13
    955                PendingTable[temp_i].IncomingNumber=PendingTable[temp_i+1].IncomingNumber;	
   \   00004C   12....       LCALL   ?Subroutine14 & 0xFFFF
    956                PendingTable[temp_i].time=PendingTable[temp_i+1].time;	
    957              }		
   \                     ??CrossCallReturnLabel_19:
   \   00004F   12....       LCALL   ?Subroutine10 & 0xFFFF
   \                     ??CrossCallReturnLabel_11:
   \   000052   40F0         JC      ??DeleteItemPIT_2
    958              PITCounter--;
   \                     ??DeleteItemPIT_1:
   \   000054   02....       LJMP    ?Subroutine3 & 0xFFFF
    959            }
    960            else
    961            {	
    962              PITCounter--;
    963            }
    964          }

   \                                 In  segment BANKED_CODE, align 1, keep-with-next
   \                     ?Subroutine7:
   \   000000   12....       LCALL   ?Subroutine81 & 0xFFFF
   \                     ??CrossCallReturnLabel_130:
   \   000003   241A         ADD     A,#0x1a
   \   000005                REQUIRE ??Subroutine131_0
   \   000005                ; // Fall through to label ??Subroutine131_0

   \                                 In  segment BANKED_CODE, align 1, keep-with-next
   \                     ??Subroutine131_0:
   \   000000   F582         MOV     DPL,A
   \   000002   EB           MOV     A,R3
   \   000003   12....       LCALL   ??Subroutine148_0 & 0xFFFF
   \                     ??CrossCallReturnLabel_353:
   \   000006   E0           MOVX    A,@DPTR
   \   000007   FC           MOV     R4,A
   \   000008   A3           INC     DPTR
   \   000009   E0           MOVX    A,@DPTR
   \   00000A   FD           MOV     R5,A
   \   00000B   8A82         MOV     DPL,R2
   \   00000D   8B83         MOV     DPH,R3
   \   00000F   A3           INC     DPTR
   \   000010   A3           INC     DPTR
   \   000011   A3           INC     DPTR
   \   000012   A3           INC     DPTR
   \   000013   A3           INC     DPTR
   \   000014   A3           INC     DPTR
   \   000015   EC           MOV     A,R4
   \   000016   F0           MOVX    @DPTR,A
   \   000017   A3           INC     DPTR
   \   000018   ED           MOV     A,R5
   \   000019   F0           MOVX    @DPTR,A
   \   00001A   90....       MOV     DPTR,#temp_j
   \   00001D   12....       LCALL   ?Subroutine75 & 0xFFFF
   \                     ??CrossCallReturnLabel_254:
   \   000020   90....       MOV     DPTR,#temp_j
   \   000023   C3           CLR     C
   \   000024   E0           MOVX    A,@DPTR
   \   000025   9405         SUBB    A,#0x5
   \   000027   12....       LCALL   ?Subroutine88 & 0xFFFF
   \                     ??CrossCallReturnLabel_256:
   \   00002A   22           RET

   \                                 In  segment BANKED_CODE, align 1, keep-with-next
   \                     ?Subroutine14:
   \   000000   E8           MOV     A,R0
   \   000001   2424         ADD     A,#0x24
   \   000003   12....       LCALL   ?Subroutine70 & 0xFFFF
   \                     ??CrossCallReturnLabel_310:
   \   000006   2426         ADD     A,#0x26
   \   000008   12....       LCALL   ?Subroutine89 & 0xFFFF
   \                     ??CrossCallReturnLabel_137:
   \   00000B   12....       LCALL   ?Subroutine71 & 0xFFFF
   \                     ??CrossCallReturnLabel_112:
   \   00000E   22           RET

   \                                 In  segment BANKED_CODE, align 1, keep-with-next
   \                     ?Subroutine11:
   \   000000   90....       MOV     DPTR,#temp_i
   \   000003   12....       LCALL   ?Subroutine82 & 0xFFFF
   \                     ??CrossCallReturnLabel_272:
   \   000006   12....       LCALL   ?Subroutine93 & 0xFFFF
   \                     ??CrossCallReturnLabel_138:
   \   000009   E8           MOV     A,R0
   \   00000A   2414         ADD     A,#0x14
   \   00000C   12....       LCALL   ?Subroutine84 & 0xFFFF
   \                     ??CrossCallReturnLabel_261:
   \   00000F   12....       LCALL   ??Subroutine142_0 & 0xFFFF
   \                     ??CrossCallReturnLabel_316:
   \   000012   2416         ADD     A,#0x16
   \   000014   12....       LCALL   ?Subroutine79 & 0xFFFF
   \                     ??CrossCallReturnLabel_282:
   \   000017   12....       LCALL   ?Subroutine69 & 0xFFFF
   \                     ??CrossCallReturnLabel_110:
   \   00001A   12....       LCALL   ?Subroutine74 & 0xFFFF
   \                     ??CrossCallReturnLabel_118:
   \   00001D   22           RET

   \                                 In  segment BANKED_CODE, align 1, keep-with-next
   \                     ?Subroutine84:
   \   000000   12....       LCALL   ?Subroutine106 & 0xFFFF
   \                     ??CrossCallReturnLabel_358:
   \   000003                REQUIRE ??Subroutine132_0
   \   000003                ; // Fall through to label ??Subroutine132_0

   \                                 In  segment BANKED_CODE, align 1, keep-with-next
   \                     ?Subroutine79:
   \   000000   12....       LCALL   ?Subroutine106 & 0xFFFF
   \                     ??CrossCallReturnLabel_357:
   \   000003                REQUIRE ??Subroutine136_0
   \   000003                ; // Fall through to label ??Subroutine136_0

   \                                 In  segment BANKED_CODE, align 1, keep-with-next
   \                     ?Subroutine70:
   \   000000   12....       LCALL   ?Subroutine104 & 0xFFFF
   \                     ??CrossCallReturnLabel_327:
   \   000003   E8           MOV     A,R0
   \   000004   2410         ADD     A,#0x10
   \   000006                REQUIRE ??Subroutine141_0
   \   000006                ; // Fall through to label ??Subroutine141_0

   \                                 In  segment BANKED_CODE, align 1, keep-with-next
   \                     ??Subroutine141_0:
   \   000000   12....       LCALL   ?Subroutine106 & 0xFFFF
   \                     ??CrossCallReturnLabel_360:
   \   000003                REQUIRE ??Subroutine142_0
   \   000003                ; // Fall through to label ??Subroutine142_0

   \                                 In  segment BANKED_CODE, align 1, keep-with-next
   \                     ?Subroutine104:
   \   000000   F582         MOV     DPL,A
   \   000002   E9           MOV     A,R1
   \   000003   3400         ADDC    A,#0x0
   \   000005   F583         MOV     DPH,A
   \   000007                REQUIRE ??Subroutine143_0
   \   000007                ; // Fall through to label ??Subroutine143_0

   \                                 In  segment BANKED_CODE, align 1, keep-with-next
   \                     ?Subroutine3:
   \   000000   90....       MOV     DPTR,#PITCounter
   \   000003                REQUIRE ??Subroutine144_0
   \   000003                ; // Fall through to label ??Subroutine144_0

   \                                 In  segment BANKED_CODE, align 1, keep-with-next
   \                     ??Subroutine144_0:
   \   000000   12....       LCALL   ?Subroutine57 & 0xFFFF
   \                     ??CrossCallReturnLabel_331:
   \   000003                REQUIRE ??Subroutine145_0
   \   000003                ; // Fall through to label ??Subroutine145_0

   \                                 In  segment BANKED_CODE, align 1, keep-with-next
   \                     ?Subroutine81:
   \   000000   90....       MOV     DPTR,#temp_j
   \   000003   12....       LCALL   ??Subroutine143_0 & 0xFFFF
   \                     ??CrossCallReturnLabel_326:
   \   000006   EA           MOV     A,R2
   \   000007   C3           CLR     C
   \   000008   33           RLC     A
   \   000009   FA           MOV     R2,A
   \   00000A   EB           MOV     A,R3
   \   00000B   33           RLC     A
   \   00000C   FB           MOV     R3,A
   \   00000D   E8           MOV     A,R0
   \   00000E   2A           ADD     A,R2
   \   00000F   FA           MOV     R2,A
   \   000010   E9           MOV     A,R1
   \   000011   3B           ADDC    A,R3
   \   000012   FB           MOV     R3,A
   \   000013   EA           MOV     A,R2
   \   000014   22           RET

   \                                 In  segment BANKED_CODE, align 1, keep-with-next
   \                     ?Subroutine74:
   \   000000   A3           INC     DPTR
   \   000001   A3           INC     DPTR
   \   000002   12....       LCALL   ?Subroutine99 & 0xFFFF
   \                     ??CrossCallReturnLabel_323:
   \   000005   90....       MOV     DPTR,#temp_j
   \   000008   E4           CLR     A
   \   000009   F0           MOVX    @DPTR,A
   \   00000A   A3           INC     DPTR
   \   00000B   F0           MOVX    @DPTR,A
   \   00000C   22           RET

   \                                 In  segment BANKED_CODE, align 1, keep-with-next
   \                     ?Subroutine69:
   \   000000   12....       LCALL   ?Subroutine99 & 0xFFFF
   \                     ??CrossCallReturnLabel_321:
   \   000003   E8           MOV     A,R0
   \   000004   2418         ADD     A,#0x18
   \   000006   12....       LCALL   ?Subroutine106 & 0xFFFF
   \                     ??CrossCallReturnLabel_355:
   \   000009   12....       LCALL   ?Subroutine101 & 0xFFFF
   \                     ??CrossCallReturnLabel_284:
   \   00000C   22           RET

   \                                 In  segment BANKED_CODE, align 1, keep-with-next
   \                     ?Subroutine89:
   \   000000   12....       LCALL   ?Subroutine104 & 0xFFFF
   \                     ??CrossCallReturnLabel_328:
   \   000003   E8           MOV     A,R0
   \   000004   2412         ADD     A,#0x12
   \   000006   22           RET

   \                                 In  segment BANKED_CODE, align 1, keep-with-next
   \                     ?Subroutine71:
   \   000000   12....       LCALL   ?Subroutine106 & 0xFFFF
   \                     ??CrossCallReturnLabel_356:
   \   000003   12....       LCALL   ?Subroutine99 & 0xFFFF
   \                     ??CrossCallReturnLabel_322:
   \   000006   90....       MOV     DPTR,#temp_i
   \   000009   12....       LCALL   ?Subroutine102 & 0xFFFF
   \                     ??CrossCallReturnLabel_257:
   \   00000C   22           RET
    965          
    966          //PIT表中删除特定的Item

   \                                 In  segment BANKED_CODE, align 1, keep-with-next
    967          void DeleteItemPITS(int i)
   \                     DeleteItemPITS:
    968          {
   \   000000   74F7         MOV     A,#-0x9
   \   000002   12....       LCALL   ?BANKED_ENTER_XDATA
   \   000005                ; Saved register size: 9
   \   000005                ; Auto size: 0
    969            if(i<PITCounter-1)
   \   000005   90....       MOV     DPTR,#PITCounter
   \   000008   12....       LCALL   ?Subroutine42 & 0xFFFF
   \                     ??CrossCallReturnLabel_71:
   \   00000B   5019         JNC     ??DeleteItemPITS_0
    970            {	
    971              for(temp_i=i;temp_i<PITCounter;++temp_i)	
   \   00000D   90....       MOV     DPTR,#temp_i
   \   000010   EA           MOV     A,R2
   \   000011   F0           MOVX    @DPTR,A
   \   000012   A3           INC     DPTR
   \   000013   EB           MOV     A,R3
   \   000014   800B         SJMP    ??CrossCallReturnLabel_20
    972              {		
    973                PendingTable[temp_i].interestName.DestinationID=PendingTable[temp_i+1].interestName.DestinationID;		
   \                     ??DeleteItemPITS_1:
   \   000016   12....       LCALL   ?Subroutine11 & 0xFFFF
    974                PendingTable[temp_i].interestName.DataFlag=PendingTable[temp_i+1].interestName.DataFlag;		
    975                PendingTable[temp_i].interestName.PackageCounter=PendingTable[temp_i+1].interestName.PackageCounter;
    976                for(temp_j=0;temp_j<5;++temp_j)		
    977                {			
    978                  PendingTable[temp_i].IncomingQueue[temp_j]=PendingTable[temp_i+1].IncomingQueue[temp_j];		
   \                     ??CrossCallReturnLabel_14:
   \   000019   12....       LCALL   ?Subroutine7 & 0xFFFF
    979                }		
   \                     ??CrossCallReturnLabel_249:
   \   00001C   40FB         JC      ??CrossCallReturnLabel_14
    980                PendingTable[temp_i].IncomingNumber=PendingTable[temp_i+1].IncomingNumber;		
   \   00001E   12....       LCALL   ?Subroutine14 & 0xFFFF
    981                PendingTable[temp_i].time=PendingTable[temp_i+1].time;
    982              }	
   \                     ??CrossCallReturnLabel_20:
   \   000021   12....       LCALL   ?Subroutine10 & 0xFFFF
   \                     ??CrossCallReturnLabel_12:
   \   000024   40F0         JC      ??DeleteItemPITS_1
    983                PITCounter--;
   \                     ??DeleteItemPITS_0:
   \   000026   02....       LJMP    ?Subroutine3 & 0xFFFF
    984            }
    985            else
    986            {	
    987              PITCounter--;
    988            }
    989          }

   \                                 In  segment BANKED_CODE, align 1, keep-with-next
   \                     ?Subroutine42:
   \   000000   E0           MOVX    A,@DPTR
   \   000001   24FF         ADD     A,#-0x1
   \   000003   F8           MOV     R0,A
   \   000004   A3           INC     DPTR
   \   000005   E0           MOVX    A,@DPTR
   \   000006   34FF         ADDC    A,#-0x1
   \   000008   F9           MOV     R1,A
   \   000009   C3           CLR     C
   \   00000A   EA           MOV     A,R2
   \   00000B   98           SUBB    A,R0
   \   00000C   EB           MOV     A,R3
   \   00000D   12....       LCALL   ?Subroutine95 & 0xFFFF
   \                     ??CrossCallReturnLabel_144:
   \   000010   22           RET
    990          
    991          /////////////////////////////////////////////////////////////////////////////////////////////
    992          //FIB表相关操作
    993          //FIB表查找interest，使用模糊查询，即只是比较DestinationID和DataFlag即可，不需要需要批次一样。

   \                                 In  segment BANKED_CODE, align 1, keep-with-next
    994          int ForwardingTableFinder(Interest interest)
   \                     ForwardingTableFinder:
    995          {
   \   000000   C082         PUSH    DPL
   \   000002   C083         PUSH    DPH
   \   000004                ; Saved register size: 2
   \   000004                ; Auto size: 0
    996            //Interst包中InterestName临时进行存储
    997            tempInterName.DestinationID=interest.interestName.DestinationID;
   \   000004   7402         MOV     A,#0x2
   \   000006   12....       LCALL   ?XSTACK_DISP0_8
   \   000009   12....       LCALL   ??Subroutine147_0 & 0xFFFF
   \                     ??CrossCallReturnLabel_336:
   \   00000C   90....       MOV     DPTR,#tempInterName
   \   00000F   E8           MOV     A,R0
   \   000010   F0           MOVX    @DPTR,A
   \   000011   A3           INC     DPTR
   \   000012   E9           MOV     A,R1
   \   000013   F0           MOVX    @DPTR,A
    998            tempInterName.DataFlag=interest.interestName.DataFlag;
   \   000014   7404         MOV     A,#0x4
   \   000016   12....       LCALL   ?XSTACK_DISP0_8
   \   000019   12....       LCALL   ??Subroutine147_0 & 0xFFFF
   \                     ??CrossCallReturnLabel_337:
   \   00001C   90....       MOV     DPTR,#tempInterName + 2
   \   00001F   E8           MOV     A,R0
   \   000020   F0           MOVX    @DPTR,A
   \   000021   A3           INC     DPTR
   \   000022   E9           MOV     A,R1
   \   000023   F0           MOVX    @DPTR,A
    999            tempInterName.PackageCounter=interest.interestName.PackageCounter;
   \   000024   7406         MOV     A,#0x6
   \   000026   12....       LCALL   ?XSTACK_DISP0_8
   \   000029   12....       LCALL   ??Subroutine147_0 & 0xFFFF
   \                     ??CrossCallReturnLabel_338:
   \   00002C   90....       MOV     DPTR,#tempInterName + 4
   \   00002F   E8           MOV     A,R0
   \   000030   F0           MOVX    @DPTR,A
   \   000031   A3           INC     DPTR
   \   000032   E9           MOV     A,R1
   \   000033   F0           MOVX    @DPTR,A
   1000            for(temp_i=0;temp_i<FIBCounter;temp_i++)
   \   000034   90....       MOV     DPTR,#temp_i
   \   000037   E4           CLR     A
   \   000038   F0           MOVX    @DPTR,A
   \   000039   A3           INC     DPTR
   \   00003A   8003         SJMP    ??CrossCallReturnLabel_235
   \                     ??ForwardingTableFinder_0:
   \   00003C   12....       LCALL   ??Subroutine129_0 & 0xFFFF
   \                     ??CrossCallReturnLabel_235:
   \   00003F   12....       LCALL   ?Subroutine6 & 0xFFFF
   \                     ??CrossCallReturnLabel_0:
   \   000042   5032         JNC     ??ForwardingTableFinder_1
   1001            {	
   1002              temp_j=0;		
   \   000044   12....       LCALL   ?Subroutine25 & 0xFFFF
   1003              if(tempInterName.DestinationID==ForwardingTable[temp_i].interestName.DestinationID)	
   \                     ??CrossCallReturnLabel_37:
   \   000047   12....       LCALL   ?Subroutine64 & 0xFFFF
   \                     ??CrossCallReturnLabel_101:
   \   00004A   12....       LCALL   ?Subroutine47 & 0xFFFF
   \                     ??CrossCallReturnLabel_80:
   \   00004D   7003         JNZ     ??ForwardingTableFinder_2
   \   00004F   A3           INC     DPTR
   \   000050   E0           MOVX    A,@DPTR
   \   000051   6B           XRL     A,R3
   \                     ??ForwardingTableFinder_2:
   \   000052   7003         JNZ     ??CrossCallReturnLabel_306
   1004              {		
   1005                ++temp_j;	
   \   000054   12....       LCALL   ?Subroutine27 & 0xFFFF
   1006              }	
   1007              if(tempInterName.DataFlag==ForwardingTable[temp_i].interestName.DataFlag)	
   \                     ??CrossCallReturnLabel_306:
   \   000057   90....       MOV     DPTR,#tempInterName + 2
   \   00005A   12....       LCALL   ?Subroutine48 & 0xFFFF
   \                     ??CrossCallReturnLabel_82:
   \   00005D   E0           MOVX    A,@DPTR
   \   00005E   6A           XRL     A,R2
   \   00005F   7003         JNZ     ??ForwardingTableFinder_3
   \   000061   A3           INC     DPTR
   \   000062   E0           MOVX    A,@DPTR
   \   000063   6B           XRL     A,R3
   \                     ??ForwardingTableFinder_3:
   \   000064   7003         JNZ     ??CrossCallReturnLabel_195
   1008              {		
   1009                ++temp_j;	
   \   000066   12....       LCALL   ?Subroutine15 & 0xFFFF
   1010              }	
   1011              if(temp_j==2)	
   \                     ??CrossCallReturnLabel_195:
   \   000069   90....       MOV     DPTR,#temp_j
   \   00006C   E0           MOVX    A,@DPTR
   \   00006D   6402         XRL     A,#0x2
   \   00006F   90....       MOV     DPTR,#temp_i
   \   000072   70C8         JNZ     ??ForwardingTableFinder_0
   1012              {		
   1013                return temp_i;	
   \   000074   8003         SJMP    ??ForwardingTableFinder_4
   1014              }
   1015            }
   1016            //如果temp_i不为FIBCounter则查找成功，否则查找失败
   1017            return FIBCounter;
   \                     ??ForwardingTableFinder_1:
   \   000076   90....       MOV     DPTR,#FIBCounter
   \                     ??ForwardingTableFinder_4:
   \   000079   12....       LCALL   ??Subroutine117_0 & 0xFFFF
   \                     ??CrossCallReturnLabel_180:
   \   00007C   02....       LJMP    ?Subroutine2 & 0xFFFF
   1018          }

   \                                 In  segment BANKED_CODE, align 1, keep-with-next
   \                     ?Subroutine64:
   \   000000   75F016       MOV     B,#0x16
   \   000003   A4           MUL     AB
   \   000004   F8           MOV     R0,A
   \   000005   AAF0         MOV     R2,B
   \   000007   75F016       MOV     B,#0x16
   \   00000A   E9           MOV     A,R1
   \   00000B   A4           MUL     AB
   \   00000C   2A           ADD     A,R2
   \   00000D   F9           MOV     R1,A
   \   00000E   74..         MOV     A,#ForwardingTable & 0xff
   \   000010   28           ADD     A,R0
   \   000011   F8           MOV     R0,A
   \   000012   74..         MOV     A,#(ForwardingTable >> 8) & 0xff
   \   000014   22           RET

   \                                 In  segment BANKED_CODE, align 1, keep-with-next
   \                     ?Subroutine6:
   \   000000   F0           MOVX    @DPTR,A
   \   000001   90....       MOV     DPTR,#FIBCounter
   \   000004   12....       LCALL   ?Subroutine77 & 0xFFFF
   \                     ??CrossCallReturnLabel_122:
   \   000007   22           RET
   1019          
   1020          
   1021          //FIB表未找到interest，插入新的interestnName，其他等待回复ACK后再添加。后进行广播转发

   \                                 In  segment BANKED_CODE, align 1, keep-with-next
   1022          void InsertInterestFIB(Interest interest)
   \                     InsertInterestFIB:
   1023          {
   \   000000   74F7         MOV     A,#-0x9
   \   000002   12....       LCALL   ?BANKED_ENTER_XDATA
   \   000005                ; Saved register size: 9
   \   000005                ; Auto size: 0
   1024            int temp;
   1025            //若FIB表未满
   1026            if(FIBCounter<ForwardingNumber)
   \   000005   90....       MOV     DPTR,#FIBCounter
   \   000008   12....       LCALL   ?Subroutine41 & 0xFFFF
   \                     ??CrossCallReturnLabel_70:
   \   00000B   5028         JNC     ??InsertInterestFIB_0
   1027            {	
   1028              //FIB存储Interest相关内容	
   1029              ForwardingTable[FIBCounter].interestName.DestinationID=interest.interestName.DestinationID;	
   \   00000D   90....       MOV     DPTR,#FIBCounter
   \   000010   12....       LCALL   ?Subroutine53 & 0xFFFF
   \                     ??CrossCallReturnLabel_88:
   \   000013   12....       LCALL   ?Subroutine64 & 0xFFFF
   \                     ??CrossCallReturnLabel_102:
   \   000016   39           ADDC    A,R1
   \   000017   F9           MOV     R1,A
   \   000018   740B         MOV     A,#0xb
   \   00001A   12....       LCALL   ?XSTACK_DISP0_8
   \   00001D   12....       LCALL   ?Subroutine28 & 0xFFFF
   1030              ForwardingTable[FIBCounter].interestName.DataFlag=interest.interestName.DataFlag;	
   \                     ??CrossCallReturnLabel_42:
   \   000020   12....       LCALL   ?XSTACK_DISP0_8
   \   000023   12....       LCALL   ?Subroutine29 & 0xFFFF
   1031              ForwardingTable[FIBCounter].interestName.PackageCounter=interest.interestName.PackageCounter;	
   \                     ??CrossCallReturnLabel_46:
   \   000026   12....       LCALL   ?XSTACK_DISP0_8
   \   000029   12....       LCALL   ?Subroutine19 & 0xFFFF
   1032              ForwardingTable[FIBCounter].time=0;
   \                     ??CrossCallReturnLabel_25:
   \   00002C   F0           MOVX    @DPTR,A
   1033              //time需要定时的来更新，后续处理		
   1034              FIBCounter++;
   \   00002D   90....       MOV     DPTR,#FIBCounter
   \   000030   12....       LCALL   ??Subroutine129_0 & 0xFFFF
   1035            }
   \                     ??CrossCallReturnLabel_236:
   \   000033   8066         SJMP    ??CrossCallReturnLabel_26
   1036            //若FIB表已经装满，需要使用替换策略进行替换，我们淘汰掉最长等待时间的条目
   1037            else
   1038            {	
   1039              temp=0;		
   \                     ??InsertInterestFIB_0:
   \   000035   7C00         MOV     R4,#0x0
   \   000037   7D00         MOV     R5,#0x0
   1040              for(temp_i=1;temp_i<FIBCounter;++temp_i)	
   \   000039   90....       MOV     DPTR,#temp_i
   \   00003C   12....       LCALL   ??Subroutine137_0 & 0xFFFF
   1041              {		
   1042                if(ForwardingTable[temp].time<ForwardingTable[temp_i].time && ForwardingTable[temp].used==0 && ForwardingTable[temp_i].used==0)	
   \                     ??CrossCallReturnLabel_302:
   \   00003F   12....       LCALL   ?Subroutine35 & 0xFFFF
   \                     ??CrossCallReturnLabel_60:
   \   000042   C082         PUSH    DPL
   \   000044   C083         PUSH    DPH
   \   000046   12....       LCALL   ?Subroutine59 & 0xFFFF
   \                     ??CrossCallReturnLabel_95:
   \   000049   D083         POP     DPH
   \   00004B   D082         POP     DPL
   \   00004D   C3           CLR     C
   \   00004E   E0           MOVX    A,@DPTR
   \   00004F   9E           SUBB    A,R6
   \   000050   A3           INC     DPTR
   \   000051   E0           MOVX    A,@DPTR
   \   000052   9F           SUBB    A,R7
   \   000053   5013         JNC     ??CrossCallReturnLabel_365
   \   000055   12....       LCALL   ?Subroutine39 & 0xFFFF
   \                     ??CrossCallReturnLabel_270:
   \   000058   700E         JNZ     ??CrossCallReturnLabel_365
   \   00005A   EA           MOV     A,R2
   \   00005B   2414         ADD     A,#0x14
   \   00005D   F582         MOV     DPL,A
   \   00005F   EB           MOV     A,R3
   \   000060   12....       LCALL   ??Subroutine134_0 & 0xFFFF
   \                     ??CrossCallReturnLabel_268:
   \   000063   7003         JNZ     ??CrossCallReturnLabel_365
   1043                  temp=temp_i;	
   \   000065   12....       LCALL   ?Subroutine46 & 0xFFFF
   1044              }		
   \                     ??CrossCallReturnLabel_365:
   \   000068   12....       LCALL   ?Subroutine16 & 0xFFFF
   \                     ??CrossCallReturnLabel_240:
   \   00006B   12....       LCALL   ?Subroutine6 & 0xFFFF
   \                     ??CrossCallReturnLabel_1:
   \   00006E   40CF         JC      ??CrossCallReturnLabel_302
   1045              //替换temp所在位置的内容		
   1046              //PIT存储Interest相关内容
   1047              ForwardingTable[temp].interestName.DestinationID=interest.interestName.DestinationID;	
   \   000070   EC           MOV     A,R4
   \   000071   75F016       MOV     B,#0x16
   \   000074   A4           MUL     AB
   \   000075   FC           MOV     R4,A
   \   000076   A8F0         MOV     R0,B
   \   000078   75F016       MOV     B,#0x16
   \   00007B   ED           MOV     A,R5
   \   00007C   A4           MUL     AB
   \   00007D   28           ADD     A,R0
   \   00007E   FD           MOV     R5,A
   \   00007F   74..         MOV     A,#ForwardingTable & 0xff
   \   000081   2C           ADD     A,R4
   \   000082   F8           MOV     R0,A
   \   000083   74..         MOV     A,#(ForwardingTable >> 8) & 0xff
   \   000085   3D           ADDC    A,R5
   \   000086   F9           MOV     R1,A
   \   000087   740B         MOV     A,#0xb
   \   000089   12....       LCALL   ?XSTACK_DISP0_8
   \   00008C   12....       LCALL   ?Subroutine28 & 0xFFFF
   1048              ForwardingTable[temp].interestName.DataFlag=interest.interestName.DataFlag;	
   1049              ForwardingTable[temp].interestName.PackageCounter=interest.interestName.PackageCounter;	
   1050              ForwardingTable[temp].time=0;
   1051            }
   \                     ??CrossCallReturnLabel_43:
   \   00008F   12....       LCALL   ?XSTACK_DISP0_8
   \   000092   12....       LCALL   ?Subroutine29 & 0xFFFF
   \                     ??CrossCallReturnLabel_47:
   \   000095   12....       LCALL   ?XSTACK_DISP0_8
   \   000098   12....       LCALL   ?Subroutine19 & 0xFFFF
   \                     ??CrossCallReturnLabel_26:
   \   00009B   02....       LJMP    ??Subroutine145_0 & 0xFFFF
   1052          }

   \                                 In  segment BANKED_CODE, align 1, keep-with-next
   \                     ?Subroutine39:
   \   000000   E8           MOV     A,R0
   \   000001   2414         ADD     A,#0x14
   \   000003   F582         MOV     DPL,A
   \   000005   E9           MOV     A,R1
   \   000006                REQUIRE ??Subroutine134_0
   \   000006                ; // Fall through to label ??Subroutine134_0

   \                                 In  segment BANKED_CODE, align 1, keep-with-next
   \                     ??Subroutine134_0:
   \   000000   12....       LCALL   ??Subroutine148_0 & 0xFFFF
   \                     ??CrossCallReturnLabel_354:
   \   000003                REQUIRE ??Subroutine135_0
   \   000003                ; // Fall through to label ??Subroutine135_0

   \                                 In  segment BANKED_CODE, align 1, keep-with-next
   \                     ?Subroutine19:
   \   000000   12....       LCALL   ?Subroutine78 & 0xFFFF
   \                     ??CrossCallReturnLabel_127:
   \   000003   12....       LCALL   ??Subroutine142_0 & 0xFFFF
   \                     ??CrossCallReturnLabel_317:
   \   000006   12....       LCALL   ?Subroutine91 & 0xFFFF
   \                     ??CrossCallReturnLabel_309:
   \   000009   22           RET

   \                                 In  segment BANKED_CODE, align 1, keep-with-next
   \                     ?Subroutine59:
   \   000000   EA           MOV     A,R2
   \   000001   2412         ADD     A,#0x12
   \   000003   F582         MOV     DPL,A
   \   000005   EB           MOV     A,R3
   \   000006   12....       LCALL   ??Subroutine148_0 & 0xFFFF
   \                     ??CrossCallReturnLabel_349:
   \   000009   E0           MOVX    A,@DPTR
   \   00000A   FE           MOV     R6,A
   \   00000B   A3           INC     DPTR
   \   00000C   E0           MOVX    A,@DPTR
   \   00000D   FF           MOV     R7,A
   \   00000E   22           RET

   \                                 In  segment BANKED_CODE, align 1, keep-with-next
   \                     ?Subroutine35:
   \   000000   12....       LCALL   ?Subroutine80 & 0xFFFF
   \                     ??CrossCallReturnLabel_129:
   \   000003   FA           MOV     R2,A
   \   000004   74..         MOV     A,#(ForwardingTable >> 8) & 0xff
   \   000006   39           ADDC    A,R1
   \   000007   FB           MOV     R3,A
   \   000008   EC           MOV     A,R4
   \   000009   F8           MOV     R0,A
   \   00000A   ED           MOV     A,R5
   \   00000B   F9           MOV     R1,A
   \   00000C   E8           MOV     A,R0
   \   00000D   75F016       MOV     B,#0x16
   \   000010   A4           MUL     AB
   \   000011   F8           MOV     R0,A
   \   000012   AEF0         MOV     R6,B
   \   000014   75F016       MOV     B,#0x16
   \   000017   E9           MOV     A,R1
   \   000018   A4           MUL     AB
   \   000019   2E           ADD     A,R6
   \   00001A   F9           MOV     R1,A
   \   00001B   74..         MOV     A,#ForwardingTable & 0xff
   \   00001D   28           ADD     A,R0
   \   00001E   F8           MOV     R0,A
   \   00001F   74..         MOV     A,#(ForwardingTable >> 8) & 0xff
   \   000021   39           ADDC    A,R1
   \   000022   F9           MOV     R1,A
   \   000023   E8           MOV     A,R0
   \   000024   2412         ADD     A,#0x12
   \   000026   12....       LCALL   ?Subroutine92 & 0xFFFF
   \                     ??CrossCallReturnLabel_350:
   \   000029   22           RET

   \                                 In  segment BANKED_CODE, align 1, keep-with-next
   \                     ?Subroutine46:
   \   000000   90....       MOV     DPTR,#temp_i
   \   000003                REQUIRE ??Subroutine149_0
   \   000003                ; // Fall through to label ??Subroutine149_0

   \                                 In  segment BANKED_CODE, align 1, keep-with-next
   \                     ?Subroutine80:
   \   000000   12....       LCALL   ?Subroutine105 & 0xFFFF
   \                     ??CrossCallReturnLabel_277:
   \   000003   75F016       MOV     B,#0x16
   \   000006   A4           MUL     AB
   \   000007   F8           MOV     R0,A
   \   000008   AAF0         MOV     R2,B
   \   00000A   75F016       MOV     B,#0x16
   \   00000D   E9           MOV     A,R1
   \   00000E   A4           MUL     AB
   \   00000F   2A           ADD     A,R2
   \   000010   F9           MOV     R1,A
   \   000011   74..         MOV     A,#ForwardingTable & 0xff
   \   000013   28           ADD     A,R0
   \   000014   22           RET
   1053          
   1054          
   1055          //FIB发送完新的interest后收到了ACK来进行outcomingQueue添加,
   1056          //若没有接受到下一跳的回复，则新的interest丢弃，根据OutcomingNumber来判断

   \                                 In  segment BANKED_CODE, align 1, keep-with-next
   1057          void InsertQueueFIB(uint8 interestID,uint16 nodeid)
   \                     InsertQueueFIB:
   1058          {
   \   000000   74F7         MOV     A,#-0x9
   \   000002   12....       LCALL   ?BANKED_ENTER_XDATA
   \   000005                ; Saved register size: 9
   \   000005                ; Auto size: 0
   \   000005   EA           MOV     A,R2
   \   000006   FC           MOV     R4,A
   \   000007   EB           MOV     A,R3
   \   000008   FD           MOV     R5,A
   1059            //FIB进行对应的interestID的输出节点号的添加
   1060            //判断是否有重复出口，若有则不进行添加
   1061            for(temp_i=0;temp_i<ForwardingTable[interestID].OutcomingNumber;temp_i++)
   \   000009   90....       MOV     DPTR,#temp_i
   \   00000C   E4           CLR     A
   \   00000D   F0           MOVX    @DPTR,A
   \   00000E   A3           INC     DPTR
   \   00000F   F0           MOVX    @DPTR,A
   \   000010   E9           MOV     A,R1
   \   000011   75F016       MOV     B,#0x16
   \   000014   A4           MUL     AB
   \   000015   F8           MOV     R0,A
   \   000016   A9F0         MOV     R1,B
   \   000018   74..         MOV     A,#ForwardingTable & 0xff
   \   00001A   28           ADD     A,R0
   \   00001B   FA           MOV     R2,A
   \   00001C   74..         MOV     A,#(ForwardingTable >> 8) & 0xff
   \   00001E   39           ADDC    A,R1
   \   00001F   FB           MOV     R3,A
   \   000020   EA           MOV     A,R2
   \   000021   2410         ADD     A,#0x10
   \   000023   F8           MOV     R0,A
   \   000024   EB           MOV     A,R3
   \   000025   3400         ADDC    A,#0x0
   \   000027   F9           MOV     R1,A
   \   000028   E8           MOV     A,R0
   \   000029   FE           MOV     R6,A
   \   00002A   E9           MOV     A,R1
   \   00002B   FF           MOV     R7,A
   \   00002C   8022         SJMP    ??CrossCallReturnLabel_187
   1062            {	
   1063              if(nodeid==ForwardingTable[interestID].OutcomingQueue[temp_i])					
   \                     ??InsertQueueFIB_0:
   \   00002E   90....       MOV     DPTR,#temp_i
   \   000031   12....       LCALL   ?Subroutine53 & 0xFFFF
   1064                return ;
   1065            }
   \                     ??CrossCallReturnLabel_89:
   \   000034   C3           CLR     C
   \   000035   33           RLC     A
   \   000036   F8           MOV     R0,A
   \   000037   E9           MOV     A,R1
   \   000038   33           RLC     A
   \   000039   F9           MOV     R1,A
   \   00003A   EA           MOV     A,R2
   \   00003B   28           ADD     A,R0
   \   00003C   F582         MOV     DPL,A
   \   00003E   EB           MOV     A,R3
   \   00003F   12....       LCALL   ?Subroutine66 & 0xFFFF
   \                     ??CrossCallReturnLabel_107:
   \   000042   6C           XRL     A,R4
   \   000043   7003         JNZ     ??InsertQueueFIB_1
   \   000045   A3           INC     DPTR
   \   000046   E0           MOVX    A,@DPTR
   \   000047   6D           XRL     A,R5
   \                     ??InsertQueueFIB_1:
   \   000048   6049         JZ      ??CrossCallReturnLabel_188
   \   00004A   90....       MOV     DPTR,#temp_i
   \   00004D   12....       LCALL   ??Subroutine118_0 & 0xFFFF
   \                     ??CrossCallReturnLabel_187:
   \   000050   8E82         MOV     DPL,R6
   \   000052   8F83         MOV     DPH,R7
   \   000054   12....       LCALL   ??Subroutine147_0 & 0xFFFF
   \                     ??CrossCallReturnLabel_339:
   \   000057   7583..       MOV     DPH,#(temp_i >> 8) & 0xff
   \   00005A   7582..       MOV     DPL,#temp_i & 0xff
   \   00005D   C3           CLR     C
   \   00005E   E0           MOVX    A,@DPTR
   \   00005F   98           SUBB    A,R0
   \   000060   A3           INC     DPTR
   \   000061   E0           MOVX    A,@DPTR
   \   000062   99           SUBB    A,R1
   \   000063   40C9         JC      ??InsertQueueFIB_0
   1066            if(temp_i==ForwardingTable[interestID].OutcomingNumber)
   \   000065   8E82         MOV     DPL,R6
   \   000067   8F83         MOV     DPH,R7
   \   000069   12....       LCALL   ??Subroutine147_0 & 0xFFFF
   \                     ??CrossCallReturnLabel_340:
   \   00006C   90....       MOV     DPTR,#temp_i
   \   00006F   E0           MOVX    A,@DPTR
   \   000070   68           XRL     A,R0
   \   000071   7003         JNZ     ??InsertQueueFIB_2
   \   000073   A3           INC     DPTR
   \   000074   E0           MOVX    A,@DPTR
   \   000075   69           XRL     A,R1
   \                     ??InsertQueueFIB_2:
   \   000076   701B         JNZ     ??CrossCallReturnLabel_188
   1067            {	
   1068              ForwardingTable[interestID].OutcomingQueue[ForwardingTable[interestID].OutcomingNumber]=nodeid; 
   \   000078   E8           MOV     A,R0
   \   000079   C3           CLR     C
   \   00007A   33           RLC     A
   \   00007B   F8           MOV     R0,A
   \   00007C   E9           MOV     A,R1
   \   00007D   33           RLC     A
   \   00007E   F9           MOV     R1,A
   \   00007F   EA           MOV     A,R2
   \   000080   28           ADD     A,R0
   \   000081   F582         MOV     DPL,A
   \   000083   EB           MOV     A,R3
   \   000084   12....       LCALL   ?Subroutine94 & 0xFFFF
   \                     ??CrossCallReturnLabel_140:
   \   000087   EC           MOV     A,R4
   \   000088   F0           MOVX    @DPTR,A
   \   000089   A3           INC     DPTR
   \   00008A   ED           MOV     A,R5
   \   00008B   F0           MOVX    @DPTR,A
   1069              ForwardingTable[interestID].OutcomingNumber++;
   \   00008C   8E82         MOV     DPL,R6
   \   00008E   8F83         MOV     DPH,R7
   \   000090   12....       LCALL   ??Subroutine118_0 & 0xFFFF
   1070            }
   \                     ??CrossCallReturnLabel_188:
   \   000093   02....       LJMP    ??Subroutine146_0 & 0xFFFF
   1071          }
   1072          
   1073          
   1074          //FIB表进行删除，删除当前没有被重复使用且时间最长的条目

   \                                 In  segment BANKED_CODE, align 1, keep-with-next
   1075          void DeleteItemFIB(void)
   \                     DeleteItemFIB:
   1076          {
   \   000000   74F7         MOV     A,#-0x9
   \   000002   12....       LCALL   ?BANKED_ENTER_XDATA
   \   000005                ; Saved register size: 9
   \   000005                ; Auto size: 0
   1077            int temp;
   1078            temp=0;
   \   000005   7C00         MOV     R4,#0x0
   \   000007   7D00         MOV     R5,#0x0
   1079            for(temp_i=0;temp_i<FIBCounter;++temp_i)
   \   000009   90....       MOV     DPTR,#temp_i
   \   00000C   E4           CLR     A
   \   00000D   F0           MOVX    @DPTR,A
   \   00000E   A3           INC     DPTR
   \   00000F   802C         SJMP    ??CrossCallReturnLabel_241
   1080            {	
   1081              if(ForwardingTable[temp].time<ForwardingTable[temp_i].time && ForwardingTable[temp].used==0 && ForwardingTable[temp_i].used==0)	
   \                     ??DeleteItemFIB_0:
   \   000011   12....       LCALL   ?Subroutine35 & 0xFFFF
   \                     ??CrossCallReturnLabel_61:
   \   000014   C082         PUSH    DPL
   \   000016   C083         PUSH    DPH
   \   000018   12....       LCALL   ?Subroutine59 & 0xFFFF
   \                     ??CrossCallReturnLabel_96:
   \   00001B   D083         POP     DPH
   \   00001D   D082         POP     DPL
   \   00001F   C3           CLR     C
   \   000020   E0           MOVX    A,@DPTR
   \   000021   9E           SUBB    A,R6
   \   000022   A3           INC     DPTR
   \   000023   E0           MOVX    A,@DPTR
   \   000024   9F           SUBB    A,R7
   \   000025   5013         JNC     ??CrossCallReturnLabel_366
   \   000027   12....       LCALL   ?Subroutine39 & 0xFFFF
   \                     ??CrossCallReturnLabel_271:
   \   00002A   700E         JNZ     ??CrossCallReturnLabel_366
   \   00002C   EA           MOV     A,R2
   \   00002D   2414         ADD     A,#0x14
   \   00002F   F582         MOV     DPL,A
   \   000031   EB           MOV     A,R3
   \   000032   12....       LCALL   ??Subroutine134_0 & 0xFFFF
   \                     ??CrossCallReturnLabel_269:
   \   000035   7003         JNZ     ??CrossCallReturnLabel_366
   1082              {		
   1083                temp=temp_i;	
   \   000037   12....       LCALL   ?Subroutine46 & 0xFFFF
   1084              }
   1085            }
   \                     ??CrossCallReturnLabel_366:
   \   00003A   12....       LCALL   ?Subroutine16 & 0xFFFF
   \                     ??CrossCallReturnLabel_241:
   \   00003D   12....       LCALL   ?Subroutine6 & 0xFFFF
   \                     ??CrossCallReturnLabel_2:
   \   000040   40CF         JC      ??DeleteItemFIB_0
   1086            if(temp<FIBCounter-1)
   \   000042   90....       MOV     DPTR,#FIBCounter
   \   000045   E0           MOVX    A,@DPTR
   \   000046   24FF         ADD     A,#-0x1
   \   000048   18           DEC     R0
   \   000049   A3           INC     DPTR
   \   00004A   E0           MOVX    A,@DPTR
   \   00004B   34FF         ADDC    A,#-0x1
   \   00004D   F9           MOV     R1,A
   \   00004E   C3           CLR     C
   \   00004F   EC           MOV     A,R4
   \   000050   98           SUBB    A,R0
   \   000051   ED           MOV     A,R5
   \   000052   12....       LCALL   ?Subroutine95 & 0xFFFF
   \                     ??CrossCallReturnLabel_143:
   \   000055   501C         JNC     ??DeleteItemFIB_1
   1087            {	
   1088              for(temp_i=temp;temp_i<FIBCounter;++temp_i)	
   \   000057   90....       MOV     DPTR,#temp_i
   \   00005A   EC           MOV     A,R4
   \   00005B   F0           MOVX    @DPTR,A
   \   00005C   A3           INC     DPTR
   \   00005D   ED           MOV     A,R5
   \   00005E   800E         SJMP    ??CrossCallReturnLabel_7
   1089              {	
   1090                ForwardingTable[temp_i].interestName.DestinationID=ForwardingTable[temp_i+1].interestName.DestinationID;		
   \                     ??DeleteItemFIB_2:
   \   000060   12....       LCALL   ?Subroutine12 & 0xFFFF
   1091                ForwardingTable[temp_i].interestName.DataFlag=ForwardingTable[temp_i+1].interestName.DataFlag;		
   1092                ForwardingTable[temp_i].interestName.PackageCounter=ForwardingTable[temp_i+1].interestName.PackageCounter;
   1093                for(temp_j=0;temp_j<5;++temp_j)	
   1094                {		
   1095                  ForwardingTable[temp_i].OutcomingQueue[temp_j]=ForwardingTable[temp_i+1].OutcomingQueue[temp_j];	
   \                     ??CrossCallReturnLabel_15:
   \   000063   12....       LCALL   ?Subroutine40 & 0xFFFF
   1096                }		
   \                     ??CrossCallReturnLabel_66:
   \   000066   12....       LCALL   ??Subroutine131_0 & 0xFFFF
   \                     ??CrossCallReturnLabel_250:
   \   000069   40F8         JC      ??CrossCallReturnLabel_15
   1097                ForwardingTable[temp_i].OutcomingNumber=ForwardingTable[temp_i+1].OutcomingNumber;
   \   00006B   12....       LCALL   ?Subroutine9 & 0xFFFF
   1098                ForwardingTable[temp_i].time=ForwardingTable[temp_i+1].time;	
   1099                ForwardingTable[temp_i].used=ForwardingTable[temp_i+1].used;	
   1100              }	
   \                     ??CrossCallReturnLabel_7:
   \   00006E   12....       LCALL   ?Subroutine6 & 0xFFFF
   \                     ??CrossCallReturnLabel_3:
   \   000071   40ED         JC      ??DeleteItemFIB_2
   1101              FIBCounter--;
   \                     ??DeleteItemFIB_1:
   \   000073   90....       MOV     DPTR,#FIBCounter
   \   000076   02....       LJMP    ??Subroutine144_0 & 0xFFFF
   1102            }
   1103            else
   1104            {	
   1105              FIBCounter--;
   1106            }
   1107          }

   \                                 In  segment BANKED_CODE, align 1, keep-with-next
   \                     ?Subroutine40:
   \   000000   12....       LCALL   ?Subroutine81 & 0xFFFF
   \                     ??CrossCallReturnLabel_131:
   \   000003   241C         ADD     A,#0x1c
   \   000005   22           RET

   \                                 In  segment BANKED_CODE, align 1, keep-with-next
   \                     ?Subroutine12:
   \   000000   12....       LCALL   ?Subroutine80 & 0xFFFF
   \                     ??CrossCallReturnLabel_128:
   \   000003   F8           MOV     R0,A
   \   000004   74..         MOV     A,#(ForwardingTable >> 8) & 0xff
   \   000006   39           ADDC    A,R1
   \   000007   F9           MOV     R1,A
   \   000008   E8           MOV     A,R0
   \   000009   2416         ADD     A,#0x16
   \   00000B   12....       LCALL   ?Subroutine84 & 0xFFFF
   \                     ??CrossCallReturnLabel_262:
   \   00000E   12....       LCALL   ?Subroutine69 & 0xFFFF
   \                     ??CrossCallReturnLabel_111:
   \   000011   12....       LCALL   ??Subroutine142_0 & 0xFFFF
   \                     ??CrossCallReturnLabel_318:
   \   000014   241A         ADD     A,#0x1a
   \   000016   12....       LCALL   ?Subroutine79 & 0xFFFF
   \                     ??CrossCallReturnLabel_283:
   \   000019   12....       LCALL   ?Subroutine74 & 0xFFFF
   \                     ??CrossCallReturnLabel_119:
   \   00001C   22           RET

   \                                 In  segment BANKED_CODE, align 1, keep-with-next
   \                     ?Subroutine9:
   \   000000   E8           MOV     A,R0
   \   000001   2426         ADD     A,#0x26
   \   000003   12....       LCALL   ?Subroutine70 & 0xFFFF
   \                     ??CrossCallReturnLabel_311:
   \   000006   2428         ADD     A,#0x28
   \   000008   12....       LCALL   ?Subroutine89 & 0xFFFF
   \                     ??CrossCallReturnLabel_136:
   \   00000B   12....       LCALL   ??Subroutine141_0 & 0xFFFF
   \                     ??CrossCallReturnLabel_312:
   \   00000E   242A         ADD     A,#0x2a
   \   000010   F582         MOV     DPL,A
   \   000012   E9           MOV     A,R1
   \   000013   3400         ADDC    A,#0x0
   \   000015   12....       LCALL   ?Subroutine90 & 0xFFFF
   \                     ??CrossCallReturnLabel_244:
   \   000018   E8           MOV     A,R0
   \   000019   2414         ADD     A,#0x14
   \   00001B   12....       LCALL   ?Subroutine71 & 0xFFFF
   \                     ??CrossCallReturnLabel_113:
   \   00001E   22           RET
   1108          
   1109          //FIB表中删除特定的Item

   \                                 In  segment BANKED_CODE, align 1, keep-with-next
   1110          void DeleteItemFIBS(int i)
   \                     DeleteItemFIBS:
   1111          {
   \   000000   74F7         MOV     A,#-0x9
   \   000002   12....       LCALL   ?BANKED_ENTER_XDATA
   \   000005                ; Saved register size: 9
   \   000005                ; Auto size: 0
   1112            if(ForwardingTable[i].used>0)
   \   000005   EA           MOV     A,R2
   \   000006   F8           MOV     R0,A
   \   000007   EB           MOV     A,R3
   \   000008   F9           MOV     R1,A
   \   000009   E8           MOV     A,R0
   \   00000A   75F016       MOV     B,#0x16
   \   00000D   A4           MUL     AB
   \   00000E   F8           MOV     R0,A
   \   00000F   ACF0         MOV     R4,B
   \   000011   75F016       MOV     B,#0x16
   \   000014   E9           MOV     A,R1
   \   000015   A4           MUL     AB
   \   000016   2C           ADD     A,R4
   \   000017   F9           MOV     R1,A
   \   000018   74..         MOV     A,#(ForwardingTable + 20) & 0xff
   \   00001A   28           ADD     A,R0
   \   00001B   F8           MOV     R0,A
   \   00001C   74..         MOV     A,#((ForwardingTable + 20) >> 8) & 0xff
   \   00001E   39           ADDC    A,R1
   \   00001F   F9           MOV     R1,A
   \   000020   8882         MOV     DPL,R0
   \   000022   8983         MOV     DPH,R1
   \   000024   12....       LCALL   ??Subroutine149_0 & 0xFFFF
   \                     ??CrossCallReturnLabel_364:
   \   000027   EC           MOV     A,R4
   \   000028   4D           ORL     A,R5
   \   000029   6006         JZ      ??DeleteItemFIBS_0
   1113            {
   1114              ForwardingTable[i].used--;
   \   00002B   8882         MOV     DPL,R0
   \   00002D   8983         MOV     DPH,R1
   \   00002F   8027         SJMP    ??DeleteItemFIBS_1
   1115            }
   1116            else
   1117            {	
   1118              if(i<FIBCounter-1)
   \                     ??DeleteItemFIBS_0:
   \   000031   90....       MOV     DPTR,#FIBCounter
   \   000034   12....       LCALL   ?Subroutine42 & 0xFFFF
   \                     ??CrossCallReturnLabel_72:
   \   000037   501C         JNC     ??DeleteItemFIBS_2
   1119              {	
   1120                for(temp_i=i;temp_i<FIBCounter;++temp_i)	
   \   000039   90....       MOV     DPTR,#temp_i
   \   00003C   EA           MOV     A,R2
   \   00003D   F0           MOVX    @DPTR,A
   \   00003E   A3           INC     DPTR
   \   00003F   EB           MOV     A,R3
   \   000040   800E         SJMP    ??CrossCallReturnLabel_8
   1121                {			
   1122                  ForwardingTable[temp_i].interestName.DestinationID=ForwardingTable[temp_i+1].interestName.DestinationID;			
   \                     ??DeleteItemFIBS_3:
   \   000042   12....       LCALL   ?Subroutine12 & 0xFFFF
   1123                  ForwardingTable[temp_i].interestName.DataFlag=ForwardingTable[temp_i+1].interestName.DataFlag;			
   1124                  ForwardingTable[temp_i].interestName.PackageCounter=ForwardingTable[temp_i+1].interestName.PackageCounter;	
   1125          	for(temp_j=0;temp_j<5;++temp_j)			
   1126                  {			
   1127                    ForwardingTable[temp_i].OutcomingQueue[temp_j]=ForwardingTable[temp_i+1].OutcomingQueue[temp_j];		
   \                     ??CrossCallReturnLabel_16:
   \   000045   12....       LCALL   ?Subroutine40 & 0xFFFF
   1128                  }				
   \                     ??CrossCallReturnLabel_67:
   \   000048   12....       LCALL   ??Subroutine131_0 & 0xFFFF
   \                     ??CrossCallReturnLabel_251:
   \   00004B   40F8         JC      ??CrossCallReturnLabel_16
   1129                  ForwardingTable[temp_i].OutcomingNumber=ForwardingTable[temp_i+1].OutcomingNumber;			
   \   00004D   12....       LCALL   ?Subroutine9 & 0xFFFF
   1130                  ForwardingTable[temp_i].time=ForwardingTable[temp_i+1].time;			
   1131                  ForwardingTable[temp_i].used=ForwardingTable[temp_i+1].used;
   1132                }		
   \                     ??CrossCallReturnLabel_8:
   \   000050   12....       LCALL   ?Subroutine6 & 0xFFFF
   \                     ??CrossCallReturnLabel_4:
   \   000053   40ED         JC      ??DeleteItemFIBS_3
   1133                FIBCounter--;	
   \                     ??DeleteItemFIBS_2:
   \   000055   90....       MOV     DPTR,#FIBCounter
   1134              }	
   1135              else	
   1136              {		
   1137                FIBCounter--;	
   1138              }
   1139            }
   \                     ??DeleteItemFIBS_1:
   \   000058   02....       LJMP    ??Subroutine144_0 & 0xFFFF
   1140          }
   1141          

   \                                 In  segment BANKED_CODE, align 1, keep-with-next
   1142          uint16 getADC (void)
   \                     getADC:
   1143          {
   \   000000   C0..         PUSH    ?V0 + 0
   \   000002                ; Saved register size: 2
   \   000002                ; Auto size: 0
   1144            uint16 value;
   1145            uint8 tmpADCCON3 = ADCCON3;  // Save ADCCON3 to restore later
   \   000002   E5B6         MOV     A,0xb6
   \   000004   F8           MOV     R0,A
   1146          
   1147            /* Clear ADC interrupt flag */
   1148            ADCIF = 0;
   \   000005   C28D         CLR     0x88.5
   1149          
   1150            /* Setup the new value for conversion */
   1151            ADCCON3 = (0x00 | 0x00 | 0x0f);
   \   000007   75B60F       MOV     0xb6,#0xf
   1152          
   1153            /* Wait for the conversion to finish */
   1154            while ( !ADCIF );
   \                     ??getADC_0:
   \   00000A   A28D         MOV     C,0x88.5
   \   00000C   50FC         JNC     ??getADC_0
   1155          
   1156            /* Get the result */
   1157            value = ADCL;
   \   00000E   E5BA         MOV     A,0xba
   \   000010   F5..         MOV     ?V0 + 0,A
   1158            value |= ((uint16) ADCH) << 8;
   \   000012   E5BB         MOV     A,0xbb
   1159          
   1160            // Restore ADCCON3
   1161            ADCCON3 = tmpADCCON3;
   \   000014   88B6         MOV     0xb6,R0
   1162            
   1163            /* Check the limit and return */
   1164            return value;
   \   000016   AA..         MOV     R2,?V0 + 0
   \   000018   FB           MOV     R3,A
   \   000019   D0..         POP     ?V0 + 0
   \   00001B   02....       LJMP    ?BRET
   \   00001E                REQUIRE ADCCON3
   \   00001E                REQUIRE _A_TCON
   \   00001E                REQUIRE ADCL
   \   00001E                REQUIRE ADCH
   1165          }

   \                                 In  segment XDATA_ID, align 1, keep-with-next
   \                     `?<Initializer for NodeId>`:
   \   000000   0300         DW 3

   \                                 In  segment XDATA_ID, align 1, keep-with-next
   \                     `?<Initializer for layer>`:
   \   000000   0200         DW 2

   \                                 In  segment BANK_RELAYS, align 1
   \                     ??SampleApp_Init?relay:
   \   000000   12....       LCALL   ?BDISPATCH
   \   000003   ......       DC24    SampleApp_Init

   \                                 In  segment BANK_RELAYS, align 1
   \                     ??SampleApp_ProcessEvent?relay:
   \   000000   12....       LCALL   ?BDISPATCH
   \   000003   ......       DC24    SampleApp_ProcessEvent

   \                                 In  segment BANK_RELAYS, align 1
   \                     ??SampleApp_MessageMSGCB?relay:
   \   000000   12....       LCALL   ?BDISPATCH
   \   000003   ......       DC24    SampleApp_MessageMSGCB

   \                                 In  segment BANK_RELAYS, align 1
   \                     ??SampleApp_COOR_Send_Message?relay:
   \   000000   12....       LCALL   ?BDISPATCH
   \   000003   ......       DC24    SampleApp_COOR_Send_Message

   \                                 In  segment BANK_RELAYS, align 1
   \                     ??SampleApp_Interest_Process?relay:
   \   000000   12....       LCALL   ?BDISPATCH
   \   000003   ......       DC24    SampleApp_Interest_Process

   \                                 In  segment BANK_RELAYS, align 1
   \                     ??SampleApp_Ack_Process?relay:
   \   000000   12....       LCALL   ?BDISPATCH
   \   000003   ......       DC24    SampleApp_Ack_Process

   \                                 In  segment BANK_RELAYS, align 1
   \                     ??SampleApp_Data_Process?relay:
   \   000000   12....       LCALL   ?BDISPATCH
   \   000003   ......       DC24    SampleApp_Data_Process

   \                                 In  segment BANK_RELAYS, align 1
   \                     ??SampleApp_ContinueSend?relay:
   \   000000   12....       LCALL   ?BDISPATCH
   \   000003   ......       DC24    SampleApp_ContinueSend

   \                                 In  segment BANK_RELAYS, align 1
   \                     ??ForwardingInterestFromFIB?relay:
   \   000000   12....       LCALL   ?BDISPATCH
   \   000003   ......       DC24    ForwardingInterestFromFIB

   \                                 In  segment BANK_RELAYS, align 1
   \                     ??SendDataFromPIT?relay:
   \   000000   12....       LCALL   ?BDISPATCH
   \   000003   ......       DC24    SendDataFromPIT

   \                                 In  segment BANK_RELAYS, align 1
   \                     ??SampleApp_SendDataFromCS?relay:
   \   000000   12....       LCALL   ?BDISPATCH
   \   000003   ......       DC24    SampleApp_SendDataFromCS

   \                                 In  segment BANK_RELAYS, align 1
   \                     ??SampleApp_AckMessage_Send?relay:
   \   000000   12....       LCALL   ?BDISPATCH
   \   000003   ......       DC24    SampleApp_AckMessage_Send

   \                                 In  segment BANK_RELAYS, align 1
   \                     ??SampleApp_DataMessage_Send?relay:
   \   000000   12....       LCALL   ?BDISPATCH
   \   000003   ......       DC24    SampleApp_DataMessage_Send

   \                                 In  segment BANK_RELAYS, align 1
   \                     ??SampleApp_Send_P2P_Message?relay:
   \   000000   12....       LCALL   ?BDISPATCH
   \   000003   ......       DC24    SampleApp_Send_P2P_Message

   \                                 In  segment BANK_RELAYS, align 1
   \                     ??InsertContentStore?relay:
   \   000000   12....       LCALL   ?BDISPATCH
   \   000003   ......       DC24    InsertContentStore

   \                                 In  segment BANK_RELAYS, align 1
   \                     ??ContentStoreFinder?relay:
   \   000000   12....       LCALL   ?BDISPATCH
   \   000003   ......       DC24    ContentStoreFinder

   \                                 In  segment BANK_RELAYS, align 1
   \                     ??DeleteItemCS?relay:
   \   000000   12....       LCALL   ?BDISPATCH
   \   000003   ......       DC24    DeleteItemCS

   \                                 In  segment BANK_RELAYS, align 1
   \                     ??PendingTableFindInterest?relay:
   \   000000   12....       LCALL   ?BDISPATCH
   \   000003   ......       DC24    PendingTableFindInterest

   \                                 In  segment BANK_RELAYS, align 1
   \                     ??InsertNamePIT?relay:
   \   000000   12....       LCALL   ?BDISPATCH
   \   000003   ......       DC24    InsertNamePIT

   \                                 In  segment BANK_RELAYS, align 1
   \                     ??InsertIncomingPIT?relay:
   \   000000   12....       LCALL   ?BDISPATCH
   \   000003   ......       DC24    InsertIncomingPIT

   \                                 In  segment BANK_RELAYS, align 1
   \                     ??PendingTableFindData?relay:
   \   000000   12....       LCALL   ?BDISPATCH
   \   000003   ......       DC24    PendingTableFindData

   \                                 In  segment BANK_RELAYS, align 1
   \                     ??DeleteItemPIT?relay:
   \   000000   12....       LCALL   ?BDISPATCH
   \   000003   ......       DC24    DeleteItemPIT

   \                                 In  segment BANK_RELAYS, align 1
   \                     ??DeleteItemPITS?relay:
   \   000000   12....       LCALL   ?BDISPATCH
   \   000003   ......       DC24    DeleteItemPITS

   \                                 In  segment BANK_RELAYS, align 1
   \                     ??ForwardingTableFinder?relay:
   \   000000   12....       LCALL   ?BDISPATCH
   \   000003   ......       DC24    ForwardingTableFinder

   \                                 In  segment BANK_RELAYS, align 1
   \                     ??InsertInterestFIB?relay:
   \   000000   12....       LCALL   ?BDISPATCH
   \   000003   ......       DC24    InsertInterestFIB

   \                                 In  segment BANK_RELAYS, align 1
   \                     ??InsertQueueFIB?relay:
   \   000000   12....       LCALL   ?BDISPATCH
   \   000003   ......       DC24    InsertQueueFIB

   \                                 In  segment BANK_RELAYS, align 1
   \                     ??DeleteItemFIB?relay:
   \   000000   12....       LCALL   ?BDISPATCH
   \   000003   ......       DC24    DeleteItemFIB

   \                                 In  segment BANK_RELAYS, align 1
   \                     ??DeleteItemFIBS?relay:
   \   000000   12....       LCALL   ?BDISPATCH
   \   000003   ......       DC24    DeleteItemFIBS

   \                                 In  segment BANK_RELAYS, align 1
   \                     ??getADC?relay:
   \   000000   12....       LCALL   ?BDISPATCH
   \   000003   ......       DC24    getADC

   \                                 In  segment XDATA_ROM_C, align 1
   \                     `?<Constant "Group 1">`:
   \   000000   47726F75     DB "Group 1"
   \            70203100

   \                                 In  segment XDATA_ROM_C, align 1
   \                     `?<Constant "SampleApp">`:
   \   000000   53616D70     DB "SampleApp"
   \            6C654170
   \            7000    

   \                                 In  segment XDATA_ROM_C, align 1
   \                     `?<Constant "0123456789">`:
   \   000000   30313233     DB "0123456789"
   \            34353637
   \            383900  

   Maximum stack usage in bytes:

     Function                       ISTACK PSTACK XSTACK
     --------                       ------ ------ ------
     ContentStoreFinder                 2      0     31
     DeleteItemCS                       2      0     19
     DeleteItemFIB                      2      0      9
     DeleteItemFIBS                     2      0      9
     DeleteItemPIT                      2      0      9
     DeleteItemPITS                     2      0     19
     ForwardingInterestFromFIB          1      0     45
       -> AF_DataRequest                0      0     70
     ForwardingTableFinder              4      0     22
     InsertContentStore                 4      0     22
     InsertIncomingPIT                  0      0     20
     InsertInterestFIB                  2      0     31
     InsertNamePIT                      2      0     31
     InsertQueueFIB                     2      0     19
     PendingTableFindData               2      0     31
     PendingTableFindInterest           2      0     31
     SampleApp_AckMessage_Send          1      0     41
       -> AF_DataRequest                0      0     62
     SampleApp_Ack_Process              0      0     32
       -> ForwardingTableFinder         0      0     44
       -> InsertQueueFIB                0      0     20
     SampleApp_COOR_Send_Message        1      0     43
       -> HalUARTWrite                  0      0     44
       -> AF_DataRequest                0      0     62
     SampleApp_ContinueSend             1      0     41
       -> AF_DataRequest                0      0     62
     SampleApp_DataMessage_Send         1      0     41
       -> getADC                        0      0     44
       -> AF_DataRequest                0      0     62
     SampleApp_Data_Process             0      0     32
       -> PendingTableFindData          0      0     44
       -> PendingTableFindData          0      0     44
       -> SendDataFromPIT               0      0     44
       -> DeleteItemPITS                0      0     20
       -> InsertContentStore            0      0     44
       -> DeleteItemCS                  0      0     20
       -> InsertContentStore            0      0     44
     SampleApp_Init                     0      0     14
       -> MT_UartInit                   0      0     22
       -> MT_UartRegisterTaskID         0      0     22
       -> afRegister                    0      0     22
       -> RegisterForKeys               0      0     22
       -> osal_memcpy                   0      0     28
       -> aps_AddGroup                  0      0     22
       -> HalLcdWriteString             0      0     22
     SampleApp_Interest_Process         0      0     32
       -> SampleApp_AckMessage_Send     0      0     20
       -> SampleApp_DataMessage_Send
                                        0      0     20
       -> ContentStoreFinder            0      0     44
       -> PendingTableFindInterest      0      0     44
       -> InsertNamePIT                 0      0     44
       -> ForwardingTableFinder         0      0     44
       -> InsertInterestFIB             0      0     44
       -> SampleApp_ContinueSend        0      0     20
       -> ForwardingTableFinder         0      0     44
       -> ForwardingInterestFromFIB     0      0     20
       -> SampleApp_ContinueSend        0      0     20
       -> PendingTableFindInterest      0      0     44
       -> InsertIncomingPIT             0      0     20
       -> ContentStoreFinder            0      0     44
       -> SampleApp_SendDataFromCS      0      0     20
     SampleApp_MessageMSGCB             0      0     22
       -> SampleApp_Interest_Process
                                        0      0     20
       -> SampleApp_Ack_Process         0      0     20
       -> HalUARTWrite                  0      0     20
       -> SampleApp_Data_Process        0      0     20
     SampleApp_ProcessEvent             0      0     12
       -> osal_msg_receive              0      0     24
       -> osal_start_timerEx            0      0     24
       -> osal_msg_deallocate           0      0     24
       -> osal_msg_receive              0      0     24
       -> SampleApp_MessageMSGCB        0      0     24
       -> osal_start_timerEx            0      0     24
       -> osal_start_timerEx            0      0     24
       -> SampleApp_COOR_Send_Message
                                        0      0     24
       -> osal_rand                     0      0     24
       -> osal_start_timerEx            0      0     24
     SampleApp_SendDataFromCS           1      0     41
       -> AF_DataRequest                0      0     62
     SampleApp_Send_P2P_Message         2      0     30
       -> AF_DataRequest                0      0     60
     SendDataFromPIT                    1      0     57
       -> AF_DataRequest                0      0     70
     getADC                             2      0     22


   Segment part sizes:

     Function/Label                      Bytes
     --------------                      -----
     _A_TCON                                1
     ADCCON3                                1
     ADCL                                   1
     ADCH                                   1
     NodeId                                 2
     layer                                  2
     flag                                   2
     temp_i                                 2
     temp_j                                 2
     counter                                2
     tempInterName                          6
     AcceptInterest                        12
     InterestLastID                         2
     AcceptData                            12
     ContentStore                         140
     CScounter                              2
     PendingTable                         200
     PITCounter                             2
     ForwardingTable                      220
     FIBCounter                             2
     InsertNewName                          2
     SampleApp_ClusterList                  4
     SampleApp_SimpleDesc                  12
     SampleApp_epDesc                       6
     SampleApp_TaskID                       1
     SampleApp_NwkState                     1
     SampleApp_TransID                      1
     SampleApp_Periodic_DstAddr            12
     SampleApp_Flash_DstAddr               12
     SampleApp_P2P_DstAddr                 12
     SampleApp_Group                       18
     SampleAppPeriodicCounter               1
     SampleAppFlashCounter                  1
     SampleApp_Init                       178
     ??Subroutine137_0                      2
     ??Subroutine138_0                      5
     SampleApp_ProcessEvent               182
     ?Subroutine56                          4
     ??Subroutine110_0                      9
     ??Subroutine118_0                      4
     ?Subroutine75                          5
     ?Subroutine102                         9
     SampleApp_MessageMSGCB                82
     ?Subroutine60                          3
     ??Subroutine111_0                      3
     ??Subroutine112_0                      4
     ?Subroutine43                         17
     ??Subroutine116_0                      5
     ??Subroutine140_0                      5
     ?Subroutine86                          6
     ??Subroutine148_0                      4
     ??Subroutine149_0                      6
     SampleApp_COOR_Send_Message          132
     ?Subroutine4                          52
     ?Subroutine67                         10
     ??Subroutine113_0                      6
     ?Subroutine33                          6
     ??Subroutine114_0                     13
     ??Subroutine115_0                      3
     SampleApp_Interest_Process           391
     ?Subroutine26                          4
     ?Subroutine73                          7
     ?Subroutine21                          6
     ?Subroutine108                         6
     ?Subroutine100                         8
     ??Subroutine117_0                      4
     ??Subroutine130_0                      4
     ??Subroutine133_0                      7
     ?Subroutine82                          4
     ??Subroutine135_0                      5
     ??Subroutine143_0                      6
     ??Subroutine147_0                      4
     SampleApp_Ack_Process                 69
     SampleApp_Data_Process               344
     ?Subroutine22                         14
     ?Subroutine63                          4
     ?Subroutine96                         21
     ?Subroutine50                          5
     ?Subroutine95                          7
     SampleApp_ContinueSend               148
     ForwardingInterestFromFIB            281
     ?Subroutine1                          10
     ?Subroutine66                          5
     ?Subroutine58                         13
     ?Subroutine45                         14
     ?Subroutine94                         10
     SendDataFromPIT                      284
     SampleApp_SendDataFromCS             173
     ?Subroutine34                          4
     ?Subroutine76                          4
     ?Subroutine24                          8
     ?Subroutine0                          50
     ??Subroutine129_0                      4
     SampleApp_AckMessage_Send            156
     SampleApp_DataMessage_Send           113
     SampleApp_Send_P2P_Message           105
     InsertContentStore                   225
     ?Subroutine2                           7
     ?Subroutine51                          4
     ?Subroutine85                         12
     ?Subroutine44                          6
     ?Subroutine18                         18
     ?Subroutine61                         18
     ??Subroutine119_0                      1
     ??Subroutine120_0                     11
     ??Subroutine121_0                      4
     ?Subroutine38                          9
     ?Subroutine31                          3
     ??Subroutine122_0                      2
     ??Subroutine123_0                      4
     ?Subroutine99                          6
     ?Subroutine41                          8
     ?Subroutine87                          7
     ?Subroutine78                          6
     ?Subroutine88                         10
     ??Subroutine132_0                      4
     ?Subroutine103                         4
     ?Subroutine109                        10
     ??Subroutine136_0                      4
     ??Subroutine139_0                      7
     ?Subroutine106                         3
     ??Subroutine142_0                      5
     ?Subroutine101                         6
     ContentStoreFinder                   102
     ?Subroutine5                           6
     ?Subroutine15                          3
     ?Subroutine17                          8
     ?Subroutine55                         10
     ?Subroutine32                         16
     ?Subroutine30                         14
     ?Subroutine20                         20
     ?Subroutine77                         23
     ?Subroutine47                          4
     ?Subroutine83                         11
     ?Subroutine25                          4
     ?Subroutine72                         11
     ?Subroutine105                         3
     ?Subroutine27                          3
     ??Subroutine146_0                      5
     DeleteItemCS                         219
     ?Subroutine49                          3
     ?Subroutine23                          2
     ??Subroutine124_0                      2
     ??Subroutine125_0                      2
     ??Subroutine126_0                      2
     ??Subroutine127_0                      4
     ??Subroutine128_0                     18
     ?Subroutine16                          3
     ?Subroutine68                         10
     ?Subroutine52                         11
     ?Subroutine48                          4
     ?Subroutine57                          9
     ?Subroutine54                          3
     ?Subroutine92                          3
     PendingTableFindInterest              99
     ?Subroutine13                         10
     ?Subroutine10                          8
     ?Subroutine107                        21
     InsertNamePIT                        117
     ?Subroutine62                          6
     ?Subroutine36                          3
     ?Subroutine8                          64
     ?Subroutine98                         10
     ?Subroutine65                         10
     ?Subroutine37                         13
     ?Subroutine97                         24
     ?Subroutine90                          2
     ?Subroutine93                          6
     ?Subroutine53                          4
     ?Subroutine29                          9
     ?Subroutine28                          9
     ?Subroutine91                          2
     ??Subroutine145_0                      1
     InsertIncomingPIT                     91
     PendingTableFindData                  99
     DeleteItemPIT                         87
     ?Subroutine7                           5
     ??Subroutine131_0                     43
     ?Subroutine14                         15
     ?Subroutine11                         30
     ?Subroutine84                          3
     ?Subroutine79                          3
     ?Subroutine70                          6
     ??Subroutine141_0                      3
     ?Subroutine104                         7
     ?Subroutine3                           3
     ??Subroutine144_0                      3
     ?Subroutine81                         21
     ?Subroutine74                         13
     ?Subroutine69                         13
     ?Subroutine89                          7
     ?Subroutine71                         13
     DeleteItemPITS                        41
     ?Subroutine42                         17
     ForwardingTableFinder                127
     ?Subroutine64                         21
     ?Subroutine6                           8
     InsertInterestFIB                    158
     ?Subroutine39                          6
     ??Subroutine134_0                      3
     ?Subroutine19                         10
     ?Subroutine59                         15
     ?Subroutine35                         42
     ?Subroutine46                          3
     ?Subroutine80                         21
     InsertQueueFIB                       150
     DeleteItemFIB                        121
     ?Subroutine40                          6
     ?Subroutine12                         29
     ?Subroutine9                          31
     DeleteItemFIBS                        91
     getADC                                30
     ?<Initializer for NodeId>              2
     ?<Initializer for layer>               2
     ??SampleApp_Init?relay                 6
     ??SampleApp_ProcessEvent?relay         6
     ??SampleApp_MessageMSGCB?relay         6
     ??SampleApp_COOR_Send_Message?relay    6
     ??SampleApp_Interest_Process?relay     6
     ??SampleApp_Ack_Process?relay          6
     ??SampleApp_Data_Process?relay         6
     ??SampleApp_ContinueSend?relay         6
     ??ForwardingInterestFromFIB?relay      6
     ??SendDataFromPIT?relay                6
     ??SampleApp_SendDataFromCS?relay       6
     ??SampleApp_AckMessage_Send?relay      6
     ??SampleApp_DataMessage_Send?relay     6
     ??SampleApp_Send_P2P_Message?relay     6
     ??InsertContentStore?relay             6
     ??ContentStoreFinder?relay             6
     ??DeleteItemCS?relay                   6
     ??PendingTableFindInterest?relay       6
     ??InsertNamePIT?relay                  6
     ??InsertIncomingPIT?relay              6
     ??PendingTableFindData?relay           6
     ??DeleteItemPIT?relay                  6
     ??DeleteItemPITS?relay                 6
     ??ForwardingTableFinder?relay          6
     ??InsertInterestFIB?relay              6
     ??InsertQueueFIB?relay                 6
     ??DeleteItemFIB?relay                  6
     ??DeleteItemFIBS?relay                 6
     ??getADC?relay                         6
     ?<Constant "Group 1">                  8
     ?<Constant "SampleApp">               10
     ?<Constant "0123456789">              11

 
 5 812 bytes in segment BANKED_CODE
   174 bytes in segment BANK_RELAYS
     4 bytes in segment SFR_AN
     4 bytes in segment XDATA_I
     4 bytes in segment XDATA_ID
    45 bytes in segment XDATA_ROM_C
   673 bytes in segment XDATA_Z
 
 5 990 bytes of CODE  memory
    45 bytes of CONST memory
     0 bytes of DATA  memory (+ 4 bytes shared)
   677 bytes of XDATA memory

Errors: none
Warnings: none
